TN:
SF:/home/kavia/workspace/code-generation/app-gateway2/dependencies/install/include/WPEFramework/com/Communicator.h
FN:142,145,_ZNK12WPEFramework3RPC6Object9ClassNameB5cxx11Ev
FNDA:0,_ZNK12WPEFramework3RPC6Object9ClassNameB5cxx11Ev
FNF:1
FNH:0
DA:142,0
DA:144,0
LF:2
LH:0
end_of_record
TN:
SF:/home/kavia/workspace/code-generation/app-gateway2/dependencies/install/include/WPEFramework/com/IIteratorType.h
FN:35,35,_ZN12WPEFramework3RPC13IIteratorTypeINSt7__cxx1112basic_stringIcSt11char_traitsIcESaIcEEELj5EED2Ev
FNDA:4,_ZN12WPEFramework3RPC13IIteratorTypeINSt7__cxx1112basic_stringIcSt11char_traitsIcESaIcEEELj5EED2Ev
FNF:1
FNH:1
DA:35,4
LF:1
LH:1
end_of_record
TN:
SF:/home/kavia/workspace/code-generation/app-gateway2/dependencies/install/include/WPEFramework/core/FileSystem.h
FN:42,50,_ZN12WPEFramework4CoreL13ParsePathInfoERKNSt7__cxx1112basic_stringIcSt11char_traitsIcESaIcEEERS6_Rt
FNDA:0,_ZN12WPEFramework4CoreL13ParsePathInfoERKNSt7__cxx1112basic_stringIcSt11char_traitsIcESaIcEEERS6_Rt
FNF:1
FNH:0
DA:42,0
DA:44,0
DA:45,0
DA:46,0
DA:47,0
DA:48,0
DA:49,0
DA:50,0
LF:8
LH:0
end_of_record
TN:
SF:/home/kavia/workspace/code-generation/app-gateway2/dependencies/install/include/WPEFramework/core/JSON.h
FN:124,159,_ZN12WPEFramework4Core4JSON8IElement10FromStringIS2_EEbRKNSt7__cxx1112basic_stringIcSt11char_traitsIcESaIcEEERT_RNS0_12OptionalTypeINS1_5ErrorEEE
FN:1584,1590,_ZN12WPEFramework4Core4JSON6StringC2Eb
FN:1637,1637,_ZN12WPEFramework4Core4JSON6StringD0Ev
FN:1637,1637,_ZN12WPEFramework4Core4JSON6StringD2Ev
FN:1639,1645,_ZN12WPEFramework4Core4JSON6StringaSERKNSt7__cxx1112basic_stringIcSt11char_traitsIcESaIcEEE
FN:1659,1665,_ZN12WPEFramework4Core4JSON6StringaSEPKc
FN:166,170,_ZN12WPEFramework4Core4JSON8IElement10FromStringERKNSt7__cxx1112basic_stringIcSt11char_traitsIcESaIcEEE
FN:172,175,_ZN12WPEFramework4Core4JSON8IElement10FromStringERKNSt7__cxx1112basic_stringIcSt11char_traitsIcESaIcEEERNS0_12OptionalTypeINS1_5ErrorEEE
FN:1751,1757,_ZNK12WPEFramework4Core4JSON6String5ValueB5cxx11Ev
FN:1782,1785,_ZNK12WPEFramework4Core4JSON6String6IsNullEv
FN:1787,1790,_ZNK12WPEFramework4Core4JSON6String5IsSetEv
FN:1792,1796,_ZN12WPEFramework4Core4JSON6String5ClearEv
FN:1798,1801,_ZNK12WPEFramework4Core4JSON6String8IsQuotedEv
FN:1814,1954,_ZNK12WPEFramework4Core4JSON6String9SerializeEPctRj
FN:1955,2125,_ZN12WPEFramework4Core4JSON6String11DeserializeEPKctRjRNS0_12OptionalTypeINS1_5ErrorEEE
FN:2120,2120,_ZZN12WPEFramework4Core4JSON6String11DeserializeEPKctRjRNS0_12OptionalTypeINS1_5ErrorEEEENKUlhE_clEh
FN:2128,2174,_ZNK12WPEFramework4Core4JSON6String9SerializeEPhtRj
FN:2176,2219,_ZN12WPEFramework4Core4JSON6String11DeserializeEPKhtRj
FN:2222,2234,_ZNK12WPEFramework4Core4JSON6String9IsEscapedERKNSt7__cxx1112basic_stringIcSt11char_traitsIcESaIcEEE
FN:2235,2246,_ZN12WPEFramework4Core4JSON6String7InScopeENS2_12ScopeBracketE
FN:2247,2257,_ZN12WPEFramework4Core4JSON6String8OutScopeENS2_12ScopeBracketE
FN:291,291,_ZN12WPEFramework4Core4JSON12IMessagePackD0Ev
FN:291,291,_ZN12WPEFramework4Core4JSON12IMessagePackD2Ev
FN:3718,3726,_ZN12WPEFramework4Core4JSON9ContainerC2Ev
FN:3727,3727,_ZN12WPEFramework4Core4JSON9ContainerD0Ev
FN:3727,3727,_ZN12WPEFramework4Core4JSON9ContainerD2Ev
FN:3745,3760,_ZNK12WPEFramework4Core4JSON9Container5IsSetEv
FN:3772,3775,_ZNK12WPEFramework4Core4JSON9Container6IsNullEv
FN:3787,3797,_ZN12WPEFramework4Core4JSON9Container5ClearEv
FN:3799,3802,_ZN12WPEFramework4Core4JSON9Container3AddEPKcPNS1_8IElementE
FN:3818,3876,_ZNK12WPEFramework4Core4JSON9Container9SerializeEPctRj
FN:3878,4033,_ZN12WPEFramework4Core4JSON9Container11DeserializeEPKctRjRNS0_12OptionalTypeINS1_5ErrorEEE
FN:4036,4108,_ZNK12WPEFramework4Core4JSON9Container9SerializeEPhtRj
FN:4110,4166,_ZN12WPEFramework4Core4JSON9Container11DeserializeEPKhtRj
FN:4174,4198,_ZN12WPEFramework4Core4JSON9Container4FindEPKc
FN:4200,4207,_ZNK12WPEFramework4Core4JSON9Container8FindNextEv
FN:4209,4222,_ZNK12WPEFramework4Core4JSON9Container4SizeEv
FN:4224,4227,_ZN12WPEFramework4Core4JSON9Container7RequestEPKc
FN:43,48,_ZN12WPEFramework4Core4JSON5ErrorC2EONSt7__cxx1112basic_stringIcSt11char_traitsIcESaIcEEE
FN:4346,4346,_ZN12WPEFramework4Core4JSON7VariantD0Ev
FN:4346,4346,_ZN12WPEFramework4Core4JSON7VariantD2Ev
FN:446,466,_ZN12WPEFramework4Core4JSONL11IsNullValueEPKctRjRt
FN:4531,4534,_ZNK12WPEFramework4Core4JSON7Variant5IsSetEv
FN:4981,5013,_ZN12WPEFramework4Core4JSON7Variant11DeserializeEPKctRjRNS0_12OptionalTypeINS1_5ErrorEEE
FN:52,52,_ZN12WPEFramework4Core4JSON5ErroraSERKS2_
FN:527,533,_ZN12WPEFramework4Core4JSON10NumberTypeIiLb1EL10NumberBase10EEaSERKi
FN:527,533,_ZN12WPEFramework4Core4JSON10NumberTypeIjLb0EL10NumberBase10EEaSERKj
FN:61,67,_ZN12WPEFramework4Core4JSON5Error7ContextEPKcmm
FN:71,76,_ZN12WPEFramework4Core4JSON5ErrorC2Ev
FN:91,91,_ZN12WPEFramework4Core4JSON8IElementD0Ev
FN:91,91,_ZN12WPEFramework4Core4JSON8IElementD2Ev
FNDA:415,_ZN12WPEFramework4Core4JSON8IElement10FromStringIS2_EEbRKNSt7__cxx1112basic_stringIcSt11char_traitsIcESaIcEEERT_RNS0_12OptionalTypeINS1_5ErrorEEE
FNDA:1584,_ZN12WPEFramework4Core4JSON6StringC2Eb
FNDA:0,_ZN12WPEFramework4Core4JSON6StringD0Ev
FNDA:3894,_ZN12WPEFramework4Core4JSON6StringD2Ev
FNDA:6,_ZN12WPEFramework4Core4JSON6StringaSERKNSt7__cxx1112basic_stringIcSt11char_traitsIcESaIcEEE
FNDA:1050,_ZN12WPEFramework4Core4JSON6StringaSEPKc
FNDA:386,_ZN12WPEFramework4Core4JSON8IElement10FromStringERKNSt7__cxx1112basic_stringIcSt11char_traitsIcESaIcEEE
FNDA:415,_ZN12WPEFramework4Core4JSON8IElement10FromStringERKNSt7__cxx1112basic_stringIcSt11char_traitsIcESaIcEEERNS0_12OptionalTypeINS1_5ErrorEEE
FNDA:2076,_ZNK12WPEFramework4Core4JSON6String5ValueB5cxx11Ev
FNDA:2976,_ZNK12WPEFramework4Core4JSON6String6IsNullEv
FNDA:2774,_ZNK12WPEFramework4Core4JSON6String5IsSetEv
FNDA:408,_ZN12WPEFramework4Core4JSON6String5ClearEv
FNDA:1383,_ZNK12WPEFramework4Core4JSON6String8IsQuotedEv
FNDA:6,_ZNK12WPEFramework4Core4JSON6String9SerializeEPctRj
FNDA:2662,_ZN12WPEFramework4Core4JSON6String11DeserializeEPKctRjRNS0_12OptionalTypeINS1_5ErrorEEE
FNDA:655,_ZZN12WPEFramework4Core4JSON6String11DeserializeEPKctRjRNS0_12OptionalTypeINS1_5ErrorEEEENKUlhE_clEh
FNDA:0,_ZNK12WPEFramework4Core4JSON6String9SerializeEPhtRj
FNDA:0,_ZN12WPEFramework4Core4JSON6String11DeserializeEPKhtRj
FNDA:2874,_ZNK12WPEFramework4Core4JSON6String9IsEscapedERKNSt7__cxx1112basic_stringIcSt11char_traitsIcESaIcEEE
FNDA:405,_ZN12WPEFramework4Core4JSON6String7InScopeENS2_12ScopeBracketE
FNDA:405,_ZN12WPEFramework4Core4JSON6String8OutScopeENS2_12ScopeBracketE
FNDA:0,_ZN12WPEFramework4Core4JSON12IMessagePackD0Ev
FNDA:4428,_ZN12WPEFramework4Core4JSON12IMessagePackD2Ev
FNDA:448,_ZN12WPEFramework4Core4JSON9ContainerC2Ev
FNDA:0,_ZN12WPEFramework4Core4JSON9ContainerD0Ev
FNDA:448,_ZN12WPEFramework4Core4JSON9ContainerD2Ev
FNDA:7,_ZNK12WPEFramework4Core4JSON9Container5IsSetEv
FNDA:0,_ZNK12WPEFramework4Core4JSON9Container6IsNullEv
FNDA:56,_ZN12WPEFramework4Core4JSON9Container5ClearEv
FNDA:224,_ZN12WPEFramework4Core4JSON9Container3AddEPKcPNS1_8IElementE
FNDA:2,_ZNK12WPEFramework4Core4JSON9Container9SerializeEPctRj
FNDA:42,_ZN12WPEFramework4Core4JSON9Container11DeserializeEPKctRjRNS0_12OptionalTypeINS1_5ErrorEEE
FNDA:0,_ZNK12WPEFramework4Core4JSON9Container9SerializeEPhtRj
FNDA:0,_ZN12WPEFramework4Core4JSON9Container11DeserializeEPKhtRj
FNDA:128,_ZN12WPEFramework4Core4JSON9Container4FindEPKc
FNDA:4,_ZNK12WPEFramework4Core4JSON9Container8FindNextEv
FNDA:0,_ZNK12WPEFramework4Core4JSON9Container4SizeEv
FNDA:0,_ZN12WPEFramework4Core4JSON9Container7RequestEPKc
FNDA:2,_ZN12WPEFramework4Core4JSON5ErrorC2EONSt7__cxx1112basic_stringIcSt11char_traitsIcESaIcEEE
FNDA:0,_ZN12WPEFramework4Core4JSON7VariantD0Ev
FNDA:3358,_ZN12WPEFramework4Core4JSON7VariantD2Ev
FNDA:7,_ZN12WPEFramework4Core4JSONL11IsNullValueEPKctRjRt
FNDA:2331,_ZNK12WPEFramework4Core4JSON7Variant5IsSetEv
FNDA:1247,_ZN12WPEFramework4Core4JSON7Variant11DeserializeEPKctRjRNS0_12OptionalTypeINS1_5ErrorEEE
FNDA:2,_ZN12WPEFramework4Core4JSON5ErroraSERKS2_
FNDA:2,_ZN12WPEFramework4Core4JSON10NumberTypeIiLb1EL10NumberBase10EEaSERKi
FNDA:0,_ZN12WPEFramework4Core4JSON10NumberTypeIjLb0EL10NumberBase10EEaSERKj
FNDA:2,_ZN12WPEFramework4Core4JSON5Error7ContextEPKcmm
FNDA:415,_ZN12WPEFramework4Core4JSON5ErrorC2Ev
FNDA:0,_ZN12WPEFramework4Core4JSON8IElementD0Ev
FNDA:4428,_ZN12WPEFramework4Core4JSON8IElementD2Ev
FNF:51
FNH:38
DA:43,2
DA:44,2
DA:45,2
DA:46,2
DA:48,2
DA:52,2
DA:61,2
DA:63,2
DA:64,4
DA:65,2
DA:66,2
DA:67,2
DA:71,415
DA:72,415
DA:73,415
DA:74,415
DA:76,415
DA:91,4428
DA:124,415
DA:126,415
DA:127,415
DA:128,415
DA:130,415
DA:132,837
DA:134,422
DA:137,422
DA:139,422
DA:142,422
DA:143,0
DA:145,422
DA:148,415
DA:149,0
DA:150,0
DA:153,415
DA:154,3
DA:155,3
DA:158,830
DA:166,386
DA:168,386
DA:169,772
DA:170,386
DA:172,415
DA:174,415
DA:291,4428
DA:446,7
DA:448,7
DA:449,7
DA:450,7
DA:451,7
DA:452,7
DA:453,7
DA:454,7
DA:456,0
DA:457,0
DA:458,0
DA:462,7
DA:463,0
DA:465,7
DA:527,2
DA:529,2
DA:530,2
DA:532,2
DA:1584,1584
DA:1585,3168
DA:1586,1584
DA:1587,1584
DA:1588,3168
DA:1590,1584
DA:1637,3894
DA:1639,6
DA:1641,6
DA:1642,6
DA:1644,6
DA:1659,1050
DA:1661,1050
DA:1662,1050
DA:1664,1050
DA:1751,2076
DA:1753,2076
DA:1754,595
DA:1756,1481
DA:1782,2976
DA:1784,2976
DA:1787,2774
DA:1789,2774
DA:1792,408
DA:1794,408
DA:1795,408
DA:1796,408
DA:1798,1383
DA:1800,1383
DA:1814,6
DA:1816,6
DA:1818,6
DA:1820,6
DA:1821,6
DA:1822,6
DA:1823,6
DA:1825,6
DA:1827,6
DA:1828,6
DA:1831,6
DA:1833,72
DA:1834,66
DA:1837,66
DA:1839,66
DA:1842,66
DA:1843,66
DA:1844,66
DA:1846,0
DA:1848,0
DA:1849,0
DA:1851,0
DA:1853,0
DA:1854,0
DA:1855,0
DA:1856,0
DA:1857,0
DA:1858,0
DA:1859,0
DA:1861,0
DA:1863,0
DA:1864,0
DA:1866,0
DA:1868,0
DA:1871,0
DA:1872,0
DA:1874,0
DA:1878,0
DA:1880,0
DA:1885,0
DA:1889,0
DA:1891,0
DA:1892,0
DA:1897,0
DA:1898,0
DA:1899,0
DA:1900,0
DA:1904,0
DA:1905,0
DA:1911,0
DA:1913,0
DA:1916,0
DA:1918,0
DA:1921,0
DA:1923,0
DA:1925,0
DA:1926,0
DA:1927,0
DA:1931,0
DA:1932,0
DA:1933,0
DA:1935,0
DA:1941,6
DA:1943,6
DA:1944,0
DA:1946,6
DA:1947,6
DA:1948,6
DA:1953,6
DA:1955,2662
DA:1957,2662
DA:1958,2662
DA:1959,2662
DA:1961,2662
DA:1962,2662
DA:1963,2662
DA:1964,2662
DA:1965,2662
DA:1966,2007
DA:1967,2007
DA:1969,2662
DA:1973,81223
DA:1975,78561
DA:1978,78561
DA:1980,43509
DA:1982,21034
DA:1983,405
DA:1984,0
DA:1987,20629
DA:1988,0
DA:1989,0
DA:1992,20629
DA:1994,1266
DA:1996,19363
DA:1997,405
DA:1998,0
DA:2001,18958
DA:2002,0
DA:2003,0
DA:2008,43509
DA:2009,43259
DA:2011,22475
DA:2013,20784
DA:2015,5563
DA:2018,5563
DA:2024,43259
DA:2027,2874
DA:2030,43259
DA:2034,35052
DA:2036,35052
DA:2038,0
DA:2039,35052
DA:2041,2007
DA:2042,33045
DA:2043,0
DA:2046,33045
DA:2048,35052
DA:2050,0
DA:2052,0
DA:2053,0
DA:2057,0
DA:2058,0
DA:2059,0
DA:2060,0
DA:2061,0
DA:2062,0
DA:2063,0
DA:2064,0
DA:2065,0
DA:2066,0
DA:2067,0
DA:2068,0
DA:2070,0
DA:2072,0
DA:2076,0
DA:2078,0
DA:2079,0
DA:2082,0
DA:2083,0
DA:2084,0
DA:2085,0
DA:2088,0
DA:2094,0
DA:2097,0
DA:2099,0
DA:2100,0
DA:2103,0
DA:2105,0
DA:2112,2662
DA:2113,0
DA:2115,2662
DA:2116,2662
DA:2118,2662
DA:2120,1310
DA:2124,2662
DA:2128,0
DA:2130,0
DA:2131,0
DA:2132,0
DA:2133,0
DA:2134,0
DA:2135,0
DA:2136,0
DA:2137,0
DA:2138,0
DA:2139,0
DA:2140,0
DA:2141,0
DA:2142,0
DA:2143,0
DA:2144,0
DA:2145,0
DA:2147,0
DA:2151,0
DA:2152,0
DA:2153,0
DA:2154,0
DA:2157,0
DA:2158,0
DA:2159,0
DA:2160,0
DA:2161,0
DA:2162,0
DA:2163,0
DA:2164,0
DA:2167,0
DA:2168,0
DA:2173,0
DA:2176,0
DA:2178,0
DA:2179,0
DA:2180,0
DA:2181,0
DA:2182,0
DA:2183,0
DA:2184,0
DA:2185,0
DA:2186,0
DA:2187,0
DA:2188,0
DA:2189,0
DA:2190,0
DA:2191,0
DA:2192,0
DA:2193,0
DA:2194,0
DA:2195,0
DA:2197,0
DA:2201,0
DA:2202,0
DA:2203,0
DA:2204,0
DA:2207,0
DA:2208,0
DA:2209,0
DA:2212,0
DA:2213,0
DA:2214,0
DA:2218,0
DA:2222,2874
DA:2228,2874
DA:2229,2874
DA:2230,2874
DA:2231,0
DA:2233,2874
DA:2235,405
DA:2236,405
DA:2237,405
DA:2239,405
DA:2240,405
DA:2241,405
DA:2242,405
DA:2243,405
DA:2245,405
DA:2247,405
DA:2248,405
DA:2249,405
DA:2250,405
DA:2251,405
DA:2252,405
DA:2253,405
DA:2254,405
DA:2256,405
DA:3718,448
DA:3719,896
DA:3720,448
DA:3721,448
DA:3722,448
DA:3723,896
DA:3725,448
DA:3726,448
DA:3727,448
DA:3745,7
DA:3747,7
DA:3749,7
DA:3750,7
DA:3752,7
DA:3753,0
DA:3756,7
DA:3759,7
DA:3772,0
DA:3774,0
DA:3787,56
DA:3789,56
DA:3792,296
DA:3793,240
DA:3794,240
DA:3796,56
DA:3797,56
DA:3799,224
DA:3801,224
DA:3802,224
DA:3818,2
DA:3820,2
DA:3822,2
DA:3823,0
DA:3824,0
DA:3825,0
DA:3828,2
DA:3829,2
DA:3830,2
DA:3832,2
DA:3833,2
DA:3834,2
DA:3835,2
DA:3836,2
DA:3838,0
DA:3839,0
DA:3842,18
DA:3843,16
DA:3844,8
DA:3845,8
DA:3846,8
DA:3847,8
DA:3848,8
DA:3849,4
DA:3850,4
DA:3851,4
DA:3853,4
DA:3854,2
DA:3855,2
DA:3856,2
DA:3857,2
DA:3859,2
DA:3864,2
DA:3865,2
DA:3866,2
DA:3867,2
DA:3868,2
DA:3870,0
DA:3875,2
DA:3878,42
DA:3880,42
DA:3882,42
DA:3883,62
DA:3884,20
DA:3888,42
DA:3889,0
DA:3890,42
DA:3891,42
DA:3892,42
DA:3893,42
DA:3894,7
DA:3897,7
DA:3898,0
DA:3899,0
DA:3900,0
DA:3901,0
DA:3902,0
DA:3903,0
DA:3904,35
DA:3905,35
DA:3906,35
DA:3907,35
DA:3908,35
DA:3912,556
DA:3913,516
DA:3915,597
DA:3916,81
DA:3919,516
DA:3920,516
DA:3921,33
DA:3922,33
DA:3923,0
DA:3924,0
DA:3925,33
DA:3926,0
DA:3927,0
DA:3929,33
DA:3930,33
DA:3931,33
DA:3932,33
DA:3933,95
DA:3934,95
DA:3935,0
DA:3936,0
DA:3937,0
DA:3938,95
DA:3939,0
DA:3940,0
DA:3941,0
DA:3943,95
DA:3945,95
DA:3946,95
DA:3947,128
DA:3948,128
DA:3949,0
DA:3950,0
DA:3951,0
DA:3952,128
DA:3953,0
DA:3954,0
DA:3955,0
DA:3957,128
DA:3959,128
DA:3960,128
DA:3961,260
DA:3962,260
DA:3963,130
DA:3964,0
DA:3970,130
DA:3971,2
DA:3972,2
DA:3973,2
DA:3974,2
DA:3975,2
DA:3977,128
DA:3979,128
DA:3981,128
DA:3982,0
DA:3985,130
DA:3986,0
DA:3987,0
DA:3988,0
DA:3989,0
DA:3990,0
DA:3992,130
DA:3994,258
DA:3995,258
DA:4000,516
DA:4001,258
DA:4002,258
DA:4003,258
DA:4004,130
DA:4005,130
DA:4006,0
DA:4008,130
DA:4010,128
DA:4011,128
DA:4014,128
DA:4017,258
DA:4020,516
DA:4021,2
DA:4027,42
DA:4028,2
DA:4029,2
DA:4032,42
DA:4036,0
DA:4038,0
DA:4040,0
DA:4041,0
DA:4042,0
DA:4043,0
DA:4047,0
DA:4048,0
DA:4049,0
DA:4050,0
DA:4051,0
DA:4052,0
DA:4053,0
DA:4056,0
DA:4057,0
DA:4059,0
DA:4060,0
DA:4061,0
DA:4063,0
DA:4067,0
DA:4068,0
DA:4069,0
DA:4070,0
DA:4071,0
DA:4072,0
DA:4073,0
DA:4076,0
DA:4077,0
DA:4078,0
DA:4079,0
DA:4080,0
DA:4081,0
DA:4083,0
DA:4085,0
DA:4086,0
DA:4087,0
DA:4088,0
DA:4089,0
DA:4092,0
DA:4094,0
DA:4095,0
DA:4096,0
DA:4097,0
DA:4099,0
DA:4100,0
DA:4107,0
DA:4110,0
DA:4112,0
DA:4114,0
DA:4115,0
DA:4116,0
DA:4117,0
DA:4118,0
DA:4119,0
DA:4120,0
DA:4121,0
DA:4123,0
DA:4126,0
DA:4127,0
DA:4128,0
DA:4129,0
DA:4130,0
DA:4131,0
DA:4132,0
DA:4136,0
DA:4138,0
DA:4139,0
DA:4140,0
DA:4141,0
DA:4142,0
DA:4143,0
DA:4144,0
DA:4146,0
DA:4147,0
DA:4148,0
DA:4152,0
DA:4153,0
DA:4154,0
DA:4158,0
DA:4159,0
DA:4160,0
DA:4161,0
DA:4165,0
DA:4174,128
DA:4176,128
DA:4178,128
DA:4180,515
DA:4181,387
DA:4184,128
DA:4185,128
DA:4187,0
DA:4188,0
DA:4190,0
DA:4191,0
DA:4192,0
DA:4193,0
DA:4197,128
DA:4200,4
DA:4202,4
DA:4203,6
DA:4204,2
DA:4206,4
DA:4209,0
DA:4211,0
DA:4212,0
DA:4213,0
DA:4214,0
DA:4215,0
DA:4216,0
DA:4218,0
DA:4221,0
DA:4224,0
DA:4226,0
DA:4346,3358
DA:4531,2331
DA:4533,2331
DA:4981,1247
DA:4983,1247
DA:4986,1247
DA:4987,1247
DA:4988,652
DA:4989,652
DA:4990,0
DA:4992,652
DA:4993,405
DA:4995,247
DA:4996,0
DA:4998,247
DA:4999,247
DA:5001,0
DA:5002,0
DA:5005,0
DA:5007,652
DA:5009,595
DA:5012,1247
LF:643
LH:341
end_of_record
TN:
SF:/home/kavia/workspace/code-generation/app-gateway2/dependencies/install/include/WPEFramework/core/JSONRPC.h
FN:197,212,_ZN12WPEFramework4Core7JSONRPC7Message8CallsignERKNSt7__cxx1112basic_stringIcSt11char_traitsIcESaIcEEE
FN:213,219,_ZN12WPEFramework4Core7JSONRPC7Message6MethodERKNSt7__cxx1112basic_stringIcSt11char_traitsIcESaIcEEE
FN:220,224,_ZN12WPEFramework4Core7JSONRPC7Message10FullMethodERKNSt7__cxx1112basic_stringIcSt11char_traitsIcESaIcEEE
FN:241,265,_ZN12WPEFramework4Core7JSONRPC7Message7VersionERKNSt7__cxx1112basic_stringIcSt11char_traitsIcESaIcEEE
FN:378,382,_ZN12WPEFramework4Core7JSONRPC7ContextC2EjjRKNSt7__cxx1112basic_stringIcSt11char_traitsIcESaIcEEE
FN:383,383,_ZN12WPEFramework4Core7JSONRPC7ContextD2Ev
FN:492,501,_ZN12WPEFramework4Core7JSONRPC7Handler5Entry6InvokeERKNS1_7ContextERKNSt7__cxx1112basic_stringIcSt11char_traitsIcESaIcEEESE_RSC_
FN:621,624,_ZNK12WPEFramework4Core7JSONRPC7Handler6ExistsERKNSt7__cxx1112basic_stringIcSt11char_traitsIcESaIcEEE
FN:625,628,_ZNK12WPEFramework4Core7JSONRPC7Handler17HasVersionSupportEh
FN:747,758,_ZN12WPEFramework4Core7JSONRPC7Handler6InvokeERKNS1_7ContextERKNSt7__cxx1112basic_stringIcSt11char_traitsIcESaIcEEESD_RSB_
FNDA:0,_ZN12WPEFramework4Core7JSONRPC7Message8CallsignERKNSt7__cxx1112basic_stringIcSt11char_traitsIcESaIcEEE
FNDA:44,_ZN12WPEFramework4Core7JSONRPC7Message6MethodERKNSt7__cxx1112basic_stringIcSt11char_traitsIcESaIcEEE
FNDA:21,_ZN12WPEFramework4Core7JSONRPC7Message10FullMethodERKNSt7__cxx1112basic_stringIcSt11char_traitsIcESaIcEEE
FNDA:49,_ZN12WPEFramework4Core7JSONRPC7Message7VersionERKNSt7__cxx1112basic_stringIcSt11char_traitsIcESaIcEEE
FNDA:21,_ZN12WPEFramework4Core7JSONRPC7ContextC2EjjRKNSt7__cxx1112basic_stringIcSt11char_traitsIcESaIcEEE
FNDA:21,_ZN12WPEFramework4Core7JSONRPC7ContextD2Ev
FNDA:21,_ZN12WPEFramework4Core7JSONRPC7Handler5Entry6InvokeERKNS1_7ContextERKNSt7__cxx1112basic_stringIcSt11char_traitsIcESaIcEEESE_RSC_
FNDA:49,_ZNK12WPEFramework4Core7JSONRPC7Handler6ExistsERKNSt7__cxx1112basic_stringIcSt11char_traitsIcESaIcEEE
FNDA:0,_ZNK12WPEFramework4Core7JSONRPC7Handler17HasVersionSupportEh
FNDA:21,_ZN12WPEFramework4Core7JSONRPC7Handler6InvokeERKNS1_7ContextERKNSt7__cxx1112basic_stringIcSt11char_traitsIcESaIcEEESD_RSB_
FNF:10
FNH:8
DA:197,0
DA:199,0
DA:200,0
DA:201,0
DA:202,0
DA:203,0
DA:205,0
DA:206,0
DA:207,0
DA:208,0
DA:211,0
DA:213,44
DA:215,44
DA:216,44
DA:218,44
DA:220,21
DA:222,21
DA:223,21
DA:241,49
DA:243,49
DA:244,49
DA:247,49
DA:251,49
DA:254,49
DA:258,49
DA:259,0
DA:260,0
DA:264,49
DA:378,21
DA:379,21
DA:380,21
DA:381,21
DA:382,21
DA:383,21
DA:492,21
DA:494,21
DA:495,21
DA:496,0
DA:498,21
DA:500,21
DA:621,49
DA:623,49
DA:625,0
DA:627,0
DA:747,21
DA:749,21
DA:751,21
DA:753,21
DA:754,21
DA:755,21
DA:757,21
LF:51
LH:35
end_of_record
TN:
SF:/home/kavia/workspace/code-generation/app-gateway2/dependencies/install/include/WPEFramework/core/MessageStore.h
FN:287,287,_ZN12WPEFramework4Core9Messaging6IStoreD0Ev
FN:287,287,_ZN12WPEFramework4Core9Messaging6IStoreD2Ev
FNDA:0,_ZN12WPEFramework4Core9Messaging6IStoreD0Ev
FNDA:1,_ZN12WPEFramework4Core9Messaging6IStoreD2Ev
FNF:2
FNH:1
DA:287,1
LF:1
LH:1
end_of_record
TN:
SF:/home/kavia/workspace/code-generation/app-gateway2/dependencies/install/include/WPEFramework/core/Number.h
FN:194,201,_ZN12WPEFramework4Core10NumberTypeItLb0EL10NumberBase0EE7ConvertEPKcjRtS2_
FN:207,214,_ZNK12WPEFramework4Core10NumberTypeIjLb0EL10NumberBase0EE4TextB5cxx11Ev
FN:249,252,_ZN12WPEFramework4Core10NumberTypeItLb0EL10NumberBase0EE5ValueEv
FN:367,370,_ZNK12WPEFramework4Core10NumberTypeIjLb0EL10NumberBase0EE8NegativeEv
FN:371,374,_ZNK12WPEFramework4Core10NumberTypeIjLb0EL10NumberBase0EE3AbsEv
FN:377,412,_ZNK12WPEFramework4Core10NumberTypeIjLb0EL10NumberBase0EE10FillBufferEPctS2_
FN:48,52,_ZN12WPEFramework4Core10NumberTypeIjLb0EL10NumberBase0EEC2Ej
FN:60,67,_ZN12WPEFramework4Core10NumberTypeItLb0EL10NumberBase0EEC2EPKcjS2_
FN:73,75,_ZN12WPEFramework4Core10NumberTypeIjLb0EL10NumberBase0EED2Ev
FN:73,75,_ZN12WPEFramework4Core10NumberTypeItLb0EL10NumberBase0EED2Ev
FN:739,808,_ZN12WPEFramework4Core10NumberTypeItLb0EL10NumberBase0EE7ConvertItEEjPKcjRT_S2_RK17TemplateIntToTypeILj0EE
FN:813,816,_ZNK12WPEFramework4Core10NumberTypeIjLb0EL10NumberBase0EE8TypedAbsERK17TemplateIntToTypeILj0EE
FN:821,824,_ZNK12WPEFramework4Core10NumberTypeIjLb0EL10NumberBase0EE13TypedNegativeERK17TemplateIntToTypeILj0EE
FNDA:0,_ZN12WPEFramework4Core10NumberTypeItLb0EL10NumberBase0EE7ConvertEPKcjRtS2_
FNDA:0,_ZNK12WPEFramework4Core10NumberTypeIjLb0EL10NumberBase0EE4TextB5cxx11Ev
FNDA:0,_ZN12WPEFramework4Core10NumberTypeItLb0EL10NumberBase0EE5ValueEv
FNDA:0,_ZNK12WPEFramework4Core10NumberTypeIjLb0EL10NumberBase0EE8NegativeEv
FNDA:0,_ZNK12WPEFramework4Core10NumberTypeIjLb0EL10NumberBase0EE3AbsEv
FNDA:0,_ZNK12WPEFramework4Core10NumberTypeIjLb0EL10NumberBase0EE10FillBufferEPctS2_
FNDA:0,_ZN12WPEFramework4Core10NumberTypeIjLb0EL10NumberBase0EEC2Ej
FNDA:0,_ZN12WPEFramework4Core10NumberTypeItLb0EL10NumberBase0EEC2EPKcjS2_
FNDA:0,_ZN12WPEFramework4Core10NumberTypeIjLb0EL10NumberBase0EED2Ev
FNDA:0,_ZN12WPEFramework4Core10NumberTypeItLb0EL10NumberBase0EED2Ev
FNDA:0,_ZN12WPEFramework4Core10NumberTypeItLb0EL10NumberBase0EE7ConvertItEEjPKcjRT_S2_RK17TemplateIntToTypeILj0EE
FNDA:0,_ZNK12WPEFramework4Core10NumberTypeIjLb0EL10NumberBase0EE8TypedAbsERK17TemplateIntToTypeILj0EE
FNDA:0,_ZNK12WPEFramework4Core10NumberTypeIjLb0EL10NumberBase0EE13TypedNegativeERK17TemplateIntToTypeILj0EE
FNF:13
FNH:0
DA:48,0
DA:50,0
DA:52,0
DA:60,0
DA:64,0
DA:66,0
DA:67,0
DA:73,0
DA:75,0
DA:194,0
DA:200,0
DA:207,0
DA:211,0
DA:213,0
DA:249,0
DA:251,0
DA:367,0
DA:369,0
DA:371,0
DA:373,0
DA:377,0
DA:379,0
DA:380,0
DA:381,0
DA:382,0
DA:385,0
DA:389,0
DA:390,0
DA:391,0
DA:393,0
DA:395,0
DA:396,0
DA:398,0
DA:400,0
DA:401,0
DA:402,0
DA:404,0
DA:407,0
DA:408,0
DA:411,0
DA:739,0
DA:747,0
DA:748,0
DA:749,0
DA:750,0
DA:751,0
DA:754,0
DA:757,0
DA:758,0
DA:760,0
DA:761,0
DA:763,0
DA:764,0
DA:767,0
DA:768,0
DA:771,0
DA:772,0
DA:774,0
DA:775,0
DA:777,0
DA:779,0
DA:780,0
DA:782,0
DA:783,0
DA:785,0
DA:787,0
DA:788,0
DA:790,0
DA:791,0
DA:793,0
DA:795,0
DA:796,0
DA:801,0
DA:802,0
DA:803,0
DA:807,0
DA:813,0
DA:815,0
DA:821,0
DA:823,0
LF:80
LH:0
end_of_record
TN:
SF:/home/kavia/workspace/code-generation/app-gateway2/dependencies/install/include/WPEFramework/core/Optional.h
FN:109,112,_ZN12WPEFramework4Core12OptionalTypeINS0_4JSON5ErrorEE5ValueEv
FN:30,34,_ZN12WPEFramework4Core12OptionalTypeINS0_4JSON5ErrorEEC2Ev
FN:30,34,_ZN12WPEFramework4Core12OptionalTypeINSt7__cxx1112basic_stringIcSt11char_traitsIcESaIcEEEEC2Ev
FN:48,50,_ZN12WPEFramework4Core12OptionalTypeINS0_4JSON5ErrorEED2Ev
FN:48,50,_ZN12WPEFramework4Core12OptionalTypeINSt7__cxx1112basic_stringIcSt11char_traitsIcESaIcEEEED2Ev
FN:60,66,_ZN12WPEFramework4Core12OptionalTypeINS0_4JSON5ErrorEEaSERKS3_
FN:60,66,_ZN12WPEFramework4Core12OptionalTypeINSt7__cxx1112basic_stringIcSt11char_traitsIcESaIcEEEEaSERKS7_
FN:89,92,_ZNK12WPEFramework4Core12OptionalTypeINS0_4JSON5ErrorEE5IsSetEv
FN:93,97,_ZN12WPEFramework4Core12OptionalTypeINSt7__cxx1112basic_stringIcSt11char_traitsIcESaIcEEEE5ClearEv
FNDA:6,_ZN12WPEFramework4Core12OptionalTypeINS0_4JSON5ErrorEE5ValueEv
FNDA:415,_ZN12WPEFramework4Core12OptionalTypeINS0_4JSON5ErrorEEC2Ev
FNDA:4,_ZN12WPEFramework4Core12OptionalTypeINSt7__cxx1112basic_stringIcSt11char_traitsIcESaIcEEEEC2Ev
FNDA:415,_ZN12WPEFramework4Core12OptionalTypeINS0_4JSON5ErrorEED2Ev
FNDA:4,_ZN12WPEFramework4Core12OptionalTypeINSt7__cxx1112basic_stringIcSt11char_traitsIcESaIcEEEED2Ev
FNDA:2,_ZN12WPEFramework4Core12OptionalTypeINS0_4JSON5ErrorEEaSERKS3_
FNDA:0,_ZN12WPEFramework4Core12OptionalTypeINSt7__cxx1112basic_stringIcSt11char_traitsIcESaIcEEEEaSERKS7_
FNDA:1837,_ZNK12WPEFramework4Core12OptionalTypeINS0_4JSON5ErrorEE5IsSetEv
FNDA:0,_ZN12WPEFramework4Core12OptionalTypeINSt7__cxx1112basic_stringIcSt11char_traitsIcESaIcEEEE5ClearEv
FNF:9
FNH:7
DA:30,419
DA:31,419
DA:32,419
DA:34,419
DA:48,419
DA:50,419
DA:60,2
DA:62,2
DA:63,2
DA:65,2
DA:89,1837
DA:91,1837
DA:93,0
DA:95,0
DA:96,0
DA:97,0
DA:109,6
DA:111,6
LF:18
LH:14
end_of_record
TN:
SF:/home/kavia/workspace/code-generation/app-gateway2/dependencies/install/include/WPEFramework/core/Portability.h
FN:755,755,_ZN12WPEFramework4Core4VoidC2IJEEEDpOT_
FN:764,764,_ZN12WPEFramework4Core17IReferenceCountedD0Ev
FN:764,764,_ZN12WPEFramework4Core17IReferenceCountedD2Ev
FN:779,779,_ZN12WPEFramework4Core8IUnknownD0Ev
FN:779,779,_ZN12WPEFramework4Core8IUnknownD2Ev
FN:784,793,_ZN12WPEFramework4Core8IUnknown14QueryInterfaceINS_10PluginHost11IDispatcherEEEPT_v
FNDA:30,_ZN12WPEFramework4Core4VoidC2IJEEEDpOT_
FNDA:0,_ZN12WPEFramework4Core17IReferenceCountedD0Ev
FNDA:43,_ZN12WPEFramework4Core17IReferenceCountedD2Ev
FNDA:0,_ZN12WPEFramework4Core8IUnknownD0Ev
FNDA:41,_ZN12WPEFramework4Core8IUnknownD2Ev
FNDA:17,_ZN12WPEFramework4Core8IUnknown14QueryInterfaceINS_10PluginHost11IDispatcherEEEPT_v
FNF:6
FNH:4
DA:755,30
DA:764,43
DA:779,41
DA:784,17
DA:786,17
DA:788,17
DA:789,17
DA:792,0
LF:8
LH:7
end_of_record
TN:
SF:/home/kavia/workspace/code-generation/app-gateway2/dependencies/install/include/WPEFramework/core/Proxy.h
FN:102,107,_ZN12WPEFramework4Core11ProxyObjectINS0_7ServiceINS_6Plugin10AppGatewayEEEEC1IJEEEDpOT_
FN:102,107,_ZN12WPEFramework4Core11ProxyObjectINS0_7ServiceINS_6Plugin24AppGatewayImplementationEEEEC1IJEEEDpOT_
FN:108,119,_ZN12WPEFramework4Core11ProxyObjectINS0_7ServiceINS_6Plugin10AppGatewayEEEED0Ev
FN:108,119,_ZN12WPEFramework4Core11ProxyObjectINS0_7ServiceINS_6Plugin10AppGatewayEEEED1Ev
FN:108,119,_ZN12WPEFramework4Core11ProxyObjectINS0_7ServiceINS_6Plugin24AppGatewayImplementationEEEED0Ev
FN:108,119,_ZN12WPEFramework4Core11ProxyObjectINS0_7ServiceINS_6Plugin24AppGatewayImplementationEEEED1Ev
FN:122,130,_ZNK12WPEFramework4Core11ProxyObjectINS0_7ServiceINS_6Plugin10AppGatewayEEEE6AddRefEv
FN:122,130,_ZNK12WPEFramework4Core11ProxyObjectINS0_7ServiceINS_6Plugin24AppGatewayImplementationEEEE6AddRefEv
FN:131,145,_ZNK12WPEFramework4Core11ProxyObjectINS0_7ServiceINS_6Plugin10AppGatewayEEEE7ReleaseEv
FN:131,145,_ZNK12WPEFramework4Core11ProxyObjectINS0_7ServiceINS_6Plugin24AppGatewayImplementationEEEE7ReleaseEv
FN:183,186,_ZNK12WPEFramework4Core11ProxyObjectINS0_7ServiceINS_6Plugin10AppGatewayEEEE13IsInitializedEv
FN:183,186,_ZNK12WPEFramework4Core11ProxyObjectINS0_7ServiceINS_6Plugin24AppGatewayImplementationEEEE13IsInitializedEv
FN:231,234,_ZN12WPEFramework4Core11ProxyObjectINS0_7ServiceINS_6Plugin10AppGatewayEEEE12__InitializeIS5_EENS0_10TypeTraits9enable_ifIXntsrNS6_13hasInitializeIT_jJEEE5valueEjE4typeEv
FN:231,234,_ZN12WPEFramework4Core11ProxyObjectINS0_7ServiceINS_6Plugin24AppGatewayImplementationEEEE12__InitializeIS5_EENS0_10TypeTraits9enable_ifIXntsrNS6_13hasInitializeIT_jJEEE5valueEjE4typeEv
FN:249,251,_ZN12WPEFramework4Core11ProxyObjectINS0_7ServiceINS_6Plugin10AppGatewayEEEE14__DeinitializeIS5_EENS0_10TypeTraits9enable_ifIXntsrNS6_15hasDeinitializeIT_vJEEE5valueEvE4typeEv
FN:249,251,_ZN12WPEFramework4Core11ProxyObjectINS0_7ServiceINS_6Plugin24AppGatewayImplementationEEEE14__DeinitializeIS5_EENS0_10TypeTraits9enable_ifIXntsrNS6_15hasDeinitializeIT_vJEEE5valueEvE4typeEv
FN:266,268,_ZN12WPEFramework4Core11ProxyObjectINS0_7ServiceINS_6Plugin10AppGatewayEEEE12__DestructedIS5_EENS0_10TypeTraits9enable_ifIXntsrNS6_13hasDestructedIT_vJEEE5valueEvE4typeEv
FN:266,268,_ZN12WPEFramework4Core11ProxyObjectINS0_7ServiceINS_6Plugin24AppGatewayImplementationEEEE12__DestructedIS5_EENS0_10TypeTraits9enable_ifIXntsrNS6_13hasDestructedIT_vJEEE5valueEvE4typeEv
FN:284,287,_ZNK12WPEFramework4Core11ProxyObjectINS0_7ServiceINS_6Plugin10AppGatewayEEEE15__IsInitializedIS5_EENS0_10TypeTraits9enable_ifIXntsrNS6_16hasIsInitializedIKT_bJEEE5valueEbE4typeEv
FN:284,287,_ZNK12WPEFramework4Core11ProxyObjectINS0_7ServiceINS_6Plugin24AppGatewayImplementationEEEE15__IsInitializedIS5_EENS0_10TypeTraits9enable_ifIXntsrNS6_16hasIsInitializedIKT_bJEEE5valueEbE4typeEv
FN:305,307,_ZN12WPEFramework4Core11ProxyObjectINS0_7ServiceINS_6Plugin10AppGatewayEEEE9__AcquireIS5_EENS0_10TypeTraits9enable_ifIXntsrNS6_10hasAcquireIT_vJRNS0_9ProxyTypeISB_EEEEE5valueEvE4typeEv
FN:305,307,_ZN12WPEFramework4Core11ProxyObjectINS0_7ServiceINS_6Plugin24AppGatewayImplementationEEEE9__AcquireIS5_EENS0_10TypeTraits9enable_ifIXntsrNS6_10hasAcquireIT_vJRNS0_9ProxyTypeISB_EEEEE5valueEvE4typeEv
FN:325,327,_ZN12WPEFramework4Core11ProxyObjectINS0_7ServiceINS_6Plugin10AppGatewayEEEE12__RelinquishIS5_EENS0_10TypeTraits9enable_ifIXntsrNS6_13hasRelinquishIT_vJRNS0_9ProxyTypeISB_EEEEE5valueEvE4typeEv
FN:325,327,_ZN12WPEFramework4Core11ProxyObjectINS0_7ServiceINS_6Plugin24AppGatewayImplementationEEEE12__RelinquishIS5_EENS0_10TypeTraits9enable_ifIXntsrNS6_13hasRelinquishIT_vJRNS0_9ProxyTypeISB_EEEEE5valueEvE4typeEv
FN:363,367,_ZN12WPEFramework4Core9ProxyTypeINS_3Web12JSONBodyTypeINS0_7JSONRPC7MessageEEEE5ResetEv
FN:383,387,_ZN12WPEFramework4Core9ProxyTypeINS0_9IDispatchEEC2Ev
FN:394,399,_ZN12WPEFramework4Core9ProxyTypeINS0_7ServiceINS_6Plugin10AppGatewayEEEEC2ERNS0_11ProxyObjectIS5_EE
FN:394,399,_ZN12WPEFramework4Core9ProxyTypeINS0_7ServiceINS_6Plugin24AppGatewayImplementationEEEEC2ERNS0_11ProxyObjectIS5_EE
FN:409,412,_ZN12WPEFramework4Core9ProxyTypeINS0_4JSON8IElementEEC2INS0_7JSONRPC7MessageEEERKNS1_IT_EE
FN:409,412,_ZN12WPEFramework4Core9ProxyTypeINS0_4JSON8IElementEEC2INS_3Web12JSONBodyTypeINS0_7JSONRPC7MessageEEEEERKNS1_IT_EE
FN:414,417,_ZN12WPEFramework4Core9ProxyTypeINS0_7JSONRPC7MessageEEC2INS_3Web12JSONBodyTypeIS3_EEEEONS1_IT_EE
FN:418,427,_ZN12WPEFramework4Core9ProxyTypeINS0_9IDispatchEEC2ERKS3_
FN:434,439,_ZN12WPEFramework4Core9ProxyTypeINS0_4JSON8IElementEED2Ev
FN:434,439,_ZN12WPEFramework4Core9ProxyTypeINS0_7JSONRPC7MessageEED2Ev
FN:434,439,_ZN12WPEFramework4Core9ProxyTypeINS0_7ServiceINS_6Plugin10AppGatewayEEEED2Ev
FN:434,439,_ZN12WPEFramework4Core9ProxyTypeINS0_7ServiceINS_6Plugin24AppGatewayImplementationEEEED2Ev
FN:434,439,_ZN12WPEFramework4Core9ProxyTypeINS0_9IDispatchEED2Ev
FN:434,439,_ZN12WPEFramework4Core9ProxyTypeINS_3Web12JSONBodyTypeINS0_7JSONRPC7MessageEEEED2Ev
FN:448,451,_ZN12WPEFramework4Core9ProxyTypeINS0_7ServiceINS_6Plugin10AppGatewayEEEE6CreateIJEEES6_DpOT_
FN:448,451,_ZN12WPEFramework4Core9ProxyTypeINS0_7ServiceINS_6Plugin24AppGatewayImplementationEEEE6CreateIJEEES6_DpOT_
FN:469,477,_ZN12WPEFramework4Core9ProxyTypeINS0_9IDispatchEEaSERKS3_
FN:501,504,_ZNK12WPEFramework4Core9ProxyTypeINS0_9IDispatchEE7IsValidEv
FN:505,516,_ZNK12WPEFramework4Core9ProxyTypeINS0_9IDispatchEE7ReleaseEv
FN:524,527,_ZNK12WPEFramework4Core9ProxyTypeINS0_9IDispatchEEeqERKS3_
FN:529,532,_ZNK12WPEFramework4Core9ProxyTypeINS0_9IDispatchEEneERKS3_
FN:543,548,_ZNK12WPEFramework4Core9ProxyTypeINS0_7JSONRPC7MessageEEptEv
FN:543,548,_ZNK12WPEFramework4Core9ProxyTypeINS0_7ServiceINS_6Plugin10AppGatewayEEEEptEv
FN:543,548,_ZNK12WPEFramework4Core9ProxyTypeINS0_7ServiceINS_6Plugin24AppGatewayImplementationEEEEptEv
FN:543,548,_ZNK12WPEFramework4Core9ProxyTypeINS0_9IDispatchEEptEv
FN:543,548,_ZNK12WPEFramework4Core9ProxyTypeINS_3Web12JSONBodyTypeINS0_7JSONRPC7MessageEEEEptEv
FN:550,555,_ZNK12WPEFramework4Core9ProxyTypeINS0_9IDispatchEEdeEv
FN:563,574,_ZN12WPEFramework4Core9ProxyTypeINS0_4JSON8IElementEE13CopyConstructINS0_7JSONRPC7MessageEEEvRKNS1_IT_EERK17TemplateIntToTypeILj1EE
FN:563,574,_ZN12WPEFramework4Core9ProxyTypeINS0_4JSON8IElementEE13CopyConstructINS_3Web12JSONBodyTypeINS0_7JSONRPC7MessageEEEEEvRKNS1_IT_EERK17TemplateIntToTypeILj1EE
FN:563,574,_ZN12WPEFramework4Core9ProxyTypeINS0_9IDispatchEE13CopyConstructIS2_EEvRKNS1_IT_EERK17TemplateIntToTypeILj1EE
FN:597,608,_ZN12WPEFramework4Core9ProxyTypeINS0_7JSONRPC7MessageEE13MoveConstructINS_3Web12JSONBodyTypeIS3_EEEEvONS1_IT_EERK17TemplateIntToTypeILj1EE
FN:629,641,_ZN12WPEFramework4Core9ProxyTypeINS0_7ServiceINS_6Plugin10AppGatewayEEEE12CreateObjectIJEEEPNS0_11ProxyObjectIS5_EEjDpOT_
FN:629,641,_ZN12WPEFramework4Core9ProxyTypeINS0_7ServiceINS_6Plugin24AppGatewayImplementationEEEE12CreateObjectIJEEEPNS0_11ProxyObjectIS5_EEjDpOT_
FN:69,90,_ZN12WPEFramework4Core11ProxyObjectINS0_7ServiceINS_6Plugin10AppGatewayEEEEnwEmj
FN:69,90,_ZN12WPEFramework4Core11ProxyObjectINS0_7ServiceINS_6Plugin24AppGatewayImplementationEEEEnwEmj
FN:93,98,_ZN12WPEFramework4Core11ProxyObjectINS0_7ServiceINS_6Plugin10AppGatewayEEEEdlEPv
FN:93,98,_ZN12WPEFramework4Core11ProxyObjectINS0_7ServiceINS_6Plugin24AppGatewayImplementationEEEEdlEPv
FNDA:27,_ZN12WPEFramework4Core11ProxyObjectINS0_7ServiceINS_6Plugin10AppGatewayEEEEC1IJEEEDpOT_
FNDA:3,_ZN12WPEFramework4Core11ProxyObjectINS0_7ServiceINS_6Plugin24AppGatewayImplementationEEEEC1IJEEEDpOT_
FNDA:27,_ZN12WPEFramework4Core11ProxyObjectINS0_7ServiceINS_6Plugin10AppGatewayEEEED0Ev
FNDA:27,_ZN12WPEFramework4Core11ProxyObjectINS0_7ServiceINS_6Plugin10AppGatewayEEEED1Ev
FNDA:3,_ZN12WPEFramework4Core11ProxyObjectINS0_7ServiceINS_6Plugin24AppGatewayImplementationEEEED0Ev
FNDA:3,_ZN12WPEFramework4Core11ProxyObjectINS0_7ServiceINS_6Plugin24AppGatewayImplementationEEEED1Ev
FNDA:71,_ZNK12WPEFramework4Core11ProxyObjectINS0_7ServiceINS_6Plugin10AppGatewayEEEE6AddRefEv
FNDA:9,_ZNK12WPEFramework4Core11ProxyObjectINS0_7ServiceINS_6Plugin24AppGatewayImplementationEEEE6AddRefEv
FNDA:71,_ZNK12WPEFramework4Core11ProxyObjectINS0_7ServiceINS_6Plugin10AppGatewayEEEE7ReleaseEv
FNDA:9,_ZNK12WPEFramework4Core11ProxyObjectINS0_7ServiceINS_6Plugin24AppGatewayImplementationEEEE7ReleaseEv
FNDA:27,_ZNK12WPEFramework4Core11ProxyObjectINS0_7ServiceINS_6Plugin10AppGatewayEEEE13IsInitializedEv
FNDA:3,_ZNK12WPEFramework4Core11ProxyObjectINS0_7ServiceINS_6Plugin24AppGatewayImplementationEEEE13IsInitializedEv
FNDA:27,_ZN12WPEFramework4Core11ProxyObjectINS0_7ServiceINS_6Plugin10AppGatewayEEEE12__InitializeIS5_EENS0_10TypeTraits9enable_ifIXntsrNS6_13hasInitializeIT_jJEEE5valueEjE4typeEv
FNDA:3,_ZN12WPEFramework4Core11ProxyObjectINS0_7ServiceINS_6Plugin24AppGatewayImplementationEEEE12__InitializeIS5_EENS0_10TypeTraits9enable_ifIXntsrNS6_13hasInitializeIT_jJEEE5valueEjE4typeEv
FNDA:27,_ZN12WPEFramework4Core11ProxyObjectINS0_7ServiceINS_6Plugin10AppGatewayEEEE14__DeinitializeIS5_EENS0_10TypeTraits9enable_ifIXntsrNS6_15hasDeinitializeIT_vJEEE5valueEvE4typeEv
FNDA:3,_ZN12WPEFramework4Core11ProxyObjectINS0_7ServiceINS_6Plugin24AppGatewayImplementationEEEE14__DeinitializeIS5_EENS0_10TypeTraits9enable_ifIXntsrNS6_15hasDeinitializeIT_vJEEE5valueEvE4typeEv
FNDA:27,_ZN12WPEFramework4Core11ProxyObjectINS0_7ServiceINS_6Plugin10AppGatewayEEEE12__DestructedIS5_EENS0_10TypeTraits9enable_ifIXntsrNS6_13hasDestructedIT_vJEEE5valueEvE4typeEv
FNDA:3,_ZN12WPEFramework4Core11ProxyObjectINS0_7ServiceINS_6Plugin24AppGatewayImplementationEEEE12__DestructedIS5_EENS0_10TypeTraits9enable_ifIXntsrNS6_13hasDestructedIT_vJEEE5valueEvE4typeEv
FNDA:27,_ZNK12WPEFramework4Core11ProxyObjectINS0_7ServiceINS_6Plugin10AppGatewayEEEE15__IsInitializedIS5_EENS0_10TypeTraits9enable_ifIXntsrNS6_16hasIsInitializedIKT_bJEEE5valueEbE4typeEv
FNDA:3,_ZNK12WPEFramework4Core11ProxyObjectINS0_7ServiceINS_6Plugin24AppGatewayImplementationEEEE15__IsInitializedIS5_EENS0_10TypeTraits9enable_ifIXntsrNS6_16hasIsInitializedIKT_bJEEE5valueEbE4typeEv
FNDA:44,_ZN12WPEFramework4Core11ProxyObjectINS0_7ServiceINS_6Plugin10AppGatewayEEEE9__AcquireIS5_EENS0_10TypeTraits9enable_ifIXntsrNS6_10hasAcquireIT_vJRNS0_9ProxyTypeISB_EEEEE5valueEvE4typeEv
FNDA:6,_ZN12WPEFramework4Core11ProxyObjectINS0_7ServiceINS_6Plugin24AppGatewayImplementationEEEE9__AcquireIS5_EENS0_10TypeTraits9enable_ifIXntsrNS6_10hasAcquireIT_vJRNS0_9ProxyTypeISB_EEEEE5valueEvE4typeEv
FNDA:44,_ZN12WPEFramework4Core11ProxyObjectINS0_7ServiceINS_6Plugin10AppGatewayEEEE12__RelinquishIS5_EENS0_10TypeTraits9enable_ifIXntsrNS6_13hasRelinquishIT_vJRNS0_9ProxyTypeISB_EEEEE5valueEvE4typeEv
FNDA:6,_ZN12WPEFramework4Core11ProxyObjectINS0_7ServiceINS_6Plugin24AppGatewayImplementationEEEE12__RelinquishIS5_EENS0_10TypeTraits9enable_ifIXntsrNS6_13hasRelinquishIT_vJRNS0_9ProxyTypeISB_EEEEE5valueEvE4typeEv
FNDA:0,_ZN12WPEFramework4Core9ProxyTypeINS_3Web12JSONBodyTypeINS0_7JSONRPC7MessageEEEE5ResetEv
FNDA:3,_ZN12WPEFramework4Core9ProxyTypeINS0_9IDispatchEEC2Ev
FNDA:27,_ZN12WPEFramework4Core9ProxyTypeINS0_7ServiceINS_6Plugin10AppGatewayEEEEC2ERNS0_11ProxyObjectIS5_EE
FNDA:3,_ZN12WPEFramework4Core9ProxyTypeINS0_7ServiceINS_6Plugin24AppGatewayImplementationEEEEC2ERNS0_11ProxyObjectIS5_EE
FNDA:0,_ZN12WPEFramework4Core9ProxyTypeINS0_4JSON8IElementEEC2INS0_7JSONRPC7MessageEEERKNS1_IT_EE
FNDA:0,_ZN12WPEFramework4Core9ProxyTypeINS0_4JSON8IElementEEC2INS_3Web12JSONBodyTypeINS0_7JSONRPC7MessageEEEEERKNS1_IT_EE
FNDA:0,_ZN12WPEFramework4Core9ProxyTypeINS0_7JSONRPC7MessageEEC2INS_3Web12JSONBodyTypeIS3_EEEEONS1_IT_EE
FNDA:4,_ZN12WPEFramework4Core9ProxyTypeINS0_9IDispatchEEC2ERKS3_
FNDA:0,_ZN12WPEFramework4Core9ProxyTypeINS0_4JSON8IElementEED2Ev
FNDA:0,_ZN12WPEFramework4Core9ProxyTypeINS0_7JSONRPC7MessageEED2Ev
FNDA:27,_ZN12WPEFramework4Core9ProxyTypeINS0_7ServiceINS_6Plugin10AppGatewayEEEED2Ev
FNDA:3,_ZN12WPEFramework4Core9ProxyTypeINS0_7ServiceINS_6Plugin24AppGatewayImplementationEEEED2Ev
FNDA:9,_ZN12WPEFramework4Core9ProxyTypeINS0_9IDispatchEED2Ev
FNDA:0,_ZN12WPEFramework4Core9ProxyTypeINS_3Web12JSONBodyTypeINS0_7JSONRPC7MessageEEEED2Ev
FNDA:27,_ZN12WPEFramework4Core9ProxyTypeINS0_7ServiceINS_6Plugin10AppGatewayEEEE6CreateIJEEES6_DpOT_
FNDA:3,_ZN12WPEFramework4Core9ProxyTypeINS0_7ServiceINS_6Plugin24AppGatewayImplementationEEEE6CreateIJEEES6_DpOT_
FNDA:2,_ZN12WPEFramework4Core9ProxyTypeINS0_9IDispatchEEaSERKS3_
FNDA:4,_ZNK12WPEFramework4Core9ProxyTypeINS0_9IDispatchEE7IsValidEv
FNDA:2,_ZNK12WPEFramework4Core9ProxyTypeINS0_9IDispatchEE7ReleaseEv
FNDA:0,_ZNK12WPEFramework4Core9ProxyTypeINS0_9IDispatchEEeqERKS3_
FNDA:0,_ZNK12WPEFramework4Core9ProxyTypeINS0_9IDispatchEEneERKS3_
FNDA:0,_ZNK12WPEFramework4Core9ProxyTypeINS0_7JSONRPC7MessageEEptEv
FNDA:27,_ZNK12WPEFramework4Core9ProxyTypeINS0_7ServiceINS_6Plugin10AppGatewayEEEEptEv
FNDA:3,_ZNK12WPEFramework4Core9ProxyTypeINS0_7ServiceINS_6Plugin24AppGatewayImplementationEEEEptEv
FNDA:2,_ZNK12WPEFramework4Core9ProxyTypeINS0_9IDispatchEEptEv
FNDA:0,_ZNK12WPEFramework4Core9ProxyTypeINS_3Web12JSONBodyTypeINS0_7JSONRPC7MessageEEEEptEv
FNDA:2,_ZNK12WPEFramework4Core9ProxyTypeINS0_9IDispatchEEdeEv
FNDA:0,_ZN12WPEFramework4Core9ProxyTypeINS0_4JSON8IElementEE13CopyConstructINS0_7JSONRPC7MessageEEEvRKNS1_IT_EERK17TemplateIntToTypeILj1EE
FNDA:0,_ZN12WPEFramework4Core9ProxyTypeINS0_4JSON8IElementEE13CopyConstructINS_3Web12JSONBodyTypeINS0_7JSONRPC7MessageEEEEEvRKNS1_IT_EERK17TemplateIntToTypeILj1EE
FNDA:2,_ZN12WPEFramework4Core9ProxyTypeINS0_9IDispatchEE13CopyConstructIS2_EEvRKNS1_IT_EERK17TemplateIntToTypeILj1EE
FNDA:0,_ZN12WPEFramework4Core9ProxyTypeINS0_7JSONRPC7MessageEE13MoveConstructINS_3Web12JSONBodyTypeIS3_EEEEvONS1_IT_EERK17TemplateIntToTypeILj1EE
FNDA:27,_ZN12WPEFramework4Core9ProxyTypeINS0_7ServiceINS_6Plugin10AppGatewayEEEE12CreateObjectIJEEEPNS0_11ProxyObjectIS5_EEjDpOT_
FNDA:3,_ZN12WPEFramework4Core9ProxyTypeINS0_7ServiceINS_6Plugin24AppGatewayImplementationEEEE12CreateObjectIJEEEPNS0_11ProxyObjectIS5_EEjDpOT_
FNDA:27,_ZN12WPEFramework4Core11ProxyObjectINS0_7ServiceINS_6Plugin10AppGatewayEEEEnwEmj
FNDA:3,_ZN12WPEFramework4Core11ProxyObjectINS0_7ServiceINS_6Plugin24AppGatewayImplementationEEEEnwEmj
FNDA:27,_ZN12WPEFramework4Core11ProxyObjectINS0_7ServiceINS_6Plugin10AppGatewayEEEEdlEPv
FNDA:3,_ZN12WPEFramework4Core11ProxyObjectINS0_7ServiceINS_6Plugin24AppGatewayImplementationEEEEdlEPv
FNF:61
FNH:47
DA:69,30
DA:73,30
DA:76,30
DA:78,30
DA:79,0
DA:81,0
DA:82,0
DA:86,30
DA:89,30
DA:93,30
DA:96,30
DA:97,30
DA:98,30
DA:102,30
DA:104,30
DA:106,30
DA:107,30
DA:108,60
DA:110,30
DA:119,60
DA:122,80
DA:124,80
DA:125,50
DA:127,80
DA:129,80
DA:131,80
DA:133,80
DA:134,80
DA:136,80
DA:137,30
DA:138,30
DA:140,50
DA:141,50
DA:144,80
DA:183,30
DA:185,30
DA:231,30
DA:233,30
DA:249,30
DA:251,30
DA:266,30
DA:268,30
DA:284,30
DA:286,30
DA:305,50
DA:307,50
DA:325,50
DA:327,50
DA:363,0
DA:365,0
DA:366,0
DA:367,0
DA:383,3
DA:384,3
DA:385,3
DA:387,3
DA:394,30
DA:395,30
DA:396,30
DA:398,30
DA:399,30
DA:409,0
DA:411,0
DA:412,0
DA:414,0
DA:416,0
DA:417,0
DA:418,4
DA:419,4
DA:420,4
DA:422,4
DA:424,4
DA:425,4
DA:427,4
DA:434,39
DA:436,39
DA:437,36
DA:439,39
DA:448,30
DA:450,30
DA:469,2
DA:472,2
DA:474,2
DA:476,2
DA:501,4
DA:503,4
DA:505,2
DA:508,2
DA:510,2
DA:511,2
DA:513,2
DA:515,2
DA:524,0
DA:526,0
DA:529,0
DA:531,0
DA:543,32
DA:545,32
DA:547,32
DA:550,2
DA:552,2
DA:554,2
DA:563,2
DA:565,2
DA:567,2
DA:568,0
DA:571,2
DA:572,2
DA:574,2
DA:597,0
DA:599,0
DA:601,0
DA:602,0
DA:605,0
DA:606,0
DA:608,0
DA:629,30
DA:631,30
DA:633,30
DA:635,30
DA:636,0
DA:637,0
DA:640,30
LF:123
LH:96
end_of_record
TN:
SF:/home/kavia/workspace/code-generation/app-gateway2/dependencies/install/include/WPEFramework/core/Queue.h
FN:108,130,_ZN12WPEFramework4Core9QueueTypeINS0_9ProxyTypeINS0_9IDispatchEEEE4PostERKS4_
FN:132,173,_ZN12WPEFramework4Core9QueueTypeINS0_9ProxyTypeINS0_9IDispatchEEEE6InsertERKS4_j
FN:175,220,_ZN12WPEFramework4Core9QueueTypeINS0_9ProxyTypeINS0_9IDispatchEEEE7ExtractERS4_j
FN:222,233,_ZN12WPEFramework4Core9QueueTypeINS0_9ProxyTypeINS0_9IDispatchEEEE6EnableEv
FN:235,247,_ZN12WPEFramework4Core9QueueTypeINS0_9ProxyTypeINS0_9IDispatchEEEE7DisableEv
FN:270,273,_ZNK12WPEFramework4Core9QueueTypeINS0_9ProxyTypeINS0_9IDispatchEEEE7IsEmptyEv
FN:274,277,_ZNK12WPEFramework4Core9QueueTypeINS0_9ProxyTypeINS0_9IDispatchEEEE6IsFullEv
FN:284,290,_ZNK12WPEFramework4Core9QueueTypeINS0_9ProxyTypeINS0_9IDispatchEEEE5VisitIZNKS0_10ThreadPool8SnapshotEhPNS7_8MetadataERSt6vectorINSt7__cxx1112basic_stringIcSt11char_traitsIcESaIcEEESaISG_EEEUlRKS4_E_EEvOT_
FN:291,309,_ZNK12WPEFramework4Core9QueueTypeINS0_9ProxyTypeINS0_9IDispatchEEEE8HasEntryERKS4_
FN:310,312,_ZNK12WPEFramework4Core9QueueTypeINS0_9ProxyTypeINS0_9IDispatchEEEE4LockEv
FN:313,315,_ZNK12WPEFramework4Core9QueueTypeINS0_9ProxyTypeINS0_9IDispatchEEEE6UnlockEv
FN:46,56,_ZN12WPEFramework4Core9QueueTypeINS0_9ProxyTypeINS0_9IDispatchEEEEC2Ej
FN:57,63,_ZN12WPEFramework4Core9QueueTypeINS0_9ProxyTypeINS0_9IDispatchEEEED2Ev
FN:80,106,_ZN12WPEFramework4Core9QueueTypeINS0_9ProxyTypeINS0_9IDispatchEEEE6RemoveERKS4_
FNDA:0,_ZN12WPEFramework4Core9QueueTypeINS0_9ProxyTypeINS0_9IDispatchEEEE4PostERKS4_
FNDA:2,_ZN12WPEFramework4Core9QueueTypeINS0_9ProxyTypeINS0_9IDispatchEEEE6InsertERKS4_j
FNDA:4,_ZN12WPEFramework4Core9QueueTypeINS0_9ProxyTypeINS0_9IDispatchEEEE7ExtractERS4_j
FNDA:1,_ZN12WPEFramework4Core9QueueTypeINS0_9ProxyTypeINS0_9IDispatchEEEE6EnableEv
FNDA:4,_ZN12WPEFramework4Core9QueueTypeINS0_9ProxyTypeINS0_9IDispatchEEEE7DisableEv
FNDA:2,_ZNK12WPEFramework4Core9QueueTypeINS0_9ProxyTypeINS0_9IDispatchEEEE7IsEmptyEv
FNDA:2,_ZNK12WPEFramework4Core9QueueTypeINS0_9ProxyTypeINS0_9IDispatchEEEE6IsFullEv
FNDA:0,_ZNK12WPEFramework4Core9QueueTypeINS0_9ProxyTypeINS0_9IDispatchEEEE5VisitIZNKS0_10ThreadPool8SnapshotEhPNS7_8MetadataERSt6vectorINSt7__cxx1112basic_stringIcSt11char_traitsIcESaIcEEESaISG_EEEUlRKS4_E_EEvOT_
FNDA:2,_ZNK12WPEFramework4Core9QueueTypeINS0_9ProxyTypeINS0_9IDispatchEEEE8HasEntryERKS4_
FNDA:0,_ZNK12WPEFramework4Core9QueueTypeINS0_9ProxyTypeINS0_9IDispatchEEEE4LockEv
FNDA:0,_ZNK12WPEFramework4Core9QueueTypeINS0_9ProxyTypeINS0_9IDispatchEEEE6UnlockEv
FNDA:1,_ZN12WPEFramework4Core9QueueTypeINS0_9ProxyTypeINS0_9IDispatchEEEEC2Ej
FNDA:1,_ZN12WPEFramework4Core9QueueTypeINS0_9ProxyTypeINS0_9IDispatchEEEED2Ev
FNDA:0,_ZN12WPEFramework4Core9QueueTypeINS0_9ProxyTypeINS0_9IDispatchEEEE6RemoveERKS4_
FNF:14
FNH:9
DA:46,1
DA:48,1
DA:49,1
DA:50,1
DA:53,1
DA:56,1
DA:57,1
DA:62,1
DA:63,1
DA:80,0
DA:82,0
DA:85,0
DA:87,0
DA:90,0
DA:92,0
DA:94,0
DA:95,0
DA:99,0
DA:103,0
DA:105,0
DA:108,0
DA:110,0
DA:113,0
DA:115,0
DA:118,0
DA:121,0
DA:123,0
DA:127,0
DA:129,0
DA:132,2
DA:134,2
DA:135,2
DA:138,2
DA:140,2
DA:143,2
DA:145,2
DA:148,2
DA:151,2
DA:154,0
DA:157,0
DA:160,0
DA:163,0
DA:166,2
DA:170,2
DA:172,2
DA:175,4
DA:177,4
DA:178,4
DA:181,4
DA:183,4
DA:186,8
DA:187,2
DA:191,2
DA:194,2
DA:195,2
DA:198,2
DA:201,6
DA:204,6
DA:207,6
DA:210,6
DA:213,8
DA:217,4
DA:219,4
DA:222,1
DA:225,1
DA:227,1
DA:228,0
DA:232,1
DA:233,1
DA:235,4
DA:238,4
DA:240,4
DA:242,1
DA:246,4
DA:247,4
DA:270,2
DA:272,2
DA:274,2
DA:276,2
DA:284,0
DA:285,0
DA:286,0
DA:287,0
DA:289,0
DA:290,0
DA:291,2
DA:294,2
DA:296,2
DA:299,2
DA:300,0
DA:303,2
DA:306,2
DA:308,2
DA:310,0
DA:311,0
DA:312,0
DA:313,0
DA:314,0
DA:315,0
LF:99
LH:61
end_of_record
TN:
SF:/home/kavia/workspace/code-generation/app-gateway2/dependencies/install/include/WPEFramework/core/ResourceMonitor.h
FN:162,165,_ZNK12WPEFramework4Core19ResourceMonitorTypeINS0_9IResourceENS0_4VoidEE2IdEv
FNDA:2,_ZNK12WPEFramework4Core19ResourceMonitorTypeINS0_9IResourceENS0_4VoidEE2IdEv
FNF:1
FNH:1
DA:162,2
DA:164,2
LF:2
LH:2
end_of_record
TN:
SF:/home/kavia/workspace/code-generation/app-gateway2/dependencies/install/include/WPEFramework/core/Serialization.h
FN:88,91,_ZN12WPEFramework4Core8ToStringEPKcRNSt7__cxx1112basic_stringIcSt11char_traitsIcESaIcEEE
FN:93,102,_ZN12WPEFramework4Core8ToStringB5cxx11EPKc
FNDA:1056,_ZN12WPEFramework4Core8ToStringEPKcRNSt7__cxx1112basic_stringIcSt11char_traitsIcESaIcEEE
FNDA:1481,_ZN12WPEFramework4Core8ToStringB5cxx11EPKc
FNF:2
FNH:2
DA:88,1056
DA:90,1056
DA:91,1056
DA:93,1481
DA:100,2962
LF:5
LH:5
end_of_record
TN:
SF:/home/kavia/workspace/code-generation/app-gateway2/dependencies/install/include/WPEFramework/core/Services.h
FN:110,114,_ZNK12WPEFramework4Core20ServiceAdministrator6AddRefEv
FN:115,126,_ZNK12WPEFramework4Core20ServiceAdministrator7ReleaseEv
FN:162,166,_ZN12WPEFramework4Core7ServiceINS_6Plugin10AppGatewayEEC2IJEEEDpOT_
FN:162,166,_ZN12WPEFramework4Core7ServiceINS_6Plugin24AppGatewayImplementationEEC2IJEEEDpOT_
FN:173,178,_ZN12WPEFramework4Core7ServiceINS_6Plugin10AppGatewayEE6CreateINS_10PluginHost7IPluginEJEEEPT_DpOT0_
FN:173,178,_ZN12WPEFramework4Core7ServiceINS_6Plugin24AppGatewayImplementationEE6CreateINS_8Exchange19IAppGatewayResolverEJEEEPT_DpOT0_
FN:179,182,_ZN12WPEFramework4Core7ServiceINS_6Plugin10AppGatewayEED2Ev
FN:179,182,_ZN12WPEFramework4Core7ServiceINS_6Plugin24AppGatewayImplementationEED2Ev
FN:186,191,_ZN12WPEFramework4Core7ServiceINS_6Plugin10AppGatewayEE7ExtractINS_10PluginHost7IPluginEEEPT_RKNS0_9ProxyTypeIS4_EERK17TemplateIntToTypeILj0EE
FN:186,191,_ZN12WPEFramework4Core7ServiceINS_6Plugin24AppGatewayImplementationEE7ExtractINS_8Exchange19IAppGatewayResolverEEEPT_RKNS0_9ProxyTypeIS4_EERK17TemplateIntToTypeILj0EE
FNDA:30,_ZNK12WPEFramework4Core20ServiceAdministrator6AddRefEv
FNDA:30,_ZNK12WPEFramework4Core20ServiceAdministrator7ReleaseEv
FNDA:27,_ZN12WPEFramework4Core7ServiceINS_6Plugin10AppGatewayEEC2IJEEEDpOT_
FNDA:3,_ZN12WPEFramework4Core7ServiceINS_6Plugin24AppGatewayImplementationEEC2IJEEEDpOT_
FNDA:27,_ZN12WPEFramework4Core7ServiceINS_6Plugin10AppGatewayEE6CreateINS_10PluginHost7IPluginEJEEEPT_DpOT0_
FNDA:3,_ZN12WPEFramework4Core7ServiceINS_6Plugin24AppGatewayImplementationEE6CreateINS_8Exchange19IAppGatewayResolverEJEEEPT_DpOT0_
FNDA:27,_ZN12WPEFramework4Core7ServiceINS_6Plugin10AppGatewayEED2Ev
FNDA:3,_ZN12WPEFramework4Core7ServiceINS_6Plugin24AppGatewayImplementationEED2Ev
FNDA:27,_ZN12WPEFramework4Core7ServiceINS_6Plugin10AppGatewayEE7ExtractINS_10PluginHost7IPluginEEEPT_RKNS0_9ProxyTypeIS4_EERK17TemplateIntToTypeILj0EE
FNDA:3,_ZN12WPEFramework4Core7ServiceINS_6Plugin24AppGatewayImplementationEE7ExtractINS_8Exchange19IAppGatewayResolverEEEPT_RKNS0_9ProxyTypeIS4_EERK17TemplateIntToTypeILj0EE
FNF:10
FNH:10
DA:110,30
DA:112,30
DA:113,30
DA:115,30
DA:117,30
DA:119,30
DA:121,30
DA:122,0
DA:125,30
DA:162,30
DA:163,30
DA:165,30
DA:166,30
DA:173,30
DA:175,30
DA:177,60
DA:178,30
DA:179,30
DA:181,30
DA:182,60
DA:186,30
DA:188,30
DA:190,30
LF:23
LH:22
end_of_record
TN:
SF:/home/kavia/workspace/code-generation/app-gateway2/dependencies/install/include/WPEFramework/core/Singleton.h
FN:70,73,_ZN12WPEFramework4Core9Singleton7DisposeEv
FNDA:1,_ZN12WPEFramework4Core9Singleton7DisposeEv
FNF:1
FNH:1
DA:70,1
DA:72,1
DA:73,1
LF:3
LH:3
end_of_record
TN:
SF:/home/kavia/workspace/code-generation/app-gateway2/dependencies/install/include/WPEFramework/core/StateTrigger.h
FN:104,128,_ZNK12WPEFramework4Core12StateTriggerINS0_9QueueTypeINS0_9ProxyTypeINS0_9IDispatchEEEE14enumQueueStateEE9WaitStateEjj
FN:160,185,_ZN12WPEFramework4Core12StateTriggerINS0_9QueueTypeINS0_9ProxyTypeINS0_9IDispatchEEEE14enumQueueStateEE8SetStateES7_
FN:199,203,_ZNK12WPEFramework4Core12StateTriggerINS0_9QueueTypeINS0_9ProxyTypeINS0_9IDispatchEEEE14enumQueueStateEEeqES7_
FN:207,211,_ZNK12WPEFramework4Core12StateTriggerINS0_9QueueTypeINS0_9ProxyTypeINS0_9IDispatchEEEE14enumQueueStateEEneES7_
FN:80,87,_ZN12WPEFramework4Core12StateTriggerINS0_9QueueTypeINS0_9ProxyTypeINS0_9IDispatchEEEE14enumQueueStateEEC2ES7_
FN:90,93,_ZN12WPEFramework4Core12StateTriggerINS0_9QueueTypeINS0_9ProxyTypeINS0_9IDispatchEEEE14enumQueueStateEED0Ev
FN:90,93,_ZN12WPEFramework4Core12StateTriggerINS0_9QueueTypeINS0_9ProxyTypeINS0_9IDispatchEEEE14enumQueueStateEED2Ev
FNDA:6,_ZNK12WPEFramework4Core12StateTriggerINS0_9QueueTypeINS0_9ProxyTypeINS0_9IDispatchEEEE14enumQueueStateEE9WaitStateEjj
FNDA:5,_ZN12WPEFramework4Core12StateTriggerINS0_9QueueTypeINS0_9ProxyTypeINS0_9IDispatchEEEE14enumQueueStateEE8SetStateES7_
FNDA:1,_ZNK12WPEFramework4Core12StateTriggerINS0_9QueueTypeINS0_9ProxyTypeINS0_9IDispatchEEEE14enumQueueStateEEeqES7_
FNDA:26,_ZNK12WPEFramework4Core12StateTriggerINS0_9QueueTypeINS0_9ProxyTypeINS0_9IDispatchEEEE14enumQueueStateEEneES7_
FNDA:1,_ZN12WPEFramework4Core12StateTriggerINS0_9QueueTypeINS0_9ProxyTypeINS0_9IDispatchEEEE14enumQueueStateEEC2ES7_
FNDA:0,_ZN12WPEFramework4Core12StateTriggerINS0_9QueueTypeINS0_9ProxyTypeINS0_9IDispatchEEEE14enumQueueStateEED0Ev
FNDA:1,_ZN12WPEFramework4Core12StateTriggerINS0_9QueueTypeINS0_9ProxyTypeINS0_9IDispatchEEEE14enumQueueStateEED2Ev
FNF:7
FNH:6
DA:80,1
DA:81,1
DA:82,1
DA:83,1
DA:84,1
DA:87,1
DA:90,1
DA:93,1
DA:104,6
DA:108,6
DA:110,6
DA:113,12
DA:114,6
DA:116,6
DA:118,6
DA:120,6
DA:122,6
DA:125,6
DA:127,6
DA:160,5
DA:163,5
DA:165,5
DA:166,5
DA:169,5
DA:170,3
DA:173,15
DA:175,12
DA:178,3
DA:182,5
DA:184,5
DA:199,1
DA:202,1
DA:207,26
DA:210,26
LF:34
LH:34
end_of_record
TN:
SF:/home/kavia/workspace/code-generation/app-gateway2/dependencies/install/include/WPEFramework/core/Sync.h
FN:229,233,_ZN12WPEFramework4Core12SafeSyncTypeINS0_15CriticalSectionEEC2ERS2_
FN:235,238,_ZN12WPEFramework4Core12SafeSyncTypeINS0_15CriticalSectionEED2Ev
FN:50,70,_ZN12WPEFramework4Core15CriticalSection4LockEv
FN:72,84,_ZN12WPEFramework4Core15CriticalSection6UnlockEv
FNDA:49,_ZN12WPEFramework4Core12SafeSyncTypeINS0_15CriticalSectionEEC2ERS2_
FNDA:49,_ZN12WPEFramework4Core12SafeSyncTypeINS0_15CriticalSectionEED2Ev
FNDA:90,_ZN12WPEFramework4Core15CriticalSection4LockEv
FNDA:89,_ZN12WPEFramework4Core15CriticalSection6UnlockEv
FNF:4
FNH:4
DA:50,90
DA:57,90
DA:59,90
DA:60,90
DA:61,0
DA:70,90
DA:72,89
DA:75,89
DA:76,90
DA:77,0
DA:84,90
DA:229,49
DA:230,49
DA:232,49
DA:233,49
DA:235,49
DA:237,49
DA:238,49
LF:18
LH:16
end_of_record
TN:
SF:/home/kavia/workspace/code-generation/app-gateway2/dependencies/install/include/WPEFramework/core/Thread.h
FN:170,173,_ZN12WPEFramework4Core6Thread16DefaultStackSizeEv
FN:221,224,_ZNK12WPEFramework4Core6Thread2IdEv
FNDA:2,_ZN12WPEFramework4Core6Thread16DefaultStackSizeEv
FNDA:0,_ZNK12WPEFramework4Core6Thread2IdEv
FNF:2
FNH:1
DA:170,2
DA:172,2
DA:221,0
DA:223,0
LF:4
LH:2
end_of_record
TN:
SF:/home/kavia/workspace/code-generation/app-gateway2/dependencies/install/include/WPEFramework/core/ThreadPool.h
FN:375,385,_ZN12WPEFramework4Core10ThreadPool6MinionC2ERS1_PNS1_11IDispatcherE
FN:386,386,_ZN12WPEFramework4Core10ThreadPool6MinionD2Ev
FN:389,392,_ZNK12WPEFramework4Core10ThreadPool6Minion8IsActiveEv
FN:393,405,_ZNK12WPEFramework4Core10ThreadPool6Minion4InfoERNS1_8MetadataE
FN:406,422,_ZN12WPEFramework4Core10ThreadPool6Minion9CompletedERKNS0_9ProxyTypeINS0_9IDispatchEEEj
FN:42,42,_ZN12WPEFramework4Core10ThreadPool10ISchedulerD0Ev
FN:42,42,_ZN12WPEFramework4Core10ThreadPool10ISchedulerD2Ev
FN:423,485,_ZN12WPEFramework4Core10ThreadPool6Minion7ProcessEv
FN:47,47,_ZN12WPEFramework4Core10ThreadPool11IDispatcherD0Ev
FN:47,47,_ZN12WPEFramework4Core10ThreadPool11IDispatcherD2Ev
FN:508,512,_ZN12WPEFramework4Core10ThreadPool8ExecutorC2ERS1_PNS1_11IDispatcherEjPKc
FN:513,517,_ZN12WPEFramework4Core10ThreadPool8ExecutorD0Ev
FN:513,517,_ZN12WPEFramework4Core10ThreadPool8ExecutorD2Ev
FN:520,522,_ZNK12WPEFramework4Core10ThreadPool8Executor8IsActiveEv
FN:523,526,_ZNK12WPEFramework4Core10ThreadPool8Executor4InfoERNS1_8MetadataE
FN:527,529,_ZN12WPEFramework4Core10ThreadPool8Executor3RunEv
FN:530,532,_ZN12WPEFramework4Core10ThreadPool8Executor4StopEv
FN:533,535,_ZN12WPEFramework4Core10ThreadPool8Executor2MeEv
FN:538,543,_ZN12WPEFramework4Core10ThreadPool8Executor6WorkerEv
FN:553,566,_ZN12WPEFramework4Core10ThreadPoolC2EhjjPNS1_11IDispatcherEPNS1_10ISchedulerEPNS1_6MinionEPNS1_9ICallbackE
FN:567,570,_ZN12WPEFramework4Core10ThreadPoolD2Ev
FN:573,576,_ZNK12WPEFramework4Core10ThreadPool5CountEv
FN:580,598,_ZNK12WPEFramework4Core10ThreadPool8SnapshotEhPNS1_8MetadataERSt6vectorINSt7__cxx1112basic_stringIcSt11char_traitsIcESaIcEEESaISA_EE
FN:593,595,_ZZNK12WPEFramework4Core10ThreadPool8SnapshotEhPNS1_8MetadataERSt6vectorINSt7__cxx1112basic_stringIcSt11char_traitsIcESaIcEEESaISA_EEENKUlRKNS0_9ProxyTypeINS0_9IDispatchEEEE_clESI_
FN:599,608,_ZNK12WPEFramework4Core10ThreadPool2IdEh
FN:609,621,_ZN12WPEFramework4Core10ThreadPool6SubmitERKNS0_9ProxyTypeINS0_9IDispatchEEEj
FN:622,652,_ZN12WPEFramework4Core10ThreadPool6RevokeERKNS0_9ProxyTypeINS0_9IDispatchEEEj
FN:653,661,_ZN12WPEFramework4Core10ThreadPool3RunEv
FN:662,670,_ZN12WPEFramework4Core10ThreadPool4StopEv
FN:694,712,_ZN12WPEFramework4Core10ThreadPool4IdleEv
FN:713,727,_ZN12WPEFramework4Core10ThreadPool7ClosureERNS1_4IJobE
FNDA:3,_ZN12WPEFramework4Core10ThreadPool6MinionC2ERS1_PNS1_11IDispatcherE
FNDA:3,_ZN12WPEFramework4Core10ThreadPool6MinionD2Ev
FNDA:0,_ZNK12WPEFramework4Core10ThreadPool6Minion8IsActiveEv
FNDA:0,_ZNK12WPEFramework4Core10ThreadPool6Minion4InfoERNS1_8MetadataE
FNDA:0,_ZN12WPEFramework4Core10ThreadPool6Minion9CompletedERKNS0_9ProxyTypeINS0_9IDispatchEEEj
FNDA:0,_ZN12WPEFramework4Core10ThreadPool10ISchedulerD0Ev
FNDA:1,_ZN12WPEFramework4Core10ThreadPool10ISchedulerD2Ev
FNDA:2,_ZN12WPEFramework4Core10ThreadPool6Minion7ProcessEv
FNDA:0,_ZN12WPEFramework4Core10ThreadPool11IDispatcherD0Ev
FNDA:1,_ZN12WPEFramework4Core10ThreadPool11IDispatcherD2Ev
FNDA:2,_ZN12WPEFramework4Core10ThreadPool8ExecutorC2ERS1_PNS1_11IDispatcherEjPKc
FNDA:0,_ZN12WPEFramework4Core10ThreadPool8ExecutorD0Ev
FNDA:2,_ZN12WPEFramework4Core10ThreadPool8ExecutorD2Ev
FNDA:0,_ZNK12WPEFramework4Core10ThreadPool8Executor8IsActiveEv
FNDA:0,_ZNK12WPEFramework4Core10ThreadPool8Executor4InfoERNS1_8MetadataE
FNDA:2,_ZN12WPEFramework4Core10ThreadPool8Executor3RunEv
FNDA:6,_ZN12WPEFramework4Core10ThreadPool8Executor4StopEv
FNDA:0,_ZN12WPEFramework4Core10ThreadPool8Executor2MeEv
FNDA:2,_ZN12WPEFramework4Core10ThreadPool8Executor6WorkerEv
FNDA:1,_ZN12WPEFramework4Core10ThreadPoolC2EhjjPNS1_11IDispatcherEPNS1_10ISchedulerEPNS1_6MinionEPNS1_9ICallbackE
FNDA:1,_ZN12WPEFramework4Core10ThreadPoolD2Ev
FNDA:0,_ZNK12WPEFramework4Core10ThreadPool5CountEv
FNDA:0,_ZNK12WPEFramework4Core10ThreadPool8SnapshotEhPNS1_8MetadataERSt6vectorINSt7__cxx1112basic_stringIcSt11char_traitsIcESaIcEEESaISA_EE
FNDA:0,_ZZNK12WPEFramework4Core10ThreadPool8SnapshotEhPNS1_8MetadataERSt6vectorINSt7__cxx1112basic_stringIcSt11char_traitsIcESaIcEEESaISA_EEENKUlRKNS0_9ProxyTypeINS0_9IDispatchEEEE_clESI_
FNDA:0,_ZNK12WPEFramework4Core10ThreadPool2IdEh
FNDA:2,_ZN12WPEFramework4Core10ThreadPool6SubmitERKNS0_9ProxyTypeINS0_9IDispatchEEEj
FNDA:0,_ZN12WPEFramework4Core10ThreadPool6RevokeERKNS0_9ProxyTypeINS0_9IDispatchEEEj
FNDA:1,_ZN12WPEFramework4Core10ThreadPool3RunEv
FNDA:3,_ZN12WPEFramework4Core10ThreadPool4StopEv
FNDA:2,_ZN12WPEFramework4Core10ThreadPool4IdleEv
FNDA:0,_ZN12WPEFramework4Core10ThreadPool7ClosureERNS1_4IJobE
FNF:31
FNH:16
DA:42,1
DA:47,1
DA:375,3
DA:376,3
DA:377,3
DA:378,3
DA:379,3
DA:380,3
DA:381,3
DA:382,3
DA:384,3
DA:385,3
DA:386,3
DA:389,0
DA:390,0
DA:391,0
DA:392,0
DA:393,0
DA:394,0
DA:396,0
DA:397,0
DA:398,0
DA:399,0
DA:402,0
DA:403,0
DA:405,0
DA:406,0
DA:407,0
DA:409,0
DA:411,0
DA:412,0
DA:415,0
DA:416,0
DA:417,0
DA:418,0
DA:421,0
DA:423,2
DA:425,2
DA:427,4
DA:429,2
DA:431,2
DA:450,2
DA:452,2
DA:454,2
DA:456,2
DA:458,0
DA:465,2
DA:467,2
DA:469,2
DA:471,0
DA:473,0
DA:474,0
DA:477,0
DA:479,2
DA:481,2
DA:484,2
DA:485,2
DA:508,2
DA:509,2
DA:510,4
DA:512,2
DA:513,2
DA:514,2
DA:515,2
DA:516,2
DA:517,2
DA:520,0
DA:521,0
DA:523,0
DA:524,0
DA:525,0
DA:526,0
DA:527,2
DA:528,2
DA:529,2
DA:530,6
DA:531,6
DA:532,6
DA:533,0
DA:534,0
DA:538,2
DA:540,2
DA:541,2
DA:542,2
DA:553,1
DA:554,1
DA:555,1
DA:559,1
DA:560,1
DA:562,1
DA:563,3
DA:564,2
DA:566,1
DA:567,1
DA:568,1
DA:569,1
DA:570,1
DA:573,0
DA:575,0
DA:580,0
DA:582,0
DA:583,0
DA:586,0
DA:588,0
DA:589,0
DA:590,0
DA:591,0
DA:593,0
DA:594,0
DA:595,0
DA:597,0
DA:598,0
DA:599,0
DA:601,0
DA:602,0
DA:603,0
DA:605,0
DA:607,0
DA:609,2
DA:611,2
DA:612,2
DA:614,2
DA:615,0
DA:618,2
DA:621,2
DA:622,0
DA:624,0
DA:626,0
DA:628,0
DA:629,0
DA:633,0
DA:635,0
DA:638,0
DA:639,0
DA:642,0
DA:643,0
DA:644,0
DA:647,0
DA:651,0
DA:653,1
DA:655,1
DA:656,1
DA:657,3
DA:658,2
DA:659,2
DA:661,1
DA:662,3
DA:664,3
DA:665,3
DA:666,9
DA:667,6
DA:668,6
DA:670,3
DA:694,2
DA:695,2
DA:696,0
DA:697,0
DA:698,0
DA:701,0
DA:702,0
DA:703,0
DA:704,0
DA:706,0
DA:708,0
DA:712,2
DA:713,0
DA:714,0
DA:715,0
DA:716,0
DA:717,0
DA:718,0
DA:719,0
DA:723,0
DA:726,0
DA:727,0
LF:175
LH:84
end_of_record
TN:
SF:/home/kavia/workspace/code-generation/app-gateway2/dependencies/install/include/WPEFramework/core/Time.h
FN:105,108,_ZN12WPEFramework4Core4TimeC2Ev
FN:110,113,_ZNK12WPEFramework4Core4Time7IsValidEv
FN:270,273,_ZNK12WPEFramework4Core4TimeltERKS1_
FN:278,281,_ZNK12WPEFramework4Core4TimegtERKS1_
FNDA:0,_ZN12WPEFramework4Core4TimeC2Ev
FNDA:0,_ZNK12WPEFramework4Core4Time7IsValidEv
FNDA:0,_ZNK12WPEFramework4Core4TimeltERKS1_
FNDA:0,_ZNK12WPEFramework4Core4TimegtERKS1_
FNF:4
FNH:0
DA:105,0
DA:106,0
DA:108,0
DA:110,0
DA:112,0
DA:270,0
DA:272,0
DA:278,0
DA:280,0
LF:9
LH:0
end_of_record
TN:
SF:/home/kavia/workspace/code-generation/app-gateway2/dependencies/install/include/WPEFramework/core/Timer.h
FN:113,116,_ZNK12WPEFramework4Core9TimerTypeINS0_10WorkerPool5TimerEE9TimedInfoIS3_E12ScheduleTimeEv
FN:118,121,_ZN12WPEFramework4Core9TimerTypeINS0_10WorkerPool5TimerEE9TimedInfoIS3_E12ScheduleTimeEm
FN:123,126,_ZN12WPEFramework4Core9TimerTypeINS0_10WorkerPool5TimerEE9TimedInfoIS3_E7ContentEv
FN:139,143,_ZN12WPEFramework4Core9TimerTypeINS0_10WorkerPool5TimerEE10TimeWorkerC2ERS4_jPKc
FN:144,144,_ZN12WPEFramework4Core9TimerTypeINS0_10WorkerPool5TimerEE10TimeWorkerD0Ev
FN:144,144,_ZN12WPEFramework4Core9TimerTypeINS0_10WorkerPool5TimerEE10TimeWorkerD2Ev
FN:146,149,_ZN12WPEFramework4Core9TimerTypeINS0_10WorkerPool5TimerEE10TimeWorker6WorkerEv
FN:162,173,_ZN12WPEFramework4Core9TimerTypeINS0_10WorkerPool5TimerEEC2EjPKc
FN:174,186,_ZN12WPEFramework4Core9TimerTypeINS0_10WorkerPool5TimerEED2Ev
FN:188,191,_ZN12WPEFramework4Core9TimerTypeINS0_10WorkerPool5TimerEE8ScheduleERKNS0_4TimeEOS3_
FN:198,201,_ZN12WPEFramework4Core9TimerTypeINS0_10WorkerPool5TimerEE8ScheduleERKmOS3_
FN:220,238,_ZNK12WPEFramework4Core9TimerTypeINS0_10WorkerPool5TimerEE8HasEntryERKS3_
FN:241,250,_ZN12WPEFramework4Core9TimerTypeINS0_10WorkerPool5TimerEE8ScheduleEONS4_9TimedInfoIS3_EE
FN:276,319,_ZN12WPEFramework4Core9TimerTypeINS0_10WorkerPool5TimerEE6RevokeERKS3_
FN:326,329,_ZNK12WPEFramework4Core9TimerTypeINS0_10WorkerPool5TimerEE7PendingEv
FN:331,334,_ZNK12WPEFramework4Core9TimerTypeINS0_10WorkerPool5TimerEE8ThreadIdEv
FN:337,394,_ZN12WPEFramework4Core9TimerTypeINS0_10WorkerPool5TimerEE7ProcessEv
FN:397,418,_ZN12WPEFramework4Core9TimerTypeINS0_10WorkerPool5TimerEE13ScheduleEntryEONS4_9TimedInfoIS3_EE
FN:66,70,_ZN12WPEFramework4Core9TimerTypeINS0_10WorkerPool5TimerEE9TimedInfoIS3_EC2EmOS3_
FN:78,82,_ZN12WPEFramework4Core9TimerTypeINS0_10WorkerPool5TimerEE9TimedInfoIS3_EC2EOS6_
FN:84,86,_ZN12WPEFramework4Core9TimerTypeINS0_10WorkerPool5TimerEE9TimedInfoIS3_ED2Ev
FN:92,95,_ZNK12WPEFramework4Core9TimerTypeINS0_10WorkerPool5TimerEE9TimedInfoIS3_EneERKS3_
FNDA:0,_ZNK12WPEFramework4Core9TimerTypeINS0_10WorkerPool5TimerEE9TimedInfoIS3_E12ScheduleTimeEv
FNDA:0,_ZN12WPEFramework4Core9TimerTypeINS0_10WorkerPool5TimerEE9TimedInfoIS3_E12ScheduleTimeEm
FNDA:0,_ZN12WPEFramework4Core9TimerTypeINS0_10WorkerPool5TimerEE9TimedInfoIS3_E7ContentEv
FNDA:1,_ZN12WPEFramework4Core9TimerTypeINS0_10WorkerPool5TimerEE10TimeWorkerC2ERS4_jPKc
FNDA:0,_ZN12WPEFramework4Core9TimerTypeINS0_10WorkerPool5TimerEE10TimeWorkerD0Ev
FNDA:1,_ZN12WPEFramework4Core9TimerTypeINS0_10WorkerPool5TimerEE10TimeWorkerD2Ev
FNDA:0,_ZN12WPEFramework4Core9TimerTypeINS0_10WorkerPool5TimerEE10TimeWorker6WorkerEv
FNDA:1,_ZN12WPEFramework4Core9TimerTypeINS0_10WorkerPool5TimerEEC2EjPKc
FNDA:1,_ZN12WPEFramework4Core9TimerTypeINS0_10WorkerPool5TimerEED2Ev
FNDA:0,_ZN12WPEFramework4Core9TimerTypeINS0_10WorkerPool5TimerEE8ScheduleERKNS0_4TimeEOS3_
FNDA:0,_ZN12WPEFramework4Core9TimerTypeINS0_10WorkerPool5TimerEE8ScheduleERKmOS3_
FNDA:2,_ZNK12WPEFramework4Core9TimerTypeINS0_10WorkerPool5TimerEE8HasEntryERKS3_
FNDA:0,_ZN12WPEFramework4Core9TimerTypeINS0_10WorkerPool5TimerEE8ScheduleEONS4_9TimedInfoIS3_EE
FNDA:0,_ZN12WPEFramework4Core9TimerTypeINS0_10WorkerPool5TimerEE6RevokeERKS3_
FNDA:0,_ZNK12WPEFramework4Core9TimerTypeINS0_10WorkerPool5TimerEE7PendingEv
FNDA:0,_ZNK12WPEFramework4Core9TimerTypeINS0_10WorkerPool5TimerEE8ThreadIdEv
FNDA:0,_ZN12WPEFramework4Core9TimerTypeINS0_10WorkerPool5TimerEE7ProcessEv
FNDA:0,_ZN12WPEFramework4Core9TimerTypeINS0_10WorkerPool5TimerEE13ScheduleEntryEONS4_9TimedInfoIS3_EE
FNDA:0,_ZN12WPEFramework4Core9TimerTypeINS0_10WorkerPool5TimerEE9TimedInfoIS3_EC2EmOS3_
FNDA:0,_ZN12WPEFramework4Core9TimerTypeINS0_10WorkerPool5TimerEE9TimedInfoIS3_EC2EOS6_
FNDA:0,_ZN12WPEFramework4Core9TimerTypeINS0_10WorkerPool5TimerEE9TimedInfoIS3_ED2Ev
FNDA:0,_ZNK12WPEFramework4Core9TimerTypeINS0_10WorkerPool5TimerEE9TimedInfoIS3_EneERKS3_
FNF:22
FNH:5
DA:66,0
DA:67,0
DA:68,0
DA:70,0
DA:78,0
DA:79,0
DA:80,0
DA:82,0
DA:84,0
DA:86,0
DA:92,0
DA:94,0
DA:113,0
DA:115,0
DA:118,0
DA:120,0
DA:121,0
DA:123,0
DA:125,0
DA:139,1
DA:141,1
DA:143,1
DA:144,1
DA:146,0
DA:148,0
DA:162,1
DA:163,1
DA:164,1
DA:165,1
DA:166,1
DA:167,1
DA:168,1
DA:172,1
DA:173,1
DA:174,1
DA:176,1
DA:178,1
DA:181,1
DA:183,1
DA:185,1
DA:186,1
DA:188,0
DA:190,0
DA:191,0
DA:198,0
DA:200,0
DA:201,0
DA:220,2
DA:223,2
DA:225,2
DA:228,2
DA:229,0
DA:232,2
DA:235,2
DA:237,2
DA:241,0
DA:243,0
DA:245,0
DA:246,0
DA:249,0
DA:250,0
DA:276,0
DA:278,0
DA:280,0
DA:282,0
DA:285,0
DA:287,0
DA:289,0
DA:291,0
DA:294,0
DA:296,0
DA:298,0
DA:299,0
DA:300,0
DA:301,0
DA:304,0
DA:307,0
DA:311,0
DA:313,0
DA:316,0
DA:318,0
DA:326,0
DA:328,0
DA:331,0
DA:333,0
DA:337,0
DA:339,0
DA:340,0
DA:342,0
DA:346,0
DA:348,0
DA:349,0
DA:350,0
DA:353,0
DA:354,0
DA:356,0
DA:358,0
DA:360,0
DA:362,0
DA:363,0
DA:365,0
DA:366,0
DA:369,0
DA:370,0
DA:374,0
DA:375,0
DA:378,0
DA:380,0
DA:381,0
DA:382,0
DA:386,0
DA:387,0
DA:391,0
DA:393,0
DA:397,0
DA:399,0
DA:400,0
DA:402,0
DA:403,0
DA:406,0
DA:407,0
DA:410,0
DA:411,0
DA:412,0
DA:414,0
DA:417,0
LF:126
LH:27
end_of_record
TN:
SF:/home/kavia/workspace/code-generation/app-gateway2/dependencies/install/include/WPEFramework/core/WorkerPool.h
FN:124,128,_ZN12WPEFramework4Core10WorkerPool5TimerC2ERKS2_
FN:129,133,_ZN12WPEFramework4Core10WorkerPool5TimerC2EPNS0_11IWorkerPoolERKNS0_9ProxyTypeINS0_9IDispatchEEE
FN:134,136,_ZN12WPEFramework4Core10WorkerPool5TimerD2Ev
FN:139,142,_ZNK12WPEFramework4Core10WorkerPool5TimereqERKS2_
FN:143,146,_ZNK12WPEFramework4Core10WorkerPool5TimerneERKS2_
FN:147,155,_ZN12WPEFramework4Core10WorkerPool5Timer5TimedEm
FN:167,168,_ZN12WPEFramework4Core10WorkerPool9SchedulerC2EPNS0_11IWorkerPoolERNS0_9TimerTypeINS1_5TimerEEE
FN:169,169,_ZN12WPEFramework4Core10WorkerPool9SchedulerD0Ev
FN:169,169,_ZN12WPEFramework4Core10WorkerPool9SchedulerD2Ev
FN:173,175,_ZN12WPEFramework4Core10WorkerPool9Scheduler8ScheduleERKNS0_4TimeERKNS0_9ProxyTypeINS0_9IDispatchEEE
FN:31,31,_ZN12WPEFramework4Core11IWorkerPoolD0Ev
FN:31,31,_ZN12WPEFramework4Core11IWorkerPoolD2Ev
FN:311,324,_ZN12WPEFramework4Core10WorkerPoolC2EhjjPNS0_10ThreadPool11IDispatcherEPNS2_9ICallbackE
FN:327,331,_ZN12WPEFramework4Core10WorkerPoolD0Ev
FN:327,331,_ZN12WPEFramework4Core10WorkerPoolD2Ev
FN:334,340,_ZN12WPEFramework4Core10WorkerPool6SubmitERKNS0_9ProxyTypeINS0_9IDispatchEEE
FN:341,352,_ZN12WPEFramework4Core10WorkerPool8ScheduleERKNS0_4TimeERKNS0_9ProxyTypeINS0_9IDispatchEEE
FN:353,360,_ZN12WPEFramework4Core10WorkerPool10RescheduleERKNS0_4TimeERKNS0_9ProxyTypeINS0_9IDispatchEEE
FN:361,376,_ZN12WPEFramework4Core10WorkerPool6RevokeERKNS0_9ProxyTypeINS0_9IDispatchEEEj
FN:377,382,_ZN12WPEFramework4Core10WorkerPool4JoinEv
FN:383,396,_ZNK12WPEFramework4Core10WorkerPool2IdEh
FN:397,406,_ZNK12WPEFramework4Core10WorkerPool8SnapshotEv
FN:407,414,_ZN12WPEFramework4Core10WorkerPool3RunEv
FN:415,422,_ZN12WPEFramework4Core10WorkerPool4StopEv
FNDA:0,_ZN12WPEFramework4Core10WorkerPool5TimerC2ERKS2_
FNDA:2,_ZN12WPEFramework4Core10WorkerPool5TimerC2EPNS0_11IWorkerPoolERKNS0_9ProxyTypeINS0_9IDispatchEEE
FNDA:2,_ZN12WPEFramework4Core10WorkerPool5TimerD2Ev
FNDA:0,_ZNK12WPEFramework4Core10WorkerPool5TimereqERKS2_
FNDA:0,_ZNK12WPEFramework4Core10WorkerPool5TimerneERKS2_
FNDA:0,_ZN12WPEFramework4Core10WorkerPool5Timer5TimedEm
FNDA:1,_ZN12WPEFramework4Core10WorkerPool9SchedulerC2EPNS0_11IWorkerPoolERNS0_9TimerTypeINS1_5TimerEEE
FNDA:0,_ZN12WPEFramework4Core10WorkerPool9SchedulerD0Ev
FNDA:1,_ZN12WPEFramework4Core10WorkerPool9SchedulerD2Ev
FNDA:0,_ZN12WPEFramework4Core10WorkerPool9Scheduler8ScheduleERKNS0_4TimeERKNS0_9ProxyTypeINS0_9IDispatchEEE
FNDA:0,_ZN12WPEFramework4Core11IWorkerPoolD0Ev
FNDA:1,_ZN12WPEFramework4Core11IWorkerPoolD2Ev
FNDA:1,_ZN12WPEFramework4Core10WorkerPoolC2EhjjPNS0_10ThreadPool11IDispatcherEPNS2_9ICallbackE
FNDA:1,_ZN12WPEFramework4Core10WorkerPoolD0Ev
FNDA:1,_ZN12WPEFramework4Core10WorkerPoolD2Ev
FNDA:2,_ZN12WPEFramework4Core10WorkerPool6SubmitERKNS0_9ProxyTypeINS0_9IDispatchEEE
FNDA:0,_ZN12WPEFramework4Core10WorkerPool8ScheduleERKNS0_4TimeERKNS0_9ProxyTypeINS0_9IDispatchEEE
FNDA:0,_ZN12WPEFramework4Core10WorkerPool10RescheduleERKNS0_4TimeERKNS0_9ProxyTypeINS0_9IDispatchEEE
FNDA:0,_ZN12WPEFramework4Core10WorkerPool6RevokeERKNS0_9ProxyTypeINS0_9IDispatchEEEj
FNDA:0,_ZN12WPEFramework4Core10WorkerPool4JoinEv
FNDA:0,_ZNK12WPEFramework4Core10WorkerPool2IdEh
FNDA:0,_ZNK12WPEFramework4Core10WorkerPool8SnapshotEv
FNDA:1,_ZN12WPEFramework4Core10WorkerPool3RunEv
FNDA:1,_ZN12WPEFramework4Core10WorkerPool4StopEv
FNF:24
FNH:11
DA:31,1
DA:124,0
DA:125,0
DA:126,0
DA:128,0
DA:129,2
DA:130,2
DA:131,2
DA:133,2
DA:134,2
DA:136,2
DA:139,0
DA:141,0
DA:143,0
DA:145,0
DA:147,0
DA:149,0
DA:150,0
DA:151,0
DA:154,0
DA:167,1
DA:168,1
DA:169,1
DA:173,0
DA:174,0
DA:175,0
DA:311,1
DA:312,2
DA:313,1
DA:314,1
DA:315,1
DA:316,1
DA:317,1
DA:322,1
DA:323,5
DA:324,1
DA:327,2
DA:328,1
DA:329,1
DA:330,5
DA:331,2
DA:334,2
DA:337,2
DA:339,2
DA:340,2
DA:341,0
DA:343,0
DA:344,0
DA:345,0
DA:347,0
DA:350,0
DA:352,0
DA:353,0
DA:355,0
DA:357,0
DA:358,0
DA:359,0
DA:361,0
DA:363,0
DA:365,0
DA:367,0
DA:368,0
DA:370,0
DA:371,0
DA:375,0
DA:377,0
DA:379,0
DA:380,0
DA:381,0
DA:382,0
DA:383,0
DA:385,0
DA:387,0
DA:388,0
DA:389,0
DA:390,0
DA:391,0
DA:392,0
DA:395,0
DA:397,0
DA:399,0
DA:400,0
DA:401,0
DA:402,0
DA:403,0
DA:404,0
DA:405,0
DA:407,1
DA:409,1
DA:414,1
DA:415,1
DA:421,1
DA:422,1
LF:93
LH:35
end_of_record
TN:
SF:/home/kavia/workspace/code-generation/app-gateway2/dependencies/install/include/WPEFramework/interfaces/IConfiguration.h
FNF:0
FNH:0
LF:0
LH:0
end_of_record
TN:
SF:/home/kavia/workspace/code-generation/app-gateway2/dependencies/install/include/WPEFramework/plugins/IShell.h
FN:382,385,_ZNK12WPEFramework10PluginHost6IShell21GetLibrarySearchPathsERKNSt7__cxx1112basic_stringIcSt11char_traitsIcESaIcEEE
FN:51,51,_ZN12WPEFramework10PluginHost6IShell8ICOMLinkD0Ev
FN:51,51,_ZN12WPEFramework10PluginHost6IShell8ICOMLinkD2Ev
FNDA:0,_ZNK12WPEFramework10PluginHost6IShell21GetLibrarySearchPathsERKNSt7__cxx1112basic_stringIcSt11char_traitsIcESaIcEEE
FNDA:0,_ZN12WPEFramework10PluginHost6IShell8ICOMLinkD0Ev
FNDA:3,_ZN12WPEFramework10PluginHost6IShell8ICOMLinkD2Ev
FNF:3
FNH:1
DA:51,3
DA:382,0
DA:384,0
LF:3
LH:1
end_of_record
TN:
SF:/home/kavia/workspace/code-generation/app-gateway2/dependencies/install/include/WPEFramework/plugins/JSONRPC.h
FN:113,129,_ZN12WPEFramework10PluginHost7JSONRPC8Observer11UnsubscribeEjRKNSt7__cxx1112basic_stringIcSt11char_traitsIcESaIcEEE
FN:130,139,_ZN12WPEFramework10PluginHost7JSONRPC8Observer9SubscribeEPNS0_11IDispatcher9ICallbackE
FN:140,149,_ZN12WPEFramework10PluginHost7JSONRPC8Observer11UnsubscribeEPKNS0_11IDispatcher9ICallbackE
FN:151,162,_ZN12WPEFramework10PluginHost7JSONRPC8Observer7DroppedIZNS1_7DroppedEjEUlRKNSt7__cxx1112basic_stringIcSt11char_traitsIcESaIcEEEE_EEvjT_
FN:163,172,_ZN12WPEFramework10PluginHost7JSONRPC8Observer5EventERS1_NSt7__cxx1112basic_stringIcSt11char_traitsIcESaIcEEERKS9_OSt8functionIFbSB_EE
FN:234,241,_ZN12WPEFramework10PluginHost7JSONRPC12RegistrationC2Ev
FN:242,242,_ZN12WPEFramework10PluginHost7JSONRPC12RegistrationD0Ev
FN:242,242,_ZN12WPEFramework10PluginHost7JSONRPC12RegistrationD2Ev
FN:35,42,_ZN12WPEFramework10PluginHost12_GLOBAL__N_115InvokeOnHandlerIRKSt8functionIFiRKNS_4Core7JSONRPC7ContextERKNSt7__cxx1112basic_stringIcSt11char_traitsIcESaIcEEESG_jRSE_EEEEjS8_SG_SG_SH_RNS5_7HandlerET_
FN:436,448,_ZNK12WPEFramework10PluginHost7JSONRPC8ValidateERKNSt7__cxx1112basic_stringIcSt11char_traitsIcESaIcEEES9_S9_
FN:44,47,_ZN12WPEFramework10PluginHost12_GLOBAL__N_115InvokeOnHandlerIPvEEjRKNS_4Core7JSONRPC7ContextERKNSt7__cxx1112basic_stringIcSt11char_traitsIcESaIcEEESG_RSE_RNS5_7HandlerET_
FN:450,453,_ZN12WPEFramework10PluginHost7JSONRPC6InvokeEPNS0_11IDispatcher9ICallbackEjjRKNSt7__cxx1112basic_stringIcSt11char_traitsIcESaIcEEESC_SC_RSA_
FN:456,479,_ZN12WPEFramework10PluginHost7JSONRPC13InvokeHandlerIPvEEjPNS0_11IDispatcher9ICallbackEjjRKNSt7__cxx1112basic_stringIcSt11char_traitsIcESaIcEEESE_SE_RSC_T_
FN:480,486,_ZN12WPEFramework10PluginHost7JSONRPC6RevokeEPNS0_11IDispatcher9ICallbackE
FN:487,489,_ZN12WPEFramework10PluginHost7JSONRPC5LocalEv
FN:493,529,_ZN12WPEFramework10PluginHost7JSONRPC6InvokeEjjRKNSt7__cxx1112basic_stringIcSt11char_traitsIcESaIcEEES9_S9_RS7_
FN:530,538,_ZN12WPEFramework10PluginHost7JSONRPC8ActivateEPNS0_6IShellE
FN:539,549,_ZN12WPEFramework10PluginHost7JSONRPC10DeactivateEv
FN:550,571,_ZN12WPEFramework10PluginHost7JSONRPC7DroppedEj
FN:559,559,_ZZN12WPEFramework10PluginHost7JSONRPC7DroppedEjENKUlRKNSt7__cxx1112basic_stringIcSt11char_traitsIcESaIcEEEE_clES9_
FN:575,588,_ZN12WPEFramework10PluginHost7JSONRPC5EventERKNSt7__cxx1112basic_stringIcSt11char_traitsIcESaIcEEES9_
FN:589,600,_ZN12WPEFramework10PluginHost7JSONRPC5ErrorEjjjRKNSt7__cxx1112basic_stringIcSt11char_traitsIcESaIcEEE
FN:601,611,_ZN12WPEFramework10PluginHost7JSONRPC8ResponseEjjRKNSt7__cxx1112basic_stringIcSt11char_traitsIcESaIcEEE
FN:612,615,_ZN12WPEFramework10PluginHost7JSONRPC9SubscribeEjRKNSt7__cxx1112basic_stringIcSt11char_traitsIcESaIcEEES9_
FN:616,639,_ZN12WPEFramework10PluginHost7JSONRPC11UnsubscribeEjRKNSt7__cxx1112basic_stringIcSt11char_traitsIcESaIcEEES9_
FN:642,664,_ZN12WPEFramework10PluginHost7JSONRPC11DoSubscribeEjRKNSt7__cxx1112basic_stringIcSt11char_traitsIcESaIcEEES9_
FN:667,670,_ZN12WPEFramework10PluginHost7JSONRPC16ProcessSubscribeEjRKNSt7__cxx1112basic_stringIcSt11char_traitsIcESaIcEEES9_
FN:672,674,_ZN12WPEFramework10PluginHost7JSONRPC19ProcessUnsubscribedEjRKNSt7__cxx1112basic_stringIcSt11char_traitsIcESaIcEEES9_
FN:698,711,_ZN12WPEFramework10PluginHost7JSONRPC7HandlerERKNSt7__cxx1112basic_stringIcSt11char_traitsIcESaIcEEE
FN:71,74,_ZN12WPEFramework10PluginHost7JSONRPC8ObserverC2Ev
FN:714,741,_ZN12WPEFramework10PluginHost7JSONRPC9SubscribeEPNS0_11IDispatcher9ICallbackEjRKNSt7__cxx1112basic_stringIcSt11char_traitsIcESaIcEEESC_
FN:742,765,_ZN12WPEFramework10PluginHost7JSONRPC11UnsubscribeEPNS0_11IDispatcher9ICallbackEjRKNSt7__cxx1112basic_stringIcSt11char_traitsIcESaIcEEESC_
FN:782,796,_ZN12WPEFramework10PluginHost7JSONRPC6NotifyEjRKNSt7__cxx1112basic_stringIcSt11char_traitsIcESaIcEEES9_
FN:86,90,_ZN12WPEFramework10PluginHost7JSONRPC8ObserverD2Ev
FN:93,95,_ZNK12WPEFramework10PluginHost7JSONRPC8Observer7IsEmptyEv
FN:96,112,_ZN12WPEFramework10PluginHost7JSONRPC8Observer9SubscribeEjRKNSt7__cxx1112basic_stringIcSt11char_traitsIcESaIcEEE
FNDA:0,_ZN12WPEFramework10PluginHost7JSONRPC8Observer11UnsubscribeEjRKNSt7__cxx1112basic_stringIcSt11char_traitsIcESaIcEEE
FNDA:0,_ZN12WPEFramework10PluginHost7JSONRPC8Observer9SubscribeEPNS0_11IDispatcher9ICallbackE
FNDA:0,_ZN12WPEFramework10PluginHost7JSONRPC8Observer11UnsubscribeEPKNS0_11IDispatcher9ICallbackE
FNDA:0,_ZN12WPEFramework10PluginHost7JSONRPC8Observer7DroppedIZNS1_7DroppedEjEUlRKNSt7__cxx1112basic_stringIcSt11char_traitsIcESaIcEEEE_EEvjT_
FNDA:0,_ZN12WPEFramework10PluginHost7JSONRPC8Observer5EventERS1_NSt7__cxx1112basic_stringIcSt11char_traitsIcESaIcEEERKS9_OSt8functionIFbSB_EE
FNDA:0,_ZN12WPEFramework10PluginHost7JSONRPC12RegistrationC2Ev
FNDA:0,_ZN12WPEFramework10PluginHost7JSONRPC12RegistrationD0Ev
FNDA:0,_ZN12WPEFramework10PluginHost7JSONRPC12RegistrationD2Ev
FNDA:0,_ZN12WPEFramework10PluginHost12_GLOBAL__N_115InvokeOnHandlerIRKSt8functionIFiRKNS_4Core7JSONRPC7ContextERKNSt7__cxx1112basic_stringIcSt11char_traitsIcESaIcEEESG_jRSE_EEEEjS8_SG_SG_SH_RNS5_7HandlerET_
FNDA:0,_ZNK12WPEFramework10PluginHost7JSONRPC8ValidateERKNSt7__cxx1112basic_stringIcSt11char_traitsIcESaIcEEES9_S9_
FNDA:21,_ZN12WPEFramework10PluginHost12_GLOBAL__N_115InvokeOnHandlerIPvEEjRKNS_4Core7JSONRPC7ContextERKNSt7__cxx1112basic_stringIcSt11char_traitsIcESaIcEEESG_RSE_RNS5_7HandlerET_
FNDA:23,_ZN12WPEFramework10PluginHost7JSONRPC6InvokeEPNS0_11IDispatcher9ICallbackEjjRKNSt7__cxx1112basic_stringIcSt11char_traitsIcESaIcEEESC_SC_RSA_
FNDA:23,_ZN12WPEFramework10PluginHost7JSONRPC13InvokeHandlerIPvEEjPNS0_11IDispatcher9ICallbackEjjRKNSt7__cxx1112basic_stringIcSt11char_traitsIcESaIcEEESE_SE_RSC_T_
FNDA:0,_ZN12WPEFramework10PluginHost7JSONRPC6RevokeEPNS0_11IDispatcher9ICallbackE
FNDA:0,_ZN12WPEFramework10PluginHost7JSONRPC5LocalEv
FNDA:0,_ZN12WPEFramework10PluginHost7JSONRPC6InvokeEjjRKNSt7__cxx1112basic_stringIcSt11char_traitsIcESaIcEEES9_S9_RS7_
FNDA:0,_ZN12WPEFramework10PluginHost7JSONRPC8ActivateEPNS0_6IShellE
FNDA:0,_ZN12WPEFramework10PluginHost7JSONRPC10DeactivateEv
FNDA:0,_ZN12WPEFramework10PluginHost7JSONRPC7DroppedEj
FNDA:0,_ZZN12WPEFramework10PluginHost7JSONRPC7DroppedEjENKUlRKNSt7__cxx1112basic_stringIcSt11char_traitsIcESaIcEEEE_clES9_
FNDA:0,_ZN12WPEFramework10PluginHost7JSONRPC5EventERKNSt7__cxx1112basic_stringIcSt11char_traitsIcESaIcEEES9_
FNDA:0,_ZN12WPEFramework10PluginHost7JSONRPC5ErrorEjjjRKNSt7__cxx1112basic_stringIcSt11char_traitsIcESaIcEEE
FNDA:0,_ZN12WPEFramework10PluginHost7JSONRPC8ResponseEjjRKNSt7__cxx1112basic_stringIcSt11char_traitsIcESaIcEEE
FNDA:0,_ZN12WPEFramework10PluginHost7JSONRPC9SubscribeEjRKNSt7__cxx1112basic_stringIcSt11char_traitsIcESaIcEEES9_
FNDA:0,_ZN12WPEFramework10PluginHost7JSONRPC11UnsubscribeEjRKNSt7__cxx1112basic_stringIcSt11char_traitsIcESaIcEEES9_
FNDA:0,_ZN12WPEFramework10PluginHost7JSONRPC11DoSubscribeEjRKNSt7__cxx1112basic_stringIcSt11char_traitsIcESaIcEEES9_
FNDA:0,_ZN12WPEFramework10PluginHost7JSONRPC16ProcessSubscribeEjRKNSt7__cxx1112basic_stringIcSt11char_traitsIcESaIcEEES9_
FNDA:0,_ZN12WPEFramework10PluginHost7JSONRPC19ProcessUnsubscribedEjRKNSt7__cxx1112basic_stringIcSt11char_traitsIcESaIcEEES9_
FNDA:49,_ZN12WPEFramework10PluginHost7JSONRPC7HandlerERKNSt7__cxx1112basic_stringIcSt11char_traitsIcESaIcEEE
FNDA:0,_ZN12WPEFramework10PluginHost7JSONRPC8ObserverC2Ev
FNDA:0,_ZN12WPEFramework10PluginHost7JSONRPC9SubscribeEPNS0_11IDispatcher9ICallbackEjRKNSt7__cxx1112basic_stringIcSt11char_traitsIcESaIcEEESC_
FNDA:0,_ZN12WPEFramework10PluginHost7JSONRPC11UnsubscribeEPNS0_11IDispatcher9ICallbackEjRKNSt7__cxx1112basic_stringIcSt11char_traitsIcESaIcEEESC_
FNDA:0,_ZN12WPEFramework10PluginHost7JSONRPC6NotifyEjRKNSt7__cxx1112basic_stringIcSt11char_traitsIcESaIcEEES9_
FNDA:0,_ZN12WPEFramework10PluginHost7JSONRPC8ObserverD2Ev
FNDA:0,_ZNK12WPEFramework10PluginHost7JSONRPC8Observer7IsEmptyEv
FNDA:0,_ZN12WPEFramework10PluginHost7JSONRPC8Observer9SubscribeEjRKNSt7__cxx1112basic_stringIcSt11char_traitsIcESaIcEEE
FNF:36
FNH:4
DA:35,0
DA:37,0
DA:38,0
DA:39,0
DA:41,0
DA:44,21
DA:46,21
DA:71,0
DA:72,0
DA:73,0
DA:74,0
DA:86,0
DA:87,0
DA:88,0
DA:90,0
DA:93,0
DA:94,0
DA:96,0
DA:97,0
DA:99,0
DA:100,0
DA:101,0
DA:104,0
DA:105,0
DA:108,0
DA:111,0
DA:113,0
DA:114,0
DA:116,0
DA:117,0
DA:118,0
DA:121,0
DA:122,0
DA:125,0
DA:128,0
DA:130,0
DA:131,0
DA:133,0
DA:135,0
DA:136,0
DA:137,0
DA:139,0
DA:140,0
DA:141,0
DA:143,0
DA:145,0
DA:146,0
DA:147,0
DA:149,0
DA:151,0
DA:152,0
DA:153,0
DA:154,0
DA:155,0
DA:156,0
DA:159,0
DA:162,0
DA:163,0
DA:164,0
DA:165,0
DA:166,0
DA:169,0
DA:170,0
DA:172,0
DA:234,0
DA:235,0
DA:236,0
DA:237,0
DA:239,0
DA:240,0
DA:241,0
DA:242,0
DA:436,0
DA:438,0
DA:439,0
DA:440,0
DA:441,0
DA:443,0
DA:444,0
DA:447,0
DA:450,23
DA:452,23
DA:456,23
DA:458,23
DA:459,23
DA:460,23
DA:462,23
DA:463,0
DA:465,23
DA:466,0
DA:467,0
DA:468,0
DA:471,0
DA:474,23
DA:475,21
DA:476,21
DA:477,21
DA:478,23
DA:479,23
DA:480,0
DA:482,0
DA:483,0
DA:485,0
DA:487,0
DA:488,0
DA:493,0
DA:494,0
DA:496,0
DA:500,0
DA:502,0
DA:503,0
DA:505,0
DA:506,0
DA:507,0
DA:510,0
DA:512,0
DA:513,0
DA:514,0
DA:516,0
DA:517,0
DA:518,0
DA:521,0
DA:523,0
DA:525,0
DA:528,0
DA:529,0
DA:530,0
DA:532,0
DA:533,0
DA:535,0
DA:536,0
DA:537,0
DA:538,0
DA:539,0
DA:541,0
DA:542,0
DA:543,0
DA:545,0
DA:546,0
DA:547,0
DA:549,0
DA:550,0
DA:552,0
DA:554,0
DA:556,0
DA:558,0
DA:559,0
DA:561,0
DA:562,0
DA:565,0
DA:570,0
DA:571,0
DA:575,0
DA:576,0
DA:578,0
DA:580,0
DA:581,0
DA:584,0
DA:586,0
DA:589,0
DA:590,0
DA:592,0
DA:594,0
DA:595,0
DA:596,0
DA:597,0
DA:599,0
DA:600,0
DA:601,0
DA:602,0
DA:604,0
DA:606,0
DA:607,0
DA:608,0
DA:610,0
DA:611,0
DA:612,0
DA:614,0
DA:616,0
DA:618,0
DA:620,0
DA:622,0
DA:624,0
DA:625,0
DA:627,0
DA:629,0
DA:631,0
DA:632,0
DA:636,0
DA:638,0
DA:642,0
DA:644,0
DA:646,0
DA:648,0
DA:649,0
DA:650,0
DA:651,0
DA:655,0
DA:657,0
DA:658,0
DA:661,0
DA:663,0
DA:667,0
DA:669,0
DA:672,0
DA:674,0
DA:698,49
DA:699,49
DA:701,49
DA:703,49
DA:705,49
DA:706,0
DA:707,0
DA:710,98
DA:711,49
DA:714,0
DA:715,0
DA:719,0
DA:721,0
DA:724,0
DA:726,0
DA:728,0
DA:729,0
DA:730,0
DA:731,0
DA:734,0
DA:736,0
DA:738,0
DA:740,0
DA:742,0
DA:743,0
DA:745,0
DA:747,0
DA:750,0
DA:752,0
DA:754,0
DA:755,0
DA:757,0
DA:758,0
DA:762,0
DA:764,0
DA:782,0
DA:784,0
DA:786,0
DA:788,0
DA:789,0
DA:792,0
DA:793,0
DA:795,0
DA:796,0
LF:250
LH:23
end_of_record
TN:
SF:/home/kavia/workspace/code-generation/app-gateway2/helpers/rdkservices-comcast/helpers/StringUtils.h
FN:30,35,_ZN11StringUtils7toLowerERKNSt7__cxx1112basic_stringIcSt11char_traitsIcESaIcEEE
FN:33,33,_ZZN11StringUtils7toLowerERKNSt7__cxx1112basic_stringIcSt11char_traitsIcESaIcEEEENKUlhE_clEh
FN:37,41,_ZN11StringUtils16rfindInsensitiveERKNSt7__cxx1112basic_stringIcSt11char_traitsIcESaIcEEES7_
FNDA:402,_ZN11StringUtils7toLowerERKNSt7__cxx1112basic_stringIcSt11char_traitsIcESaIcEEE
FNDA:10500,_ZZN11StringUtils7toLowerERKNSt7__cxx1112basic_stringIcSt11char_traitsIcESaIcEEEENKUlhE_clEh
FNDA:5,_ZN11StringUtils16rfindInsensitiveERKNSt7__cxx1112basic_stringIcSt11char_traitsIcESaIcEEES7_
FNF:3
FNH:3
DA:30,402
DA:31,402
DA:32,402
DA:33,10500
DA:34,402
DA:37,5
DA:38,5
DA:39,5
DA:40,10
DA:41,5
LF:10
LH:10
end_of_record
TN:
SF:/home/kavia/workspace/code-generation/app-gateway2/interfaces/IApp2AppProvider.h
FNF:0
FNH:0
LF:0
LH:0
end_of_record
TN:
SF:/home/kavia/workspace/code-generation/app-gateway2/interfaces/IAppGateway.h
FN:160,160,_ZN12WPEFramework8Exchange20IAppGatewayResponder13INotification22OnAppConnectionChangedERKNSt7__cxx1112basic_stringIcSt11char_traitsIcESaIcEEEjb
FNDA:0,_ZN12WPEFramework8Exchange20IAppGatewayResponder13INotification22OnAppConnectionChangedERKNSt7__cxx1112basic_stringIcSt11char_traitsIcESaIcEEEjb
FNF:1
FNH:0
DA:160,0
LF:1
LH:0
end_of_record
TN:
SF:/home/kavia/workspace/code-generation/app-gateway2/interfaces/IAppNotifications.h
FNF:0
FNH:0
LF:0
LH:0
end_of_record
TN:
SF:/home/kavia/workspace/code-generation/app-gateway2/plugin/AppGateway/AppGateway.h
FN:52,52,_ZNK12WPEFramework6Plugin10AppGateway11InformationB5cxx11Ev
FN:54,59,_ZN12WPEFramework6Plugin10AppGateway14QueryInterfaceEj
FNDA:0,_ZNK12WPEFramework6Plugin10AppGateway11InformationB5cxx11Ev
FNDA:51,_ZN12WPEFramework6Plugin10AppGateway14QueryInterfaceEj
FNF:2
FNH:1
DA:52,0
DA:54,51
DA:55,51
DA:56,24
DA:57,7
DA:58,5
DA:59,0
LF:7
LH:5
end_of_record
TN:
SF:/home/kavia/workspace/code-generation/app-gateway2/plugin/AppGateway/AppGatewayImplementation.h
FN:48,51,_ZN12WPEFramework6Plugin24AppGatewayImplementation14QueryInterfaceEj
FNDA:6,_ZN12WPEFramework6Plugin24AppGatewayImplementation14QueryInterfaceEj
FNF:1
FNH:1
DA:48,6
DA:49,6
DA:50,3
DA:51,0
LF:4
LH:3
end_of_record
TN:
SF:/home/kavia/workspace/code-generation/app-gateway2/tests/l0/appgateway/l0test/AppGatewayTest.cpp
FN:102,106,_ZNK12_GLOBAL__N_116NullMessageStore7DefaultERKN12WPEFramework4Core9Messaging8MetadataE
FN:108,112,_ZN12_GLOBAL__N_116NullMessageStore4PushERKN12WPEFramework4Core9Messaging11MessageInfoEPKNS3_6IEventE
FN:117,126,_ZN12_GLOBAL__N_115L0TestBootstrapC2Ev
FN:128,133,_ZN12_GLOBAL__N_115L0TestBootstrapD2Ev
FN:139,156,_ZN12_GLOBAL__N_115L0TestBootstrap28InitializeWorkerPoolIfNeededEv
FN:158,177,_ZN12_GLOBAL__N_115L0TestBootstrap29DeinitializeWorkerPoolIfOwnedEv
FN:179,187,_ZN12_GLOBAL__N_115L0TestBootstrap27InitializeMessagingIfNeededEv
FN:189,197,_ZN12_GLOBAL__N_115L0TestBootstrap28DeinitializeMessagingIfOwnedEv
FN:212,218,_ZN12_GLOBAL__N_110ExpectTrueERNS_10TestResultEbRKNSt7__cxx1112basic_stringIcSt11char_traitsIcESaIcEEE
FN:220,226,_ZN12_GLOBAL__N_111ExpectEqU32ERNS_10TestResultEjjRKNSt7__cxx1112basic_stringIcSt11char_traitsIcESaIcEEE
FN:228,234,_ZN12_GLOBAL__N_111ExpectEqStrERNS_10TestResultERKNSt7__cxx1112basic_stringIcSt11char_traitsIcESaIcEEES9_S9_
FN:240,244,_ZN12_GLOBAL__N_116PluginAndServiceC2ERKN6L0Test11ServiceMock6ConfigE
FN:246,256,_ZN12_GLOBAL__N_116PluginAndServiceD2Ev
FN:259,282,_ZN12_GLOBAL__N_1L17ResolveParamsJsonERKNSt7__cxx1112basic_stringIcSt11char_traitsIcESaIcEEES7_
FN:286,302,_ZL38Test_Initialize_Deinitialize_HappyPathv
FN:304,328,_ZL27Test_JsonRpcResolve_Successv
FN:330,359,_ZL27Test_DirectResolver_Successv
FN:361,382,_ZL38Test_JsonRpcResolve_Error_NotPermittedv
FN:384,405,_ZL38Test_JsonRpcResolve_Error_NotSupportedv
FN:407,428,_ZL38Test_JsonRpcResolve_Error_NotAvailablev
FN:430,451,_ZL40Test_JsonRpcResolve_Error_MalformedInputv
FN:453,479,_ZL60Test_JsonRpcResolve_Error_MissingHandler_WhenResolverMissingv
FN:481,515,_ZL29Test_ContextUtils_Conversionsv
FN:517,600,main
FN:65,65,_ZN12_GLOBAL__N_118TestOnlyDispatcherC2Ev
FN:66,66,_ZN12_GLOBAL__N_118TestOnlyDispatcherD0Ev
FN:66,66,_ZN12_GLOBAL__N_118TestOnlyDispatcherD2Ev
FN:71,74,_ZN12_GLOBAL__N_118TestOnlyDispatcher10InitializeEv
FN:76,79,_ZN12_GLOBAL__N_118TestOnlyDispatcher12DeinitializeEv
FN:81,86,_ZN12_GLOBAL__N_118TestOnlyDispatcher8DispatchEPN12WPEFramework4Core9IDispatchE
FN:96,96,_ZN12_GLOBAL__N_116NullMessageStoreC2Ev
FN:97,97,_ZN12_GLOBAL__N_116NullMessageStoreD0Ev
FN:97,97,_ZN12_GLOBAL__N_116NullMessageStoreD2Ev
FNDA:0,_ZNK12_GLOBAL__N_116NullMessageStore7DefaultERKN12WPEFramework4Core9Messaging8MetadataE
FNDA:0,_ZN12_GLOBAL__N_116NullMessageStore4PushERKN12WPEFramework4Core9Messaging11MessageInfoEPKNS3_6IEventE
FNDA:1,_ZN12_GLOBAL__N_115L0TestBootstrapC2Ev
FNDA:1,_ZN12_GLOBAL__N_115L0TestBootstrapD2Ev
FNDA:1,_ZN12_GLOBAL__N_115L0TestBootstrap28InitializeWorkerPoolIfNeededEv
FNDA:1,_ZN12_GLOBAL__N_115L0TestBootstrap29DeinitializeWorkerPoolIfOwnedEv
FNDA:1,_ZN12_GLOBAL__N_115L0TestBootstrap27InitializeMessagingIfNeededEv
FNDA:1,_ZN12_GLOBAL__N_115L0TestBootstrap28DeinitializeMessagingIfOwnedEv
FNDA:9,_ZN12_GLOBAL__N_110ExpectTrueERNS_10TestResultEbRKNSt7__cxx1112basic_stringIcSt11char_traitsIcESaIcEEE
FNDA:15,_ZN12_GLOBAL__N_111ExpectEqU32ERNS_10TestResultEjjRKNSt7__cxx1112basic_stringIcSt11char_traitsIcESaIcEEE
FNDA:15,_ZN12_GLOBAL__N_111ExpectEqStrERNS_10TestResultERKNSt7__cxx1112basic_stringIcSt11char_traitsIcESaIcEEES9_S9_
FNDA:8,_ZN12_GLOBAL__N_116PluginAndServiceC2ERKN6L0Test11ServiceMock6ConfigE
FNDA:8,_ZN12_GLOBAL__N_116PluginAndServiceD2Ev
FNDA:5,_ZN12_GLOBAL__N_1L17ResolveParamsJsonERKNSt7__cxx1112basic_stringIcSt11char_traitsIcESaIcEEES7_
FNDA:1,_ZL38Test_Initialize_Deinitialize_HappyPathv
FNDA:1,_ZL27Test_JsonRpcResolve_Successv
FNDA:1,_ZL27Test_DirectResolver_Successv
FNDA:1,_ZL38Test_JsonRpcResolve_Error_NotPermittedv
FNDA:1,_ZL38Test_JsonRpcResolve_Error_NotSupportedv
FNDA:1,_ZL38Test_JsonRpcResolve_Error_NotAvailablev
FNDA:1,_ZL40Test_JsonRpcResolve_Error_MalformedInputv
FNDA:1,_ZL60Test_JsonRpcResolve_Error_MissingHandler_WhenResolverMissingv
FNDA:1,_ZL29Test_ContextUtils_Conversionsv
FNDA:1,main
FNDA:1,_ZN12_GLOBAL__N_118TestOnlyDispatcherC2Ev
FNDA:1,_ZN12_GLOBAL__N_118TestOnlyDispatcherD0Ev
FNDA:1,_ZN12_GLOBAL__N_118TestOnlyDispatcherD2Ev
FNDA:2,_ZN12_GLOBAL__N_118TestOnlyDispatcher10InitializeEv
FNDA:2,_ZN12_GLOBAL__N_118TestOnlyDispatcher12DeinitializeEv
FNDA:2,_ZN12_GLOBAL__N_118TestOnlyDispatcher8DispatchEPN12WPEFramework4Core9IDispatchE
FNDA:1,_ZN12_GLOBAL__N_116NullMessageStoreC2Ev
FNDA:1,_ZN12_GLOBAL__N_116NullMessageStoreD0Ev
FNDA:1,_ZN12_GLOBAL__N_116NullMessageStoreD2Ev
FNF:33
FNH:31
DA:65,1
DA:66,2
DA:71,2
DA:74,2
DA:76,2
DA:79,2
DA:81,2
DA:83,2
DA:84,2
DA:86,2
DA:96,1
DA:97,2
DA:102,0
DA:105,0
DA:108,0
DA:112,0
DA:117,1
DA:118,1
DA:119,1
DA:120,1
DA:121,1
DA:122,1
DA:124,1
DA:125,1
DA:126,1
DA:128,1
DA:131,1
DA:132,1
DA:133,1
DA:139,1
DA:142,1
DA:144,1
DA:145,1
DA:146,1
DA:148,1
DA:149,1
DA:151,1
DA:152,1
DA:154,1
DA:156,1
DA:158,1
DA:160,1
DA:162,1
DA:163,1
DA:167,1
DA:169,1
DA:170,1
DA:172,1
DA:173,1
DA:175,1
DA:177,1
DA:179,1
DA:182,1
DA:183,1
DA:184,1
DA:185,1
DA:187,1
DA:189,1
DA:191,1
DA:192,1
DA:193,1
DA:194,1
DA:195,1
DA:197,1
DA:212,9
DA:214,9
DA:215,0
DA:216,0
DA:218,9
DA:220,15
DA:222,15
DA:223,0
DA:224,0
DA:226,15
DA:228,15
DA:230,15
DA:231,0
DA:232,0
DA:234,15
DA:240,8
DA:241,8
DA:242,8
DA:244,8
DA:246,8
DA:248,8
DA:249,8
DA:250,8
DA:252,8
DA:253,8
DA:254,8
DA:256,8
DA:259,5
DA:270,5
DA:272,10
DA:273,10
DA:274,10
DA:275,10
DA:276,10
DA:277,10
DA:278,10
DA:279,10
DA:280,10
DA:281,10
DA:282,5
DA:286,1
DA:288,1
DA:289,1
DA:291,1
DA:292,3
DA:294,1
DA:295,1
DA:296,1
DA:297,1
DA:300,1
DA:301,1
DA:302,1
DA:304,1
DA:306,1
DA:307,1
DA:309,1
DA:310,3
DA:312,1
DA:313,1
DA:314,1
DA:315,3
DA:317,1
DA:318,5
DA:320,2
DA:321,3
DA:323,1
DA:324,1
DA:326,1
DA:327,1
DA:328,1
DA:330,1
DA:332,1
DA:333,1
DA:335,1
DA:336,3
DA:339,1
DA:341,1
DA:342,1
DA:343,1
DA:344,1
DA:345,1
DA:346,1
DA:348,1
DA:349,7
DA:351,2
DA:352,3
DA:354,1
DA:355,1
DA:357,1
DA:358,1
DA:359,1
DA:361,1
DA:363,1
DA:364,1
DA:366,1
DA:367,3
DA:369,1
DA:370,1
DA:371,1
DA:372,3
DA:373,1
DA:374,5
DA:376,1
DA:377,1
DA:378,1
DA:380,1
DA:381,1
DA:382,1
DA:384,1
DA:386,1
DA:387,1
DA:389,1
DA:390,3
DA:392,1
DA:393,1
DA:394,1
DA:395,3
DA:396,1
DA:397,5
DA:399,1
DA:400,1
DA:401,1
DA:403,1
DA:404,1
DA:405,1
DA:407,1
DA:409,1
DA:410,1
DA:412,1
DA:413,3
DA:415,1
DA:416,1
DA:417,1
DA:418,3
DA:419,1
DA:420,5
DA:422,1
DA:423,1
DA:424,1
DA:426,1
DA:427,1
DA:428,1
DA:430,1
DA:432,1
DA:433,1
DA:435,1
DA:436,3
DA:438,1
DA:439,1
DA:440,1
DA:441,1
DA:442,1
DA:443,5
DA:445,1
DA:446,1
DA:447,1
DA:449,1
DA:450,1
DA:451,1
DA:453,1
DA:455,1
DA:459,1
DA:461,1
DA:462,1
DA:464,1
DA:465,1
DA:466,1
DA:467,3
DA:468,1
DA:469,5
DA:472,1
DA:473,1
DA:474,1
DA:477,1
DA:478,1
DA:479,1
DA:481,1
DA:483,1
DA:485,1
DA:486,1
DA:487,1
DA:488,1
DA:490,1
DA:492,1
DA:493,2
DA:494,2
DA:495,2
DA:496,1
DA:498,1
DA:499,2
DA:500,2
DA:501,1
DA:503,1
DA:504,2
DA:505,2
DA:506,2
DA:507,1
DA:509,1
DA:510,2
DA:511,2
DA:512,1
DA:514,1
DA:515,1
DA:517,1
DA:521,1
DA:532,1
DA:575,1
DA:577,32
DA:578,31
DA:579,31
DA:580,31
DA:581,31
DA:583,0
DA:585,31
DA:591,1
DA:593,1
DA:594,1
DA:595,1
DA:598,0
DA:599,0
DA:600,1
LF:285
LH:272
end_of_record
TN:
SF:/home/kavia/workspace/code-generation/app-gateway2/tests/l0/appgateway/l0test/AppGateway_Init_DeinitTests.cpp
FN:140,173,_Z32Test_Initialize_Twice_Idempotentv
FN:176,224,_Z31Test_Deinitialize_Twice_NoCrashv
FN:227,282,_Z44Test_JsonRpc_Registration_And_Unregistrationv
FN:25,30,_ZN12_GLOBAL__N_1L10ExpectTrueERNS_10TestResultEbRKNSt7__cxx1112basic_stringIcSt11char_traitsIcESaIcEEE
FN:32,37,_ZN12_GLOBAL__N_1L11ExpectEqU32ERNS_10TestResultEjjRKNSt7__cxx1112basic_stringIcSt11char_traitsIcESaIcEEE
FN:39,44,_ZN12_GLOBAL__N_1L11ExpectEqStrERNS_10TestResultERKNSt7__cxx1112basic_stringIcSt11char_traitsIcESaIcEEES9_S9_
FN:50,54,_ZN12_GLOBAL__N_116PluginAndServiceC2ERKN6L0Test11ServiceMock6ConfigE
FN:56,66,_ZN12_GLOBAL__N_116PluginAndServiceD2Ev
FN:69,85,_ZN12_GLOBAL__N_1L17ResolveParamsJsonERKNSt7__cxx1112basic_stringIcSt11char_traitsIcESaIcEEES7_
FN:90,130,_Z40Test_Initialize_WithValidConfig_Succeedsv
FNDA:1,_Z32Test_Initialize_Twice_Idempotentv
FNDA:1,_Z31Test_Deinitialize_Twice_NoCrashv
FNDA:1,_Z44Test_JsonRpc_Registration_And_Unregistrationv
FNDA:3,_ZN12_GLOBAL__N_1L10ExpectTrueERNS_10TestResultEbRKNSt7__cxx1112basic_stringIcSt11char_traitsIcESaIcEEE
FNDA:0,_ZN12_GLOBAL__N_1L11ExpectEqU32ERNS_10TestResultEjjRKNSt7__cxx1112basic_stringIcSt11char_traitsIcESaIcEEE
FNDA:0,_ZN12_GLOBAL__N_1L11ExpectEqStrERNS_10TestResultERKNSt7__cxx1112basic_stringIcSt11char_traitsIcESaIcEEES9_S9_
FNDA:6,_ZN12_GLOBAL__N_116PluginAndServiceC2ERKN6L0Test11ServiceMock6ConfigE
FNDA:6,_ZN12_GLOBAL__N_116PluginAndServiceD2Ev
FNDA:3,_ZN12_GLOBAL__N_1L17ResolveParamsJsonERKNSt7__cxx1112basic_stringIcSt11char_traitsIcESaIcEEES7_
FNDA:1,_Z40Test_Initialize_WithValidConfig_Succeedsv
FNF:10
FNH:8
DA:25,3
DA:26,3
DA:27,0
DA:28,0
DA:30,3
DA:32,0
DA:33,0
DA:34,0
DA:35,0
DA:37,0
DA:39,0
DA:40,0
DA:41,0
DA:42,0
DA:44,0
DA:50,6
DA:51,6
DA:52,6
DA:54,6
DA:56,6
DA:58,6
DA:59,6
DA:60,6
DA:62,6
DA:63,6
DA:64,6
DA:66,6
DA:69,3
DA:73,3
DA:75,6
DA:76,6
DA:77,6
DA:78,6
DA:79,6
DA:80,6
DA:81,6
DA:82,6
DA:83,6
DA:84,6
DA:85,3
DA:90,1
DA:100,1
DA:103,1
DA:106,1
DA:108,1
DA:109,1
DA:111,0
DA:115,1
DA:116,1
DA:117,1
DA:118,3
DA:119,1
DA:120,4
DA:122,1
DA:123,0
DA:125,1
DA:126,1
DA:128,1
DA:129,1
DA:130,1
DA:140,1
DA:143,1
DA:147,1
DA:148,1
DA:153,1
DA:155,0
DA:158,1
DA:159,1
DA:163,1
DA:164,1
DA:165,1
DA:167,0
DA:169,1
DA:170,1
DA:172,1
DA:176,1
DA:192,1
DA:196,1
DA:197,1
DA:202,1
DA:204,0
DA:207,1
DA:208,1
DA:214,1
DA:215,1
DA:216,1
DA:218,0
DA:220,1
DA:221,1
DA:223,1
DA:227,1
DA:236,1
DA:238,1
DA:240,1
DA:241,1
DA:243,0
DA:246,1
DA:248,1
DA:249,1
DA:250,1
DA:251,1
DA:252,3
DA:253,4
DA:254,1
DA:255,0
DA:257,1
DA:258,1
DA:261,1
DA:264,1
DA:265,1
DA:266,1
DA:267,1
DA:268,3
DA:269,4
DA:272,1
DA:273,0
DA:274,0
DA:277,1
DA:278,1
DA:281,1
DA:282,1
LF:121
LH:99
end_of_record
TN:
SF:/home/kavia/workspace/code-generation/app-gateway2/tests/l0/appgateway/l0test/AppGateway_JsonRpcResolveTests.cpp
FN:106,148,_ZN12_GLOBAL__N_1L22BuildResolveParamsJsonEbbbbbbRKNSt7__cxx1112basic_stringIcSt11char_traitsIcESaIcEEES7_S7_S7_
FN:119,123,_ZZN12_GLOBAL__N_1L22BuildResolveParamsJsonEbbbbbbRKNSt7__cxx1112basic_stringIcSt11char_traitsIcESaIcEEES7_S7_S7_ENKUlS7_S7_E_clES7_S7_
FN:124,128,_ZZN12_GLOBAL__N_1L22BuildResolveParamsJsonEbbbbbbRKNSt7__cxx1112basic_stringIcSt11char_traitsIcESaIcEEES7_S7_S7_ENKUlS7_S7_E0_clES7_S7_
FN:129,133,_ZZN12_GLOBAL__N_1L22BuildResolveParamsJsonEbbbbbbRKNSt7__cxx1112basic_stringIcSt11char_traitsIcESaIcEEES7_S7_S7_ENKUlS7_S7_E1_clES7_S7_
FN:153,179,_Z30Test_Resolve_HappyPath_JSONRPCv
FN:182,237,_Z37Test_Resolve_MissingFields_BadRequestv
FN:240,267,_Z46Test_Resolve_ParamsEmpty_DefaultsToEmptyObjectv
FN:270,305,_Z43Test_Resolve_ImplementationError_Propagatesv
FN:37,42,_ZN12_GLOBAL__N_1L10ExpectTrueERNS_10TestResultEbRKNSt7__cxx1112basic_stringIcSt11char_traitsIcESaIcEEE
FN:44,49,_ZN12_GLOBAL__N_1L11ExpectEqU32ERNS_10TestResultEjjRKNSt7__cxx1112basic_stringIcSt11char_traitsIcESaIcEEE
FN:51,56,_ZN12_GLOBAL__N_1L14ExpectNotEmptyERNS_10TestResultERKNSt7__cxx1112basic_stringIcSt11char_traitsIcESaIcEEES9_
FN:62,65,_ZN12_GLOBAL__N_116PluginAndServiceC2ERKN6L0Test11ServiceMock6ConfigE
FN:67,76,_ZN12_GLOBAL__N_116PluginAndServiceD2Ev
FN:81,95,_ZN12_GLOBAL__N_1L23CheckResolutionsEnvOnceEv
FNDA:9,_ZN12_GLOBAL__N_1L22BuildResolveParamsJsonEbbbbbbRKNSt7__cxx1112basic_stringIcSt11char_traitsIcESaIcEEES7_S7_S7_
FNDA:16,_ZZN12_GLOBAL__N_1L22BuildResolveParamsJsonEbbbbbbRKNSt7__cxx1112basic_stringIcSt11char_traitsIcESaIcEEES7_S7_S7_ENKUlS7_S7_E_clES7_S7_
FNDA:24,_ZZN12_GLOBAL__N_1L22BuildResolveParamsJsonEbbbbbbRKNSt7__cxx1112basic_stringIcSt11char_traitsIcESaIcEEES7_S7_S7_ENKUlS7_S7_E0_clES7_S7_
FNDA:9,_ZZN12_GLOBAL__N_1L22BuildResolveParamsJsonEbbbbbbRKNSt7__cxx1112basic_stringIcSt11char_traitsIcESaIcEEES7_S7_S7_ENKUlS7_S7_E1_clES7_S7_
FNDA:1,_Z30Test_Resolve_HappyPath_JSONRPCv
FNDA:1,_Z37Test_Resolve_MissingFields_BadRequestv
FNDA:1,_Z46Test_Resolve_ParamsEmpty_DefaultsToEmptyObjectv
FNDA:1,_Z43Test_Resolve_ImplementationError_Propagatesv
FNDA:8,_ZN12_GLOBAL__N_1L10ExpectTrueERNS_10TestResultEbRKNSt7__cxx1112basic_stringIcSt11char_traitsIcESaIcEEE
FNDA:9,_ZN12_GLOBAL__N_1L11ExpectEqU32ERNS_10TestResultEjjRKNSt7__cxx1112basic_stringIcSt11char_traitsIcESaIcEEE
FNDA:2,_ZN12_GLOBAL__N_1L14ExpectNotEmptyERNS_10TestResultERKNSt7__cxx1112basic_stringIcSt11char_traitsIcESaIcEEES9_
FNDA:4,_ZN12_GLOBAL__N_116PluginAndServiceC2ERKN6L0Test11ServiceMock6ConfigE
FNDA:4,_ZN12_GLOBAL__N_116PluginAndServiceD2Ev
FNDA:4,_ZN12_GLOBAL__N_1L23CheckResolutionsEnvOnceEv
FNF:14
FNH:14
DA:37,8
DA:38,8
DA:39,0
DA:40,0
DA:42,8
DA:44,9
DA:45,9
DA:46,0
DA:47,0
DA:49,9
DA:51,2
DA:52,2
DA:53,0
DA:54,0
DA:56,2
DA:62,4
DA:63,4
DA:64,4
DA:65,4
DA:67,4
DA:68,4
DA:69,4
DA:70,4
DA:72,4
DA:73,4
DA:74,4
DA:76,4
DA:81,4
DA:83,4
DA:84,3
DA:86,1
DA:87,1
DA:88,1
DA:90,0
DA:93,1
DA:106,9
DA:116,9
DA:117,9
DA:119,16
DA:120,16
DA:121,16
DA:122,16
DA:123,16
DA:124,24
DA:125,24
DA:126,24
DA:127,24
DA:128,24
DA:129,9
DA:130,9
DA:131,9
DA:132,9
DA:133,9
DA:135,41
DA:136,41
DA:137,25
DA:138,25
DA:139,25
DA:141,9
DA:142,11
DA:143,9
DA:144,9
DA:146,9
DA:147,18
DA:148,0
DA:153,1
DA:155,1
DA:156,1
DA:158,1
DA:159,1
DA:160,1
DA:162,1
DA:163,1
DA:164,1
DA:167,7
DA:169,1
DA:170,5
DA:172,2
DA:173,1
DA:174,1
DA:175,1
DA:177,1
DA:178,1
DA:179,1
DA:182,1
DA:184,1
DA:185,1
DA:187,1
DA:188,1
DA:189,1
DA:191,1
DA:192,1
DA:193,1
DA:194,1
DA:197,1
DA:199,7
DA:200,5
DA:201,1
DA:202,1
DA:204,1
DA:206,7
DA:207,5
DA:208,1
DA:209,1
DA:211,1
DA:213,7
DA:214,5
DA:215,1
DA:216,1
DA:218,1
DA:220,7
DA:221,5
DA:222,1
DA:223,1
DA:225,1
DA:227,7
DA:228,5
DA:229,1
DA:230,1
DA:232,1
DA:233,1
DA:235,1
DA:236,1
DA:237,1
DA:240,1
DA:242,1
DA:243,1
DA:245,1
DA:246,1
DA:247,1
DA:249,1
DA:250,1
DA:251,1
DA:255,7
DA:257,1
DA:258,5
DA:260,2
DA:261,1
DA:262,1
DA:263,1
DA:265,1
DA:266,1
DA:267,1
DA:270,1
DA:272,1
DA:273,1
DA:275,1
DA:276,1
DA:277,1
DA:279,1
DA:280,1
DA:281,1
DA:282,1
DA:285,1
DA:287,7
DA:288,5
DA:289,1
DA:290,1
DA:293,1
DA:295,7
DA:296,5
DA:297,1
DA:298,1
DA:300,1
DA:301,1
DA:303,1
DA:304,1
DA:305,1
LF:168
LH:160
end_of_record
TN:
SF:/home/kavia/workspace/code-generation/app-gateway2/tests/l0/appgateway/l0test/ContextUtils.h
FN:36,43,_ZN12ContextUtils38ConvertNotificationToAppGatewayContextERKN12WPEFramework8Exchange17IAppNotifications22AppNotificationContextE
FN:46,54,_ZN12ContextUtils38ConvertAppGatewayToNotificationContextERKN12WPEFramework8Exchange14GatewayContextERKNSt7__cxx1112basic_stringIcSt11char_traitsIcESaIcEEE
FN:57,65,_ZN12ContextUtils34ConvertAppGatewayToProviderContextERKN12WPEFramework8Exchange14GatewayContextERKNSt7__cxx1112basic_stringIcSt11char_traitsIcESaIcEEE
FN:68,75,_ZN12ContextUtils34ConvertProviderToAppGatewayContextERKN12WPEFramework8Exchange16IApp2AppProvider7ContextE
FN:77,80,_ZN12ContextUtils15IsOriginGatewayERKNSt7__cxx1112basic_stringIcSt11char_traitsIcESaIcEEE
FNDA:4,_ZN12ContextUtils38ConvertNotificationToAppGatewayContextERKN12WPEFramework8Exchange17IAppNotifications22AppNotificationContextE
FNDA:4,_ZN12ContextUtils38ConvertAppGatewayToNotificationContextERKN12WPEFramework8Exchange14GatewayContextERKNSt7__cxx1112basic_stringIcSt11char_traitsIcESaIcEEE
FNDA:4,_ZN12ContextUtils34ConvertAppGatewayToProviderContextERKN12WPEFramework8Exchange14GatewayContextERKNSt7__cxx1112basic_stringIcSt11char_traitsIcESaIcEEE
FNDA:4,_ZN12ContextUtils34ConvertProviderToAppGatewayContextERKN12WPEFramework8Exchange16IApp2AppProvider7ContextE
FNDA:5,_ZN12ContextUtils15IsOriginGatewayERKNSt7__cxx1112basic_stringIcSt11char_traitsIcESaIcEEE
FNF:5
FNH:5
DA:36,4
DA:38,4
DA:39,4
DA:40,4
DA:41,4
DA:42,4
DA:43,0
DA:46,4
DA:48,4
DA:49,4
DA:50,4
DA:51,4
DA:52,4
DA:53,4
DA:54,0
DA:57,4
DA:59,4
DA:60,4
DA:61,4
DA:62,4
DA:63,4
DA:64,4
DA:65,0
DA:68,4
DA:70,4
DA:71,4
DA:72,4
DA:73,4
DA:74,4
DA:75,0
DA:77,5
DA:79,10
LF:32
LH:28
end_of_record
TN:
SF:/home/kavia/workspace/code-generation/app-gateway2/tests/l0/appgateway/l0test/ContextUtils_ConversionTests.cpp
FN:200,244,_Z41Test_Json_Boundary_RequestId_ConnectionIdv
FN:247,281,_Z41Test_Json_Params_Empty_Equals_EmptyObjectv
FN:26,31,_ZN12_GLOBAL__N_1L10ExpectTrueERNS_10TestResultEbRKNSt7__cxx1112basic_stringIcSt11char_traitsIcESaIcEEE
FN:284,310,_Z31Test_Json_EmptyAppId_BadRequestv
FN:32,37,_ZN12_GLOBAL__N_1L11ExpectEqU32ERNS_10TestResultEjjRKNSt7__cxx1112basic_stringIcSt11char_traitsIcESaIcEEE
FN:38,43,_ZN12_GLOBAL__N_1L11ExpectEqStrERNS_10TestResultERKNSt7__cxx1112basic_stringIcSt11char_traitsIcESaIcEEES9_S9_
FN:46,68,_ZN12_GLOBAL__N_1L22BuildResolveParamsJsonEjjRKNSt7__cxx1112basic_stringIcSt11char_traitsIcESaIcEEES7_S7_S7_
FN:74,77,_ZN12_GLOBAL__N_116PluginAndServiceC2ERKN6L0Test11ServiceMock6ConfigE
FN:79,88,_ZN12_GLOBAL__N_116PluginAndServiceD2Ev
FN:94,197,_Z44Test_ContextUtils_BoundaryValues_Conversionsv
FNDA:1,_Z41Test_Json_Boundary_RequestId_ConnectionIdv
FNDA:1,_Z41Test_Json_Params_Empty_Equals_EmptyObjectv
FNDA:6,_ZN12_GLOBAL__N_1L10ExpectTrueERNS_10TestResultEbRKNSt7__cxx1112basic_stringIcSt11char_traitsIcESaIcEEE
FNDA:1,_Z31Test_Json_EmptyAppId_BadRequestv
FNDA:21,_ZN12_GLOBAL__N_1L11ExpectEqU32ERNS_10TestResultEjjRKNSt7__cxx1112basic_stringIcSt11char_traitsIcESaIcEEE
FNDA:22,_ZN12_GLOBAL__N_1L11ExpectEqStrERNS_10TestResultERKNSt7__cxx1112basic_stringIcSt11char_traitsIcESaIcEEES9_S9_
FNDA:5,_ZN12_GLOBAL__N_1L22BuildResolveParamsJsonEjjRKNSt7__cxx1112basic_stringIcSt11char_traitsIcESaIcEEES7_S7_S7_
FNDA:3,_ZN12_GLOBAL__N_116PluginAndServiceC2ERKN6L0Test11ServiceMock6ConfigE
FNDA:3,_ZN12_GLOBAL__N_116PluginAndServiceD2Ev
FNDA:1,_Z44Test_ContextUtils_BoundaryValues_Conversionsv
FNF:10
FNH:10
DA:26,6
DA:27,6
DA:28,0
DA:29,0
DA:31,6
DA:32,21
DA:33,21
DA:34,0
DA:35,0
DA:37,21
DA:38,22
DA:39,22
DA:40,0
DA:41,0
DA:43,22
DA:46,5
DA:57,7
DA:59,5
DA:60,5
DA:61,5
DA:62,5
DA:63,5
DA:64,5
DA:65,5
DA:66,5
DA:67,10
DA:68,5
DA:74,3
DA:75,3
DA:76,3
DA:77,3
DA:79,3
DA:80,3
DA:81,3
DA:82,3
DA:84,3
DA:85,3
DA:86,3
DA:88,3
DA:94,1
DA:101,1
DA:105,1
DA:106,1
DA:107,1
DA:108,1
DA:110,1
DA:112,1
DA:113,2
DA:114,2
DA:115,2
DA:116,1
DA:118,1
DA:119,2
DA:120,2
DA:121,1
DA:123,1
DA:124,2
DA:125,2
DA:126,2
DA:127,1
DA:129,1
DA:130,2
DA:131,2
DA:132,1
DA:133,1
DA:137,1
DA:138,1
DA:139,1
DA:140,1
DA:142,1
DA:144,1
DA:145,2
DA:146,2
DA:147,2
DA:148,1
DA:150,1
DA:151,2
DA:152,2
DA:153,1
DA:155,1
DA:156,2
DA:157,2
DA:158,2
DA:159,1
DA:161,1
DA:162,2
DA:163,2
DA:164,1
DA:165,1
DA:169,1
DA:170,1
DA:171,1
DA:172,1
DA:174,1
DA:176,1
DA:177,3
DA:179,1
DA:180,3
DA:182,1
DA:183,3
DA:185,1
DA:186,3
DA:187,1
DA:191,4
DA:192,4
DA:193,3
DA:196,1
DA:200,1
DA:206,1
DA:208,1
DA:209,1
DA:210,3
DA:212,1
DA:213,1
DA:215,1
DA:216,2
DA:217,2
DA:218,2
DA:222,1
DA:223,1
DA:224,5
DA:225,2
DA:226,3
DA:227,1
DA:231,1
DA:232,1
DA:233,1
DA:234,5
DA:235,2
DA:236,3
DA:237,1
DA:239,1
DA:240,1
DA:242,1
DA:243,1
DA:244,1
DA:247,1
DA:251,1
DA:253,1
DA:254,1
DA:255,3
DA:257,1
DA:258,1
DA:260,1
DA:261,2
DA:262,2
DA:263,2
DA:265,2
DA:266,1
DA:268,1
DA:269,1
DA:270,4
DA:271,5
DA:273,2
DA:274,2
DA:275,1
DA:276,1
DA:277,1
DA:279,1
DA:280,1
DA:281,1
DA:284,1
DA:288,1
DA:290,1
DA:291,1
DA:292,3
DA:294,1
DA:295,1
DA:297,1
DA:298,2
DA:299,2
DA:301,3
DA:302,1
DA:303,5
DA:304,1
DA:305,1
DA:306,1
DA:308,1
DA:309,1
DA:310,1
LF:180
LH:174
end_of_record
TN:
SF:/home/kavia/workspace/code-generation/app-gateway2/tests/l0/appgateway/l0test/Resolver_Configure_And_ResolveTests.cpp
FN:102,104,_ZNK12_GLOBAL__N_120SimpleStringIterator5CountEv
FN:105,110,_ZNK12_GLOBAL__N_120SimpleStringIterator7CurrentEv
FN:118,137,_ZN12_GLOBAL__N_1L9EnsureDirERKNSt7__cxx1112basic_stringIcSt11char_traitsIcESaIcEEE
FN:139,155,_ZN12_GLOBAL__N_1L13WriteTextFileERKNSt7__cxx1112basic_stringIcSt11char_traitsIcESaIcEEES7_
FN:157,182,_ZN12_GLOBAL__N_1L38ComputeBaseResolutionsPathFromThisFileEv
FN:185,191,_ZN12_GLOBAL__N_1L11MakeContextEv
FN:197,200,_ZN12_GLOBAL__N_116PluginAndServiceC2ERKN6L0Test11ServiceMock6ConfigE
FN:201,204,_ZN12_GLOBAL__N_116PluginAndServiceD2Ev
FN:210,244,_Z44Test_Resolver_Configure_WithBaseOnly_LoadsOKv
FN:247,279,_Z52Test_Resolver_Configure_WithOverride_TakesPrecedencev
FN:282,327,_Z51Test_Resolver_Resolve_UnknownMethod_ReturnsNotFoundv
FN:30,35,_ZN12_GLOBAL__N_1L10ExpectTrueERNS_10TestResultEbRKNSt7__cxx1112basic_stringIcSt11char_traitsIcESaIcEEE
FN:330,361,_Z55Test_Resolver_Resolve_MalformedParams_ReturnsBadRequestv
FN:36,41,_ZN12_GLOBAL__N_1L11ExpectEqU32ERNS_10TestResultEjjRKNSt7__cxx1112basic_stringIcSt11char_traitsIcESaIcEEE
FN:364,397,_Z48Test_Resolver_Configure_InvalidJson_ReturnsErrorv
FN:42,47,_ZN12_GLOBAL__N_1L14ExpectNotEmptyERNS_10TestResultERKNSt7__cxx1112basic_stringIcSt11char_traitsIcESaIcEEES9_
FN:52,53,_ZN12_GLOBAL__N_120SimpleStringIteratorC1ERKSt6vectorINSt7__cxx1112basic_stringIcSt11char_traitsIcESaIcEEESaIS7_EE
FN:54,54,_ZN12_GLOBAL__N_120SimpleStringIteratorD0Ev
FN:54,54,_ZN12_GLOBAL__N_120SimpleStringIteratorD1Ev
FN:56,58,_ZNK12_GLOBAL__N_120SimpleStringIterator6AddRefEv
FN:59,66,_ZNK12_GLOBAL__N_120SimpleStringIterator7ReleaseEv
FN:67,73,_ZN12_GLOBAL__N_120SimpleStringIterator14QueryInterfaceEj
FN:75,81,_ZN12_GLOBAL__N_120SimpleStringIterator4NextERNSt7__cxx1112basic_stringIcSt11char_traitsIcESaIcEEE
FN:82,89,_ZN12_GLOBAL__N_120SimpleStringIterator8PreviousERNSt7__cxx1112basic_stringIcSt11char_traitsIcESaIcEEE
FN:90,98,_ZN12_GLOBAL__N_120SimpleStringIterator5ResetEj
FN:99,101,_ZNK12_GLOBAL__N_120SimpleStringIterator7IsValidEv
FNDA:0,_ZNK12_GLOBAL__N_120SimpleStringIterator5CountEv
FNDA:0,_ZNK12_GLOBAL__N_120SimpleStringIterator7CurrentEv
FNDA:4,_ZN12_GLOBAL__N_1L9EnsureDirERKNSt7__cxx1112basic_stringIcSt11char_traitsIcESaIcEEE
FNDA:2,_ZN12_GLOBAL__N_1L13WriteTextFileERKNSt7__cxx1112basic_stringIcSt11char_traitsIcESaIcEEES7_
FNDA:4,_ZN12_GLOBAL__N_1L38ComputeBaseResolutionsPathFromThisFileEv
FNDA:3,_ZN12_GLOBAL__N_1L11MakeContextEv
FNDA:1,_ZN12_GLOBAL__N_116PluginAndServiceC2ERKN6L0Test11ServiceMock6ConfigE
FNDA:1,_ZN12_GLOBAL__N_116PluginAndServiceD2Ev
FNDA:1,_Z44Test_Resolver_Configure_WithBaseOnly_LoadsOKv
FNDA:1,_Z52Test_Resolver_Configure_WithOverride_TakesPrecedencev
FNDA:1,_Z51Test_Resolver_Resolve_UnknownMethod_ReturnsNotFoundv
FNDA:12,_ZN12_GLOBAL__N_1L10ExpectTrueERNS_10TestResultEbRKNSt7__cxx1112basic_stringIcSt11char_traitsIcESaIcEEE
FNDA:1,_Z55Test_Resolver_Resolve_MalformedParams_ReturnsBadRequestv
FNDA:5,_ZN12_GLOBAL__N_1L11ExpectEqU32ERNS_10TestResultEjjRKNSt7__cxx1112basic_stringIcSt11char_traitsIcESaIcEEE
FNDA:1,_Z48Test_Resolver_Configure_InvalidJson_ReturnsErrorv
FNDA:0,_ZN12_GLOBAL__N_1L14ExpectNotEmptyERNS_10TestResultERKNSt7__cxx1112basic_stringIcSt11char_traitsIcESaIcEEES9_
FNDA:4,_ZN12_GLOBAL__N_120SimpleStringIteratorC1ERKSt6vectorINSt7__cxx1112basic_stringIcSt11char_traitsIcESaIcEEESaIS7_EE
FNDA:4,_ZN12_GLOBAL__N_120SimpleStringIteratorD0Ev
FNDA:4,_ZN12_GLOBAL__N_120SimpleStringIteratorD1Ev
FNDA:0,_ZNK12_GLOBAL__N_120SimpleStringIterator6AddRefEv
FNDA:4,_ZNK12_GLOBAL__N_120SimpleStringIterator7ReleaseEv
FNDA:0,_ZN12_GLOBAL__N_120SimpleStringIterator14QueryInterfaceEj
FNDA:6,_ZN12_GLOBAL__N_120SimpleStringIterator4NextERNSt7__cxx1112basic_stringIcSt11char_traitsIcESaIcEEE
FNDA:0,_ZN12_GLOBAL__N_120SimpleStringIterator8PreviousERNSt7__cxx1112basic_stringIcSt11char_traitsIcESaIcEEE
FNDA:0,_ZN12_GLOBAL__N_120SimpleStringIterator5ResetEj
FNDA:0,_ZNK12_GLOBAL__N_120SimpleStringIterator7IsValidEv
FNF:26
FNH:18
DA:30,12
DA:31,12
DA:32,0
DA:33,0
DA:35,12
DA:36,5
DA:37,5
DA:38,0
DA:39,0
DA:41,5
DA:42,0
DA:43,0
DA:44,0
DA:45,0
DA:47,0
DA:52,4
DA:53,4
DA:54,8
DA:56,0
DA:57,0
DA:59,4
DA:60,4
DA:61,4
DA:62,4
DA:63,4
DA:65,0
DA:67,0
DA:68,0
DA:69,0
DA:70,0
DA:72,0
DA:75,6
DA:76,6
DA:77,3
DA:78,3
DA:80,3
DA:82,0
DA:83,0
DA:84,0
DA:86,0
DA:87,0
DA:88,0
DA:90,0
DA:91,0
DA:92,0
DA:93,0
DA:94,0
DA:96,0
DA:98,0
DA:99,0
DA:100,0
DA:102,0
DA:103,0
DA:105,0
DA:106,0
DA:107,0
DA:109,0
DA:118,4
DA:120,4
DA:121,4
DA:124,0
DA:125,0
DA:129,0
DA:130,0
DA:131,0
DA:132,0
DA:133,0
DA:135,0
DA:136,0
DA:139,2
DA:140,2
DA:141,2
DA:142,2
DA:143,2
DA:144,0
DA:145,0
DA:147,2
DA:148,2
DA:149,2
DA:150,0
DA:151,0
DA:153,2
DA:154,2
DA:155,2
DA:157,4
DA:159,4
DA:160,4
DA:162,4
DA:163,8
DA:172,0
DA:173,0
DA:174,0
DA:175,0
DA:176,0
DA:177,0
DA:178,0
DA:181,0
DA:182,0
DA:185,3
DA:186,3
DA:187,3
DA:188,3
DA:189,3
DA:190,3
DA:191,0
DA:197,1
DA:198,1
DA:199,1
DA:200,1
DA:201,1
DA:202,1
DA:203,1
DA:204,1
DA:210,1
DA:212,1
DA:214,1
DA:217,1
DA:218,1
DA:222,1
DA:224,1
DA:225,1
DA:226,1
DA:227,1
DA:228,1
DA:229,1
DA:230,1
DA:232,1
DA:235,1
DA:236,1
DA:237,7
DA:238,1
DA:239,1
DA:240,1
DA:242,1
DA:243,1
DA:244,1
DA:247,1
DA:249,1
DA:252,1
DA:254,1
DA:255,1
DA:256,2
DA:259,2
DA:260,2
DA:261,2
DA:268,2
DA:269,1
DA:271,1
DA:272,2
DA:274,2
DA:275,1
DA:278,1
DA:279,1
DA:282,1
DA:286,1
DA:290,1
DA:291,1
DA:296,1
DA:299,1
DA:300,1
DA:301,1
DA:302,1
DA:306,3
DA:307,1
DA:308,1
DA:309,1
DA:310,1
DA:313,1
DA:314,1
DA:315,6
DA:318,1
DA:319,0
DA:320,0
DA:324,1
DA:325,1
DA:326,1
DA:327,2
DA:330,1
DA:332,1
DA:335,1
DA:336,1
DA:338,1
DA:339,1
DA:340,1
DA:341,1
DA:342,1
DA:346,3
DA:347,1
DA:348,1
DA:349,1
DA:350,1
DA:353,1
DA:354,1
DA:355,7
DA:357,1
DA:358,1
DA:359,1
DA:360,1
DA:361,2
DA:364,1
DA:366,1
DA:369,1
DA:370,1
DA:372,1
DA:373,1
DA:374,1
DA:375,1
DA:376,1
DA:379,2
DA:380,2
DA:381,2
DA:383,3
DA:385,3
DA:386,1
DA:387,1
DA:388,1
DA:390,1
DA:391,0
DA:392,0
DA:395,1
DA:396,1
DA:397,2
LF:222
LH:157
end_of_record
TN:
SF:/home/kavia/workspace/code-generation/app-gateway2/tests/l0/appgateway/l0test/Responder_BehaviorTests.cpp
FN:100,107,_ZN12_GLOBAL__N_1L11MakeContextEjjRKNSt7__cxx1112basic_stringIcSt11char_traitsIcESaIcEEE
FN:112,153,_Z48Test_Responder_Register_Unregister_Notificationsv
FN:156,191,_Z46Test_Responder_Respond_Success_And_Unavailablev
FN:194,228,_Z43Test_Responder_Emit_Success_And_Unavailablev
FN:231,264,_Z46Test_Responder_Request_Success_And_Unavailablev
FN:24,30,_ZN12_GLOBAL__N_1L10ExpectTrueERNS_10TestResultEbRKNSt7__cxx1112basic_stringIcSt11char_traitsIcESaIcEEE
FN:267,315,_Z60Test_Responder_GetGatewayConnectionContext_Known_And_Unknownv
FN:31,37,_ZN12_GLOBAL__N_1L11ExpectEqU32ERNS_10TestResultEjjRKNSt7__cxx1112basic_stringIcSt11char_traitsIcESaIcEEE
FN:38,44,_ZN12_GLOBAL__N_1L11ExpectEqStrERNS_10TestResultERKNSt7__cxx1112basic_stringIcSt11char_traitsIcESaIcEEES9_S9_
FN:50,54,_ZN12_GLOBAL__N_116PluginAndServiceC2ERKN6L0Test11ServiceMock6ConfigE
FN:56,66,_ZN12_GLOBAL__N_116PluginAndServiceD2Ev
FN:72,72,_ZN12_GLOBAL__N_119ConnChangeCollectorC1Ev
FN:73,73,_ZN12_GLOBAL__N_119ConnChangeCollectorD0Ev
FN:73,73,_ZN12_GLOBAL__N_119ConnChangeCollectorD1Ev
FN:76,76,_ZNK12_GLOBAL__N_119ConnChangeCollector6AddRefEv
FN:77,77,_ZNK12_GLOBAL__N_119ConnChangeCollector7ReleaseEv
FN:78,84,_ZN12_GLOBAL__N_119ConnChangeCollector14QueryInterfaceEj
FN:86,92,_ZN12_GLOBAL__N_119ConnChangeCollector22OnAppConnectionChangedERKNSt7__cxx1112basic_stringIcSt11char_traitsIcESaIcEEEjb
FNDA:2,_ZN12_GLOBAL__N_1L11MakeContextEjjRKNSt7__cxx1112basic_stringIcSt11char_traitsIcESaIcEEE
FNDA:1,_Z48Test_Responder_Register_Unregister_Notificationsv
FNDA:1,_Z46Test_Responder_Respond_Success_And_Unavailablev
FNDA:1,_Z43Test_Responder_Emit_Success_And_Unavailablev
FNDA:1,_Z46Test_Responder_Request_Success_And_Unavailablev
FNDA:6,_ZN12_GLOBAL__N_1L10ExpectTrueERNS_10TestResultEbRKNSt7__cxx1112basic_stringIcSt11char_traitsIcESaIcEEE
FNDA:1,_Z60Test_Responder_GetGatewayConnectionContext_Known_And_Unknownv
FNDA:13,_ZN12_GLOBAL__N_1L11ExpectEqU32ERNS_10TestResultEjjRKNSt7__cxx1112basic_stringIcSt11char_traitsIcESaIcEEE
FNDA:7,_ZN12_GLOBAL__N_1L11ExpectEqStrERNS_10TestResultERKNSt7__cxx1112basic_stringIcSt11char_traitsIcESaIcEEES9_S9_
FNDA:5,_ZN12_GLOBAL__N_116PluginAndServiceC2ERKN6L0Test11ServiceMock6ConfigE
FNDA:5,_ZN12_GLOBAL__N_116PluginAndServiceD2Ev
FNDA:1,_ZN12_GLOBAL__N_119ConnChangeCollectorC1Ev
FNDA:0,_ZN12_GLOBAL__N_119ConnChangeCollectorD0Ev
FNDA:1,_ZN12_GLOBAL__N_119ConnChangeCollectorD1Ev
FNDA:1,_ZNK12_GLOBAL__N_119ConnChangeCollector6AddRefEv
FNDA:1,_ZNK12_GLOBAL__N_119ConnChangeCollector7ReleaseEv
FNDA:0,_ZN12_GLOBAL__N_119ConnChangeCollector14QueryInterfaceEj
FNDA:1,_ZN12_GLOBAL__N_119ConnChangeCollector22OnAppConnectionChangedERKNSt7__cxx1112basic_stringIcSt11char_traitsIcESaIcEEEjb
FNF:18
FNH:16
DA:24,6
DA:26,6
DA:27,0
DA:28,0
DA:30,6
DA:31,13
DA:33,13
DA:34,0
DA:35,0
DA:37,13
DA:38,7
DA:40,7
DA:41,0
DA:42,0
DA:44,7
DA:50,5
DA:51,5
DA:52,5
DA:54,5
DA:56,5
DA:58,5
DA:59,5
DA:60,5
DA:62,5
DA:63,5
DA:64,5
DA:66,5
DA:72,1
DA:73,1
DA:76,1
DA:77,1
DA:78,0
DA:80,0
DA:81,0
DA:83,0
DA:86,1
DA:88,1
DA:89,1
DA:90,1
DA:91,1
DA:92,1
DA:100,2
DA:102,2
DA:103,2
DA:104,2
DA:105,2
DA:106,2
DA:107,0
DA:112,1
DA:114,1
DA:116,1
DA:117,1
DA:118,3
DA:121,1
DA:122,1
DA:124,1
DA:125,1
DA:126,1
DA:127,1
DA:132,1
DA:133,1
DA:134,3
DA:135,2
DA:136,4
DA:137,2
DA:138,1
DA:139,1
DA:140,1
DA:142,0
DA:145,1
DA:146,1
DA:148,1
DA:149,1
DA:151,1
DA:152,1
DA:153,1
DA:156,1
DA:158,1
DA:160,1
DA:161,1
DA:162,3
DA:165,1
DA:166,1
DA:168,1
DA:169,1
DA:171,1
DA:172,3
DA:173,1
DA:176,1
DA:177,1
DA:178,3
DA:179,1
DA:180,1
DA:181,1
DA:183,0
DA:186,1
DA:187,1
DA:189,1
DA:190,1
DA:191,1
DA:194,1
DA:196,1
DA:198,1
DA:199,1
DA:200,3
DA:203,1
DA:204,1
DA:206,1
DA:207,1
DA:209,1
DA:210,5
DA:211,1
DA:213,1
DA:214,1
DA:215,5
DA:216,1
DA:217,1
DA:218,1
DA:220,0
DA:223,1
DA:224,1
DA:226,1
DA:227,1
DA:228,1
DA:231,1
DA:233,1
DA:235,1
DA:236,1
DA:237,3
DA:240,1
DA:241,1
DA:243,1
DA:244,1
DA:246,5
DA:247,1
DA:249,1
DA:250,1
DA:251,5
DA:252,1
DA:253,1
DA:254,1
DA:256,0
DA:259,1
DA:262,1
DA:263,1
DA:264,1
DA:267,1
DA:269,1
DA:271,1
DA:272,1
DA:273,3
DA:276,1
DA:277,1
DA:279,1
DA:280,1
DA:282,1
DA:283,1
DA:284,5
DA:287,0
DA:288,0
DA:289,0
DA:292,1
DA:293,3
DA:294,2
DA:295,3
DA:297,1
DA:298,3
DA:299,1
DA:301,1
DA:302,3
DA:303,1
DA:305,1
DA:306,1
DA:307,1
DA:310,1
DA:311,1
DA:313,1
DA:314,1
DA:315,1
LF:179
LH:161
end_of_record
TN:
SF:/home/kavia/workspace/code-generation/app-gateway2/tests/l0/appgateway/l0test/ServiceMock.h
FN:130,134,_ZN6L0Test13ResponderFakeC1Eb
FN:136,145,_ZN6L0Test13ResponderFakeD0Ev
FN:136,145,_ZN6L0Test13ResponderFakeD1Ev
FN:148,151,_ZNK6L0Test13ResponderFake6AddRefEv
FN:153,161,_ZNK6L0Test13ResponderFake7ReleaseEv
FN:163,179,_ZN6L0Test13ResponderFake14QueryInterfaceEj
FN:182,185,_ZN6L0Test13ResponderFake9ConfigureEPN12WPEFramework10PluginHost6IShellE
FN:188,192,_ZN6L0Test13ResponderFake7RespondERKN12WPEFramework8Exchange14GatewayContextERKNSt7__cxx1112basic_stringIcSt11char_traitsIcESaIcEEE
FN:194,199,_ZN6L0Test13ResponderFake4EmitERKN12WPEFramework8Exchange14GatewayContextERKNSt7__cxx1112basic_stringIcSt11char_traitsIcESaIcEEESD_
FN:201,207,_ZN6L0Test13ResponderFake7RequestEjjRKNSt7__cxx1112basic_stringIcSt11char_traitsIcESaIcEEES8_
FN:209,224,_ZN6L0Test13ResponderFake27GetGatewayConnectionContextEjRKNSt7__cxx1112basic_stringIcSt11char_traitsIcESaIcEEERS6_
FN:226,237,_ZN6L0Test13ResponderFake8RegisterEPN12WPEFramework8Exchange20IAppGatewayResponder13INotificationE
FN:239,252,_ZN6L0Test13ResponderFake10UnregisterEPN12WPEFramework8Exchange20IAppGatewayResponder13INotificationE
FN:255,255,_ZN6L0Test13ResponderFake19SetTransportEnabledEb
FN:257,261,_ZN6L0Test13ResponderFake20SetConnectionContextEjRKNSt7__cxx1112basic_stringIcSt11char_traitsIcESaIcEEES8_
FN:263,270,_ZN6L0Test13ResponderFake28SimulateAppConnectionChangedERKNSt7__cxx1112basic_stringIcSt11char_traitsIcESaIcEEEjb
FN:290,295,_ZN6L0Test11ServiceMock6ConfigC2Ebbb
FN:298,311,_ZN6L0Test11ServiceMockC1ENS0_6ConfigEb
FN:313,324,_ZN6L0Test11ServiceMockD0Ev
FN:313,324,_ZN6L0Test11ServiceMockD1Ev
FN:327,330,_ZNK6L0Test11ServiceMock6AddRefEv
FN:332,348,_ZNK6L0Test11ServiceMock7ReleaseEv
FN:350,390,_ZN6L0Test11ServiceMock14QueryInterfaceEj
FN:393,393,_ZN6L0Test11ServiceMock15EnableWebServerERKNSt7__cxx1112basic_stringIcSt11char_traitsIcESaIcEEES8_
FN:394,394,_ZN6L0Test11ServiceMock16DisableWebServerEv
FN:396,396,_ZNK6L0Test11ServiceMock5ModelB5cxx11Ev
FN:397,397,_ZNK6L0Test11ServiceMock10BackgroundEv
FN:398,398,_ZNK6L0Test11ServiceMock8AccessorB5cxx11Ev
FN:399,399,_ZNK6L0Test11ServiceMock9WebPrefixB5cxx11Ev
FN:400,411,_ZNK6L0Test11ServiceMock7LocatorB5cxx11Ev
FN:412,412,_ZNK6L0Test11ServiceMock9ClassNameB5cxx11Ev
FN:413,413,_ZNK6L0Test11ServiceMock8VersionsB5cxx11Ev
FN:414,414,_ZNK6L0Test11ServiceMock8CallsignB5cxx11Ev
FN:416,416,_ZNK6L0Test11ServiceMock14PersistentPathB5cxx11Ev
FN:417,417,_ZNK6L0Test11ServiceMock12VolatilePathB5cxx11Ev
FN:418,418,_ZNK6L0Test11ServiceMock8DataPathB5cxx11Ev
FN:419,419,_ZNK6L0Test11ServiceMock13ProxyStubPathB5cxx11Ev
FN:420,420,_ZNK6L0Test11ServiceMock10SystemPathB5cxx11Ev
FN:421,421,_ZNK6L0Test11ServiceMock10PluginPathB5cxx11Ev
FN:422,422,_ZNK6L0Test11ServiceMock14SystemRootPathB5cxx11Ev
FN:424,424,_ZN6L0Test11ServiceMock14SystemRootPathERKNSt7__cxx1112basic_stringIcSt11char_traitsIcESaIcEEE
FN:426,426,_ZNK6L0Test11ServiceMock7StartupEv
FN:427,427,_ZN6L0Test11ServiceMock7StartupEN12WPEFramework10PluginHost6IShell7startupE
FN:429,429,_ZNK6L0Test11ServiceMock10SubstituteERKNSt7__cxx1112basic_stringIcSt11char_traitsIcESaIcEEE
FN:431,431,_ZNK6L0Test11ServiceMock7ResumedEv
FN:432,432,_ZN6L0Test11ServiceMock7ResumedEb
FN:434,434,_ZNK6L0Test11ServiceMock7HashKeyB5cxx11Ev
FN:436,451,_ZNK6L0Test11ServiceMock10ConfigLineB5cxx11Ev
FN:45,48,_ZN6L0Test12ResolverFakeC1Ev
FN:452,452,_ZN6L0Test11ServiceMock10ConfigLineERKNSt7__cxx1112basic_stringIcSt11char_traitsIcESaIcEEE
FN:454,458,_ZNK6L0Test11ServiceMock8MetadataERNSt7__cxx1112basic_stringIcSt11char_traitsIcESaIcEEE
FN:460,460,_ZNK6L0Test11ServiceMock11IsSupportedEh
FN:462,462,_ZN6L0Test11ServiceMock10SubSystemsEv
FN:464,464,_ZN6L0Test11ServiceMock6NotifyERKNSt7__cxx1112basic_stringIcSt11char_traitsIcESaIcEEE
FN:466,466,_ZN6L0Test11ServiceMock8RegisterEPN12WPEFramework10PluginHost7IPlugin13INotificationE
FN:467,467,_ZN6L0Test11ServiceMock10UnregisterEPN12WPEFramework10PluginHost7IPlugin13INotificationE
FN:469,469,_ZNK6L0Test11ServiceMock5StateEv
FN:471,475,_ZN6L0Test11ServiceMock24QueryInterfaceByCallsignEjRKNSt7__cxx1112basic_stringIcSt11char_traitsIcESaIcEEE
FN:477,477,_ZN6L0Test11ServiceMock8ActivateEN12WPEFramework10PluginHost6IShell6reasonE
FN:478,478,_ZN6L0Test11ServiceMock10DeactivateEN12WPEFramework10PluginHost6IShell6reasonE
FN:479,479,_ZN6L0Test11ServiceMock11UnavailableEN12WPEFramework10PluginHost6IShell6reasonE
FN:480,480,_ZN6L0Test11ServiceMock9HibernateEj
FN:481,481,_ZNK6L0Test11ServiceMock6ReasonEv
FN:483,486,_ZN6L0Test11ServiceMock6SubmitEjRKN12WPEFramework4Core9ProxyTypeINS2_4JSON8IElementEEE
FN:488,492,_ZN6L0Test11ServiceMock7COMLinkEv
FN:495,495,_ZN6L0Test11ServiceMock8RegisterEPN12WPEFramework3RPC17IRemoteConnection13INotificationE
FN:496,496,_ZN6L0Test11ServiceMock10UnregisterEPKN12WPEFramework3RPC17IRemoteConnection13INotificationE
FN:498,498,_ZN6L0Test11ServiceMock8RegisterEPN12WPEFramework10PluginHost6IShell8ICOMLink13INotificationE
FN:499,499,_ZN6L0Test11ServiceMock10UnregisterEPN12WPEFramework10PluginHost6IShell8ICOMLink13INotificationE
FN:50,50,_ZN6L0Test12ResolverFakeD0Ev
FN:50,50,_ZN6L0Test12ResolverFakeD1Ev
FN:501,505,_ZN6L0Test11ServiceMock16RemoteConnectionEj
FN:507,565,_ZN6L0Test11ServiceMock11InstantiateERKN12WPEFramework3RPC6ObjectEjRj
FN:523,528,_ZZN6L0Test11ServiceMock11InstantiateERKN12WPEFramework3RPC6ObjectEjRjENKUlRKNSt7__cxx1112basic_stringIcSt11char_traitsIcESaIcEEESE_E_clESE_SE_
FN:53,56,_ZNK6L0Test12ResolverFake6AddRefEv
FN:58,66,_ZNK6L0Test12ResolverFake7ReleaseEv
FN:68,79,_ZN6L0Test12ResolverFake14QueryInterfaceEj
FN:82,86,_ZN6L0Test12ResolverFake9ConfigureEPN12WPEFramework10PluginHost6IShellE
FN:89,93,_ZN6L0Test12ResolverFake9ConfigureERKPN12WPEFramework3RPC13IIteratorTypeINSt7__cxx1112basic_stringIcSt11char_traitsIcESaIcEEELj5EEE
FN:95,120,_ZN6L0Test12ResolverFake7ResolveERKN12WPEFramework8Exchange14GatewayContextERKNSt7__cxx1112basic_stringIcSt11char_traitsIcESaIcEEESD_SD_RSB_
FNDA:29,_ZN6L0Test13ResponderFakeC1Eb
FNDA:3,_ZN6L0Test13ResponderFakeD0Ev
FNDA:3,_ZN6L0Test13ResponderFakeD1Ev
FNDA:65,_ZNK6L0Test13ResponderFake6AddRefEv
FNDA:68,_ZNK6L0Test13ResponderFake7ReleaseEv
FNDA:36,_ZN6L0Test13ResponderFake14QueryInterfaceEj
FNDA:26,_ZN6L0Test13ResponderFake9ConfigureEPN12WPEFramework10PluginHost6IShellE
FNDA:2,_ZN6L0Test13ResponderFake7RespondERKN12WPEFramework8Exchange14GatewayContextERKNSt7__cxx1112basic_stringIcSt11char_traitsIcESaIcEEE
FNDA:2,_ZN6L0Test13ResponderFake4EmitERKN12WPEFramework8Exchange14GatewayContextERKNSt7__cxx1112basic_stringIcSt11char_traitsIcESaIcEEESD_
FNDA:2,_ZN6L0Test13ResponderFake7RequestEjjRKNSt7__cxx1112basic_stringIcSt11char_traitsIcESaIcEEES8_
FNDA:3,_ZN6L0Test13ResponderFake27GetGatewayConnectionContextEjRKNSt7__cxx1112basic_stringIcSt11char_traitsIcESaIcEEERS6_
FNDA:1,_ZN6L0Test13ResponderFake8RegisterEPN12WPEFramework8Exchange20IAppGatewayResponder13INotificationE
FNDA:1,_ZN6L0Test13ResponderFake10UnregisterEPN12WPEFramework8Exchange20IAppGatewayResponder13INotificationE
FNDA:3,_ZN6L0Test13ResponderFake19SetTransportEnabledEb
FNDA:1,_ZN6L0Test13ResponderFake20SetConnectionContextEjRKNSt7__cxx1112basic_stringIcSt11char_traitsIcESaIcEEES8_
FNDA:1,_ZN6L0Test13ResponderFake28SimulateAppConnectionChangedERKNSt7__cxx1112basic_stringIcSt11char_traitsIcESaIcEEEjb
FNDA:30,_ZN6L0Test11ServiceMock6ConfigC2Ebbb
FNDA:30,_ZN6L0Test11ServiceMockC1ENS0_6ConfigEb
FNDA:2,_ZN6L0Test11ServiceMockD0Ev
FNDA:3,_ZN6L0Test11ServiceMockD1Ev
FNDA:6,_ZNK6L0Test11ServiceMock6AddRefEv
FNDA:35,_ZNK6L0Test11ServiceMock7ReleaseEv
FNDA:57,_ZN6L0Test11ServiceMock14QueryInterfaceEj
FNDA:0,_ZN6L0Test11ServiceMock15EnableWebServerERKNSt7__cxx1112basic_stringIcSt11char_traitsIcESaIcEEES8_
FNDA:0,_ZN6L0Test11ServiceMock16DisableWebServerEv
FNDA:0,_ZNK6L0Test11ServiceMock5ModelB5cxx11Ev
FNDA:0,_ZNK6L0Test11ServiceMock10BackgroundEv
FNDA:0,_ZNK6L0Test11ServiceMock8AccessorB5cxx11Ev
FNDA:0,_ZNK6L0Test11ServiceMock9WebPrefixB5cxx11Ev
FNDA:0,_ZNK6L0Test11ServiceMock7LocatorB5cxx11Ev
FNDA:0,_ZNK6L0Test11ServiceMock9ClassNameB5cxx11Ev
FNDA:0,_ZNK6L0Test11ServiceMock8VersionsB5cxx11Ev
FNDA:0,_ZNK6L0Test11ServiceMock8CallsignB5cxx11Ev
FNDA:0,_ZNK6L0Test11ServiceMock14PersistentPathB5cxx11Ev
FNDA:0,_ZNK6L0Test11ServiceMock12VolatilePathB5cxx11Ev
FNDA:0,_ZNK6L0Test11ServiceMock8DataPathB5cxx11Ev
FNDA:0,_ZNK6L0Test11ServiceMock13ProxyStubPathB5cxx11Ev
FNDA:0,_ZNK6L0Test11ServiceMock10SystemPathB5cxx11Ev
FNDA:0,_ZNK6L0Test11ServiceMock10PluginPathB5cxx11Ev
FNDA:0,_ZNK6L0Test11ServiceMock14SystemRootPathB5cxx11Ev
FNDA:0,_ZN6L0Test11ServiceMock14SystemRootPathERKNSt7__cxx1112basic_stringIcSt11char_traitsIcESaIcEEE
FNDA:0,_ZNK6L0Test11ServiceMock7StartupEv
FNDA:0,_ZN6L0Test11ServiceMock7StartupEN12WPEFramework10PluginHost6IShell7startupE
FNDA:0,_ZNK6L0Test11ServiceMock10SubstituteERKNSt7__cxx1112basic_stringIcSt11char_traitsIcESaIcEEE
FNDA:0,_ZNK6L0Test11ServiceMock7ResumedEv
FNDA:0,_ZN6L0Test11ServiceMock7ResumedEb
FNDA:0,_ZNK6L0Test11ServiceMock7HashKeyB5cxx11Ev
FNDA:0,_ZNK6L0Test11ServiceMock10ConfigLineB5cxx11Ev
FNDA:26,_ZN6L0Test12ResolverFakeC1Ev
FNDA:0,_ZN6L0Test11ServiceMock10ConfigLineERKNSt7__cxx1112basic_stringIcSt11char_traitsIcESaIcEEE
FNDA:0,_ZNK6L0Test11ServiceMock8MetadataERNSt7__cxx1112basic_stringIcSt11char_traitsIcESaIcEEE
FNDA:0,_ZNK6L0Test11ServiceMock11IsSupportedEh
FNDA:0,_ZN6L0Test11ServiceMock10SubSystemsEv
FNDA:0,_ZN6L0Test11ServiceMock6NotifyERKNSt7__cxx1112basic_stringIcSt11char_traitsIcESaIcEEE
FNDA:0,_ZN6L0Test11ServiceMock8RegisterEPN12WPEFramework10PluginHost7IPlugin13INotificationE
FNDA:0,_ZN6L0Test11ServiceMock10UnregisterEPN12WPEFramework10PluginHost7IPlugin13INotificationE
FNDA:0,_ZNK6L0Test11ServiceMock5StateEv
FNDA:0,_ZN6L0Test11ServiceMock24QueryInterfaceByCallsignEjRKNSt7__cxx1112basic_stringIcSt11char_traitsIcESaIcEEE
FNDA:0,_ZN6L0Test11ServiceMock8ActivateEN12WPEFramework10PluginHost6IShell6reasonE
FNDA:0,_ZN6L0Test11ServiceMock10DeactivateEN12WPEFramework10PluginHost6IShell6reasonE
FNDA:0,_ZN6L0Test11ServiceMock11UnavailableEN12WPEFramework10PluginHost6IShell6reasonE
FNDA:0,_ZN6L0Test11ServiceMock9HibernateEj
FNDA:0,_ZNK6L0Test11ServiceMock6ReasonEv
FNDA:0,_ZN6L0Test11ServiceMock6SubmitEjRKN12WPEFramework4Core9ProxyTypeINS2_4JSON8IElementEEE
FNDA:26,_ZN6L0Test11ServiceMock7COMLinkEv
FNDA:0,_ZN6L0Test11ServiceMock8RegisterEPN12WPEFramework3RPC17IRemoteConnection13INotificationE
FNDA:0,_ZN6L0Test11ServiceMock10UnregisterEPKN12WPEFramework3RPC17IRemoteConnection13INotificationE
FNDA:0,_ZN6L0Test11ServiceMock8RegisterEPN12WPEFramework10PluginHost6IShell8ICOMLink13INotificationE
FNDA:0,_ZN6L0Test11ServiceMock10UnregisterEPN12WPEFramework10PluginHost6IShell8ICOMLink13INotificationE
FNDA:0,_ZN6L0Test12ResolverFakeD0Ev
FNDA:0,_ZN6L0Test12ResolverFakeD1Ev
FNDA:26,_ZN6L0Test11ServiceMock16RemoteConnectionEj
FNDA:0,_ZN6L0Test11ServiceMock11InstantiateERKN12WPEFramework3RPC6ObjectEjRj
FNDA:0,_ZZN6L0Test11ServiceMock11InstantiateERKN12WPEFramework3RPC6ObjectEjRjENKUlRKNSt7__cxx1112basic_stringIcSt11char_traitsIcESaIcEEESE_E_clESE_SE_
FNDA:54,_ZNK6L0Test12ResolverFake6AddRefEv
FNDA:54,_ZNK6L0Test12ResolverFake7ReleaseEv
FNDA:28,_ZN6L0Test12ResolverFake14QueryInterfaceEj
FNDA:26,_ZN6L0Test12ResolverFake9ConfigureEPN12WPEFramework10PluginHost6IShellE
FNDA:1,_ZN6L0Test12ResolverFake9ConfigureERKPN12WPEFramework3RPC13IIteratorTypeINSt7__cxx1112basic_stringIcSt11char_traitsIcESaIcEEELj5EEE
FNDA:16,_ZN6L0Test12ResolverFake7ResolveERKN12WPEFramework8Exchange14GatewayContextERKNSt7__cxx1112basic_stringIcSt11char_traitsIcESaIcEEESD_SD_RSB_
FNF:80
FNH:32
DA:45,26
DA:46,26
DA:48,26
DA:50,0
DA:53,54
DA:55,108
DA:58,54
DA:60,54
DA:61,54
DA:62,0
DA:63,0
DA:65,54
DA:68,28
DA:70,28
DA:71,2
DA:72,2
DA:74,26
DA:75,26
DA:76,26
DA:78,0
DA:82,26
DA:85,26
DA:89,1
DA:92,1
DA:95,16
DA:104,16
DA:105,1
DA:106,1
DA:108,15
DA:109,2
DA:110,2
DA:112,13
DA:113,2
DA:114,2
DA:118,11
DA:119,11
DA:130,29
DA:131,58
DA:132,29
DA:134,29
DA:136,6
DA:137,3
DA:139,3
DA:140,0
DA:141,0
DA:144,3
DA:145,6
DA:148,65
DA:150,130
DA:153,68
DA:155,68
DA:156,68
DA:157,3
DA:158,3
DA:160,65
DA:163,36
DA:165,36
DA:166,5
DA:167,5
DA:169,31
DA:170,26
DA:171,26
DA:174,5
DA:175,5
DA:176,5
DA:178,0
DA:182,26
DA:184,26
DA:188,2
DA:191,2
DA:194,2
DA:198,2
DA:201,2
DA:206,2
DA:209,3
DA:213,3
DA:214,3
DA:215,3
DA:216,1
DA:218,2
DA:219,2
DA:220,1
DA:222,1
DA:223,1
DA:224,3
DA:226,1
DA:228,1
DA:229,0
DA:232,1
DA:233,1
DA:234,1
DA:236,1
DA:239,1
DA:241,1
DA:242,0
DA:244,1
DA:245,1
DA:246,1
DA:247,1
DA:248,1
DA:251,0
DA:255,3
DA:257,1
DA:259,1
DA:260,1
DA:261,1
DA:263,1
DA:265,2
DA:266,1
DA:267,1
DA:270,1
DA:290,30
DA:291,30
DA:292,30
DA:293,30
DA:295,30
DA:298,30
DA:299,60
DA:300,30
DA:301,60
DA:302,60
DA:303,30
DA:304,30
DA:305,30
DA:306,30
DA:311,30
DA:313,5
DA:314,3
DA:316,3
DA:317,0
DA:318,0
DA:320,3
DA:321,3
DA:322,3
DA:324,5
DA:327,6
DA:329,12
DA:332,35
DA:334,35
DA:335,35
DA:342,29
DA:343,2
DA:345,29
DA:347,6
DA:350,57
DA:352,57
DA:353,0
DA:354,0
DA:365,57
DA:366,27
DA:367,26
DA:368,26
DA:370,26
DA:371,26
DA:373,1
DA:375,30
DA:376,30
DA:380,29
DA:381,29
DA:383,29
DA:384,29
DA:386,1
DA:389,0
DA:393,0
DA:394,0
DA:396,0
DA:397,0
DA:398,0
DA:399,0
DA:400,0
DA:404,0
DA:405,0
DA:406,0
DA:410,0
DA:412,0
DA:413,0
DA:414,0
DA:416,0
DA:417,0
DA:418,0
DA:419,0
DA:420,0
DA:421,0
DA:422,0
DA:424,0
DA:426,0
DA:427,0
DA:429,0
DA:431,0
DA:432,0
DA:434,0
DA:436,0
DA:450,0
DA:452,0
DA:454,0
DA:456,0
DA:457,0
DA:460,0
DA:462,0
DA:464,0
DA:466,0
DA:467,0
DA:469,0
DA:471,0
DA:474,0
DA:477,0
DA:478,0
DA:479,0
DA:480,0
DA:481,0
DA:483,0
DA:485,0
DA:488,26
DA:491,26
DA:495,0
DA:496,0
DA:498,0
DA:499,0
DA:501,26
DA:504,26
DA:507,0
DA:518,0
DA:519,0
DA:521,0
DA:523,0
DA:524,0
DA:525,0
DA:527,0
DA:531,0
DA:532,0
DA:533,0
DA:534,0
DA:535,0
DA:537,0
DA:538,0
DA:540,0
DA:541,0
DA:543,0
DA:544,0
DA:548,0
DA:549,0
DA:550,0
DA:551,0
DA:552,0
DA:554,0
DA:555,0
DA:557,0
DA:558,0
DA:560,0
DA:561,0
DA:564,0
DA:565,0
LF:252
LH:152
end_of_record
TN:
SF:/usr/include/c++/13/atomic
FN:856,856,_ZNSt6atomicIjEC2Ej
FNDA:157,_ZNSt6atomicIjEC2Ej
FNF:1
FNH:1
DA:856,157
LF:1
LH:1
end_of_record
TN:
SF:/usr/include/c++/13/bits/alloc_traits.h
FNF:0
FNH:0
DA:482,247
DA:517,1470
DA:538,232
DA:542,232
DA:562,1456
DA:574,14
DA:588,73
DA:948,15
DA:949,15
LF:9
LH:9
end_of_record
TN:
SF:/usr/include/c++/13/bits/allocated_ptr.h
FN:53,55,_ZNSt15__allocated_ptrISaISt10_List_nodeIN12WPEFramework4Core10ThreadPool8ExecutorEEEEC2ERS6_PS5_
FN:53,55,_ZNSt15__allocated_ptrISaISt10_List_nodeIN12WPEFramework4Core9ProxyTypeINS2_9IDispatchEEEEEEC2ERS7_PS6_
FN:53,55,_ZNSt15__allocated_ptrISaISt10_List_nodeIN12WPEFramework4Core9TimerTypeINS2_10WorkerPool5TimerEE9TimedInfoIS5_EEEEEC2ERSA_PS9_
FN:53,55,_ZNSt15__allocated_ptrISaISt10_List_nodeIPN12WPEFramework8Exchange20IAppGatewayResponder13INotificationEEEEC2ERS7_PS6_
FN:53,55,_ZNSt15__allocated_ptrISaISt10_List_nodeISt4pairIPKcPN12WPEFramework4Core4JSON8IElementEEEEEC2ERSB_PSA_
FN:71,75,_ZNSt15__allocated_ptrISaISt10_List_nodeIN12WPEFramework4Core10ThreadPool8ExecutorEEEED2Ev
FN:71,75,_ZNSt15__allocated_ptrISaISt10_List_nodeIN12WPEFramework4Core9ProxyTypeINS2_9IDispatchEEEEEED2Ev
FN:71,75,_ZNSt15__allocated_ptrISaISt10_List_nodeIN12WPEFramework4Core9TimerTypeINS2_10WorkerPool5TimerEE9TimedInfoIS5_EEEEED2Ev
FN:71,75,_ZNSt15__allocated_ptrISaISt10_List_nodeIPN12WPEFramework8Exchange20IAppGatewayResponder13INotificationEEEED2Ev
FN:71,75,_ZNSt15__allocated_ptrISaISt10_List_nodeISt4pairIPKcPN12WPEFramework4Core4JSON8IElementEEEEED2Ev
FN:79,83,_ZNSt15__allocated_ptrISaISt10_List_nodeIN12WPEFramework4Core10ThreadPool8ExecutorEEEEaSEDn
FN:79,83,_ZNSt15__allocated_ptrISaISt10_List_nodeIN12WPEFramework4Core9ProxyTypeINS2_9IDispatchEEEEEEaSEDn
FN:79,83,_ZNSt15__allocated_ptrISaISt10_List_nodeIN12WPEFramework4Core9TimerTypeINS2_10WorkerPool5TimerEE9TimedInfoIS5_EEEEEaSEDn
FN:79,83,_ZNSt15__allocated_ptrISaISt10_List_nodeIPN12WPEFramework8Exchange20IAppGatewayResponder13INotificationEEEEaSEDn
FN:79,83,_ZNSt15__allocated_ptrISaISt10_List_nodeISt4pairIPKcPN12WPEFramework4Core4JSON8IElementEEEEEaSEDn
FNDA:2,_ZNSt15__allocated_ptrISaISt10_List_nodeIN12WPEFramework4Core10ThreadPool8ExecutorEEEEC2ERS6_PS5_
FNDA:2,_ZNSt15__allocated_ptrISaISt10_List_nodeIN12WPEFramework4Core9ProxyTypeINS2_9IDispatchEEEEEEC2ERS7_PS6_
FNDA:0,_ZNSt15__allocated_ptrISaISt10_List_nodeIN12WPEFramework4Core9TimerTypeINS2_10WorkerPool5TimerEE9TimedInfoIS5_EEEEEC2ERSA_PS9_
FNDA:1,_ZNSt15__allocated_ptrISaISt10_List_nodeIPN12WPEFramework8Exchange20IAppGatewayResponder13INotificationEEEEC2ERS7_PS6_
FNDA:224,_ZNSt15__allocated_ptrISaISt10_List_nodeISt4pairIPKcPN12WPEFramework4Core4JSON8IElementEEEEEC2ERSB_PSA_
FNDA:2,_ZNSt15__allocated_ptrISaISt10_List_nodeIN12WPEFramework4Core10ThreadPool8ExecutorEEEED2Ev
FNDA:2,_ZNSt15__allocated_ptrISaISt10_List_nodeIN12WPEFramework4Core9ProxyTypeINS2_9IDispatchEEEEEED2Ev
FNDA:0,_ZNSt15__allocated_ptrISaISt10_List_nodeIN12WPEFramework4Core9TimerTypeINS2_10WorkerPool5TimerEE9TimedInfoIS5_EEEEED2Ev
FNDA:1,_ZNSt15__allocated_ptrISaISt10_List_nodeIPN12WPEFramework8Exchange20IAppGatewayResponder13INotificationEEEED2Ev
FNDA:224,_ZNSt15__allocated_ptrISaISt10_List_nodeISt4pairIPKcPN12WPEFramework4Core4JSON8IElementEEEEED2Ev
FNDA:2,_ZNSt15__allocated_ptrISaISt10_List_nodeIN12WPEFramework4Core10ThreadPool8ExecutorEEEEaSEDn
FNDA:2,_ZNSt15__allocated_ptrISaISt10_List_nodeIN12WPEFramework4Core9ProxyTypeINS2_9IDispatchEEEEEEaSEDn
FNDA:0,_ZNSt15__allocated_ptrISaISt10_List_nodeIN12WPEFramework4Core9TimerTypeINS2_10WorkerPool5TimerEE9TimedInfoIS5_EEEEEaSEDn
FNDA:1,_ZNSt15__allocated_ptrISaISt10_List_nodeIPN12WPEFramework8Exchange20IAppGatewayResponder13INotificationEEEEaSEDn
FNDA:224,_ZNSt15__allocated_ptrISaISt10_List_nodeISt4pairIPKcPN12WPEFramework4Core4JSON8IElementEEEEEaSEDn
FNF:15
FNH:12
DA:53,229
DA:54,229
DA:55,229
DA:71,229
DA:73,229
DA:74,0
DA:75,229
DA:79,229
DA:81,229
DA:82,229
LF:10
LH:9
end_of_record
TN:
SF:/usr/include/c++/13/bits/allocator.h
FNF:0
FNH:0
DA:163,2510
DA:168,89
DA:178,2
DA:184,2145
LF:4
LH:4
end_of_record
TN:
SF:/usr/include/c++/13/bits/atomic_base.h
FN:107,110,_ZStanSt12memory_orderSt23__memory_order_modifier
FN:362,362,_ZNSt13__atomic_baseIjEC2Ej
FN:364,365,_ZNKSt13__atomic_baseIjEcvjEv
FN:385,386,_ZNSt13__atomic_baseIjEppEi
FN:393,394,_ZNSt13__atomic_baseIjEmmEi
FN:401,402,_ZNSt13__atomic_baseIjEppEv
FN:409,410,_ZNSt13__atomic_baseIjEmmEv
FNDA:106,_ZStanSt12memory_orderSt23__memory_order_modifier
FNDA:157,_ZNSt13__atomic_baseIjEC2Ej
FNDA:90,_ZNKSt13__atomic_baseIjEcvjEv
FNDA:88,_ZNSt13__atomic_baseIjEppEi
FNDA:0,_ZNSt13__atomic_baseIjEmmEi
FNDA:0,_ZNSt13__atomic_baseIjEppEv
FNDA:92,_ZNSt13__atomic_baseIjEmmEv
FNF:7
FNH:5
DA:107,106
DA:109,106
DA:362,157
DA:364,90
DA:365,90
DA:385,88
DA:386,88
DA:393,0
DA:394,0
DA:401,0
DA:402,0
DA:409,92
DA:410,92
DA:501,90
DA:502,90
DA:503,90
DA:505,90
DA:635,213
DA:645,157
LF:19
LH:15
end_of_record
TN:
SF:/usr/include/c++/13/bits/basic_string.h
FN:3528,3541,_ZSt12__str_concatINSt7__cxx1112basic_stringIcSt11char_traitsIcESaIcEEEET_PKNS6_10value_typeENS6_9size_typeES9_SA_RKNS6_14allocator_typeE
FN:3571,3579,_ZStplIcSt11char_traitsIcESaIcEENSt7__cxx1112basic_stringIT_T0_T1_EEPKS5_RKS8_
FN:3607,3615,_ZStplIcSt11char_traitsIcESaIcEENSt7__cxx1112basic_stringIT_T0_T1_EERKS8_PKS5_
FN:3625,3631,_ZStplIcSt11char_traitsIcESaIcEENSt7__cxx1112basic_stringIT_T0_T1_EERKS8_S5_
FN:3637,3639,_ZStplIcSt11char_traitsIcESaIcEENSt7__cxx1112basic_stringIT_T0_T1_EEOS8_RKS8_
FN:3644,3646,_ZStplIcSt11char_traitsIcESaIcEENSt7__cxx1112basic_stringIT_T0_T1_EERKS8_OS8_
FN:3674,3676,_ZStplIcSt11char_traitsIcESaIcEENSt7__cxx1112basic_stringIT_T0_T1_EEPKS5_OS8_
FN:3688,3690,_ZStplIcSt11char_traitsIcESaIcEENSt7__cxx1112basic_stringIT_T0_T1_EEOS8_PKS5_
FN:3710,3716,_ZSteqIcSt11char_traitsIcESaIcEEbRKNSt7__cxx1112basic_stringIT_T0_T1_EESA_
FN:3727,3732,_ZSteqIcSt11char_traitsIcESaIcEEbRKNSt7__cxx1112basic_stringIT_T0_T1_EEPKS5_
FN:3788,3791,_ZStneIcSt11char_traitsIcESaIcEEbRKNSt7__cxx1112basic_stringIT_T0_T1_EESA_
FN:4177,4185,_ZNSt7__cxx119to_stringEj
FN:4407,4408,_ZNKSt15__str_hash_baseIcSaIcENSt7__cxx1112basic_stringIcSt11char_traitsIcES0_EEEclERKS5_
FN:641,650,_ZNSt7__cxx1112basic_stringIcSt11char_traitsIcESaIcEEC2IS3_EEPKcRKS3_
FN:664,666,_ZNSt7__cxx1112basic_stringIcSt11char_traitsIcESaIcEEC2IS3_EEmcRKS3_
FN:760,770,_ZNSt7__cxx1112basic_stringIcSt11char_traitsIcESaIcEEC2IPKcvEET_S8_RKS3_
FNDA:69,_ZSt12__str_concatINSt7__cxx1112basic_stringIcSt11char_traitsIcESaIcEEEET_PKNS6_10value_typeENS6_9size_typeES9_SA_RKNS6_14allocator_typeE
FNDA:69,_ZStplIcSt11char_traitsIcESaIcEENSt7__cxx1112basic_stringIT_T0_T1_EEPKS5_RKS8_
FNDA:0,_ZStplIcSt11char_traitsIcESaIcEENSt7__cxx1112basic_stringIT_T0_T1_EERKS8_PKS5_
FNDA:0,_ZStplIcSt11char_traitsIcESaIcEENSt7__cxx1112basic_stringIT_T0_T1_EERKS8_S5_
FNDA:65,_ZStplIcSt11char_traitsIcESaIcEENSt7__cxx1112basic_stringIT_T0_T1_EEOS8_RKS8_
FNDA:2,_ZStplIcSt11char_traitsIcESaIcEENSt7__cxx1112basic_stringIT_T0_T1_EERKS8_OS8_
FNDA:10,_ZStplIcSt11char_traitsIcESaIcEENSt7__cxx1112basic_stringIT_T0_T1_EEPKS5_OS8_
FNDA:178,_ZStplIcSt11char_traitsIcESaIcEENSt7__cxx1112basic_stringIT_T0_T1_EEOS8_PKS5_
FNDA:5791,_ZSteqIcSt11char_traitsIcESaIcEEbRKNSt7__cxx1112basic_stringIT_T0_T1_EESA_
FNDA:3239,_ZSteqIcSt11char_traitsIcESaIcEEbRKNSt7__cxx1112basic_stringIT_T0_T1_EEPKS5_
FNDA:44,_ZStneIcSt11char_traitsIcESaIcEEbRKNSt7__cxx1112basic_stringIT_T0_T1_EESA_
FNDA:10,_ZNSt7__cxx119to_stringEj
FNDA:718,_ZNKSt15__str_hash_baseIcSaIcENSt7__cxx1112basic_stringIcSt11char_traitsIcES0_EEEclERKS5_
FNDA:1980,_ZNSt7__cxx1112basic_stringIcSt11char_traitsIcESaIcEEC2IS3_EEPKcRKS3_
FNDA:10,_ZNSt7__cxx1112basic_stringIcSt11char_traitsIcESaIcEEC2IS3_EEmcRKS3_
FNDA:2,_ZNSt7__cxx1112basic_stringIcSt11char_traitsIcESaIcEEC2IPKcvEET_S8_RKS3_
FNF:16
FNH:14
DA:355,5543
DA:641,1980
DA:642,1980
DA:645,1980
DA:646,0
DA:648,1980
DA:649,1980
DA:650,1980
DA:664,10
DA:665,10
DA:666,10
DA:760,2
DA:762,2
DA:765,2
DA:770,2
DA:3528,69
DA:3536,69
DA:3537,69
DA:3538,69
DA:3539,69
DA:3540,69
DA:3541,0
DA:3571,69
DA:3578,138
DA:3607,0
DA:3614,0
DA:3625,0
DA:3630,0
DA:3637,65
DA:3639,65
DA:3644,2
DA:3646,2
DA:3674,10
DA:3676,10
DA:3688,178
DA:3690,178
DA:3710,5791
DA:3714,5791
DA:3715,5791
DA:3727,3239
DA:3730,3239
DA:3731,3239
DA:3788,44
DA:3791,44
DA:4177,10
DA:4182,10
DA:4183,10
DA:4184,10
DA:4407,718
DA:4408,718
LF:50
LH:44
end_of_record
TN:
SF:/usr/include/c++/13/bits/basic_string.tcc
FN:221,252,_ZNSt7__cxx1112basic_stringIcSt11char_traitsIcESaIcEE12_M_constructIPKcEEvT_S8_St20forward_iterator_tag
FN:221,252,_ZNSt7__cxx1112basic_stringIcSt11char_traitsIcESaIcEE12_M_constructIPcEEvT_S7_St20forward_iterator_tag
FN:239,239,_ZZNSt7__cxx1112basic_stringIcSt11char_traitsIcESaIcEE12_M_constructIPKcEEvT_S8_St20forward_iterator_tagEN6_GuardC2EPS4_
FN:239,239,_ZZNSt7__cxx1112basic_stringIcSt11char_traitsIcESaIcEE12_M_constructIPcEEvT_S7_St20forward_iterator_tagEN6_GuardC2EPS4_
FN:242,242,_ZZNSt7__cxx1112basic_stringIcSt11char_traitsIcESaIcEE12_M_constructIPKcEEvT_S8_St20forward_iterator_tagEN6_GuardD2Ev
FN:242,242,_ZZNSt7__cxx1112basic_stringIcSt11char_traitsIcESaIcEE12_M_constructIPcEEvT_S7_St20forward_iterator_tagEN6_GuardD2Ev
FNDA:8551,_ZNSt7__cxx1112basic_stringIcSt11char_traitsIcESaIcEE12_M_constructIPKcEEvT_S8_St20forward_iterator_tag
FNDA:0,_ZNSt7__cxx1112basic_stringIcSt11char_traitsIcESaIcEE12_M_constructIPcEEvT_S7_St20forward_iterator_tag
FNDA:8551,_ZZNSt7__cxx1112basic_stringIcSt11char_traitsIcESaIcEE12_M_constructIPKcEEvT_S8_St20forward_iterator_tagEN6_GuardC2EPS4_
FNDA:0,_ZZNSt7__cxx1112basic_stringIcSt11char_traitsIcESaIcEE12_M_constructIPcEEvT_S7_St20forward_iterator_tagEN6_GuardC2EPS4_
FNDA:8551,_ZZNSt7__cxx1112basic_stringIcSt11char_traitsIcESaIcEE12_M_constructIPKcEEvT_S8_St20forward_iterator_tagEN6_GuardD2Ev
FNDA:0,_ZZNSt7__cxx1112basic_stringIcSt11char_traitsIcESaIcEE12_M_constructIPcEEvT_S7_St20forward_iterator_tagEN6_GuardD2Ev
FNF:6
FNH:3
DA:221,8551
DA:225,8551
DA:227,8551
DA:229,3008
DA:230,3008
DA:239,8551
DA:242,8551
DA:245,8551
DA:247,8551
DA:249,8551
DA:251,8551
DA:252,8551
LF:12
LH:12
end_of_record
TN:
SF:/usr/include/c++/13/bits/char_traits.h
FN:136,137,_ZN9__gnu_cxx11char_traitsIcE2eqERKcS3_
FN:199,206,_ZN9__gnu_cxx11char_traitsIcE6lengthEPKc
FN:366,371,_ZNSt11char_traitsIcE2ltERKcS2_
FN:374,390,_ZNSt11char_traitsIcE7compareEPKcS2_m
FN:393,400,_ZNSt11char_traitsIcE6lengthEPKc
FN:427,436,_ZNSt11char_traitsIcE4copyEPcPKcm
FNDA:0,_ZN9__gnu_cxx11char_traitsIcE2eqERKcS3_
FNDA:0,_ZN9__gnu_cxx11char_traitsIcE6lengthEPKc
FNDA:0,_ZNSt11char_traitsIcE2ltERKcS2_
FNDA:2403,_ZNSt11char_traitsIcE7compareEPKcS2_m
FNDA:5288,_ZNSt11char_traitsIcE6lengthEPKc
FNDA:0,_ZNSt11char_traitsIcE4copyEPcPKcm
FNF:6
FNH:2
DA:136,0
DA:137,0
DA:199,0
DA:202,0
DA:203,0
DA:204,0
DA:205,0
DA:366,0
DA:369,0
DA:370,0
DA:374,2403
DA:376,2403
DA:377,19
DA:379,2384
DA:381,0
DA:382,0
DA:383,0
DA:384,0
DA:385,0
DA:386,0
DA:389,2384
DA:393,5288
DA:396,5288
DA:397,0
DA:399,5288
DA:427,0
DA:429,0
DA:430,0
DA:435,0
LF:29
LH:8
end_of_record
TN:
SF:/usr/include/c++/13/bits/charconv.h
FN:55,74,_ZNSt8__detail14__to_chars_lenIjEEjT_i
FN:81,110,_ZNSt8__detail18__to_chars_10_implIjEEvPcjT_
FNDA:10,_ZNSt8__detail14__to_chars_lenIjEEjT_i
FNDA:10,_ZNSt8__detail18__to_chars_10_implIjEEvPcjT_
FNF:2
FNH:2
DA:55,10
DA:61,10
DA:62,10
DA:63,10
DA:64,10
DA:67,14
DA:68,12
DA:69,6
DA:70,6
DA:71,4
DA:72,4
DA:81,10
DA:87,10
DA:93,10
DA:94,20
DA:96,10
DA:97,10
DA:98,10
DA:99,10
DA:100,10
DA:102,10
DA:104,8
DA:105,8
DA:106,8
DA:109,2
DA:110,10
LF:26
LH:26
end_of_record
TN:
SF:/usr/include/c++/13/bits/cpp_type_traits.h
FN:607,608,_ZSt12__miter_baseIN9__gnu_cxx17__normal_iteratorIPPN12WPEFramework10PluginHost11IDispatcher9ICallbackESt6vectorIS6_SaIS6_EEEEET_SC_
FN:607,608,_ZSt12__miter_baseIN9__gnu_cxx17__normal_iteratorIPSt4pairIjNSt7__cxx1112basic_stringIcSt11char_traitsIcESaIcEEEESt6vectorIS9_SaIS9_EEEEET_SF_
FNDA:0,_ZSt12__miter_baseIN9__gnu_cxx17__normal_iteratorIPPN12WPEFramework10PluginHost11IDispatcher9ICallbackESt6vectorIS6_SaIS6_EEEEET_SC_
FNDA:0,_ZSt12__miter_baseIN9__gnu_cxx17__normal_iteratorIPSt4pairIjNSt7__cxx1112basic_stringIcSt11char_traitsIcESaIcEEEESt6vectorIS9_SaIS9_EEEEET_SF_
FNF:2
FNH:0
DA:607,0
DA:608,0
LF:2
LH:0
end_of_record
TN:
SF:/usr/include/c++/13/bits/functional_hash.h
FN:166,166,_ZNKSt4hashIjEclEj
FN:204,206,_ZNSt10_Hash_impl4hashEPKvmm
FNDA:4,_ZNKSt4hashIjEclEj
FNDA:718,_ZNSt10_Hash_impl4hashEPKvmm
FNF:2
FNH:2
DA:166,4
DA:204,718
DA:206,718
LF:3
LH:3
end_of_record
TN:
SF:/usr/include/c++/13/bits/hashtable.h
FN:1595,1610,_ZNSt10_HashtableINSt7__cxx1112basic_stringIcSt11char_traitsIcESaIcEEESt4pairIKS5_S5_ESaIS8_ENSt8__detail10_Select1stESt8equal_toIS5_ESt4hashIS5_ENSA_18_Mod_range_hashingENSA_20_Default_ranged_hashENSA_20_Prime_rehash_policyENSA_17_Hashtable_traitsILb1ELb0ELb1EEEED2Ev
FN:1595,1610,_ZNSt10_HashtableIjSt4pairIKjSt13unordered_mapINSt7__cxx1112basic_stringIcSt11char_traitsIcESaIcEEES8_St4hashIS8_ESt8equal_toIS8_ESaIS0_IKS8_S8_EEEESaISH_ENSt8__detail10_Select1stESB_IjES9_IjENSJ_18_Mod_range_hashingENSJ_20_Default_ranged_hashENSJ_20_Prime_rehash_policyENSJ_17_Hashtable_traitsILb0ELb0ELb1EEEED2Ev
FN:1664,1680,_ZNSt10_HashtableINSt7__cxx1112basic_stringIcSt11char_traitsIcESaIcEEESt4pairIKS5_N12WPEFramework10PluginHost7JSONRPC8ObserverEESaISC_ENSt8__detail10_Select1stESt8equal_toIS5_ESt4hashIS5_ENSE_18_Mod_range_hashingENSE_20_Default_ranged_hashENSE_20_Prime_rehash_policyENSE_17_Hashtable_traitsILb1ELb0ELb1EEEE4findERS7_
FN:1664,1680,_ZNSt10_HashtableINSt7__cxx1112basic_stringIcSt11char_traitsIcESaIcEEESt4pairIKS5_N12WPEFramework4Core7JSONRPC7Handler5EntryEESaISD_ENSt8__detail10_Select1stESt8equal_toIS5_ESt4hashIS5_ENSF_18_Mod_range_hashingENSF_20_Default_ranged_hashENSF_20_Prime_rehash_policyENSF_17_Hashtable_traitsILb1ELb0ELb1EEEE4findERS7_
FN:1664,1680,_ZNSt10_HashtableINSt7__cxx1112basic_stringIcSt11char_traitsIcESaIcEEESt4pairIKS5_S5_ESaIS8_ENSt8__detail10_Select1stESt8equal_toIS5_ESt4hashIS5_ENSA_18_Mod_range_hashingENSA_20_Default_ranged_hashENSA_20_Prime_rehash_policyENSA_17_Hashtable_traitsILb1ELb0ELb1EEEE4findERS7_
FN:1664,1680,_ZNSt10_HashtableIjSt4pairIKjSt13unordered_mapINSt7__cxx1112basic_stringIcSt11char_traitsIcESaIcEEES8_St4hashIS8_ESt8equal_toIS8_ESaIS0_IKS8_S8_EEEESaISH_ENSt8__detail10_Select1stESB_IjES9_IjENSJ_18_Mod_range_hashingENSJ_20_Default_ranged_hashENSJ_20_Prime_rehash_policyENSJ_17_Hashtable_traitsILb0ELb0ELb1EEEE4findERS1_
FN:1687,1703,_ZNKSt10_HashtableINSt7__cxx1112basic_stringIcSt11char_traitsIcESaIcEEESt4pairIKS5_N12WPEFramework4Core7JSONRPC7Handler5EntryEESaISD_ENSt8__detail10_Select1stESt8equal_toIS5_ESt4hashIS5_ENSF_18_Mod_range_hashingENSF_20_Default_ranged_hashENSF_20_Prime_rehash_policyENSF_17_Hashtable_traitsILb1ELb0ELb1EEEE4findERS7_
FN:1948,1970,_ZNKSt10_HashtableINSt7__cxx1112basic_stringIcSt11char_traitsIcESaIcEEESt4pairIKS5_N12WPEFramework10PluginHost7JSONRPC8ObserverEESaISC_ENSt8__detail10_Select1stESt8equal_toIS5_ESt4hashIS5_ENSE_18_Mod_range_hashingENSE_20_Default_ranged_hashENSE_20_Prime_rehash_policyENSE_17_Hashtable_traitsILb1ELb0ELb1EEEE19_M_find_before_nodeEmRS7_m
FN:1948,1970,_ZNKSt10_HashtableINSt7__cxx1112basic_stringIcSt11char_traitsIcESaIcEEESt4pairIKS5_N12WPEFramework4Core7JSONRPC7Handler5EntryEESaISD_ENSt8__detail10_Select1stESt8equal_toIS5_ESt4hashIS5_ENSF_18_Mod_range_hashingENSF_20_Default_ranged_hashENSF_20_Prime_rehash_policyENSF_17_Hashtable_traitsILb1ELb0ELb1EEEE19_M_find_before_nodeEmRS7_m
FN:1948,1970,_ZNKSt10_HashtableINSt7__cxx1112basic_stringIcSt11char_traitsIcESaIcEEESt4pairIKS5_S5_ESaIS8_ENSt8__detail10_Select1stESt8equal_toIS5_ESt4hashIS5_ENSA_18_Mod_range_hashingENSA_20_Default_ranged_hashENSA_20_Prime_rehash_policyENSA_17_Hashtable_traitsILb1ELb0ELb1EEEE19_M_find_before_nodeEmRS7_m
FN:1948,1970,_ZNKSt10_HashtableIjSt4pairIKjSt13unordered_mapINSt7__cxx1112basic_stringIcSt11char_traitsIcESaIcEEES8_St4hashIS8_ESt8equal_toIS8_ESaIS0_IKS8_S8_EEEESaISH_ENSt8__detail10_Select1stESB_IjES9_IjENSJ_18_Mod_range_hashingENSJ_20_Default_ranged_hashENSJ_20_Prime_rehash_policyENSJ_17_Hashtable_traitsILb0ELb0ELb1EEEE19_M_find_before_nodeEmRS1_m
FN:2007,2033,_ZNSt10_HashtableINSt7__cxx1112basic_stringIcSt11char_traitsIcESaIcEEESt4pairIKS5_N12WPEFramework10PluginHost7JSONRPC8ObserverEESaISC_ENSt8__detail10_Select1stESt8equal_toIS5_ESt4hashIS5_ENSE_18_Mod_range_hashingENSE_20_Default_ranged_hashENSE_20_Prime_rehash_policyENSE_17_Hashtable_traitsILb1ELb0ELb1EEEE22_M_insert_bucket_beginEmPNSE_10_Hash_nodeISC_Lb1EEE
FN:2007,2033,_ZNSt10_HashtableINSt7__cxx1112basic_stringIcSt11char_traitsIcESaIcEEESt4pairIKS5_S5_ESaIS8_ENSt8__detail10_Select1stESt8equal_toIS5_ESt4hashIS5_ENSA_18_Mod_range_hashingENSA_20_Default_ranged_hashENSA_20_Prime_rehash_policyENSA_17_Hashtable_traitsILb1ELb0ELb1EEEE22_M_insert_bucket_beginEmPNSA_10_Hash_nodeIS8_Lb1EEE
FN:2007,2033,_ZNSt10_HashtableIjSt4pairIKjSt13unordered_mapINSt7__cxx1112basic_stringIcSt11char_traitsIcESaIcEEES8_St4hashIS8_ESt8equal_toIS8_ESaIS0_IKS8_S8_EEEESaISH_ENSt8__detail10_Select1stESB_IjES9_IjENSJ_18_Mod_range_hashingENSJ_20_Default_ranged_hashENSJ_20_Prime_rehash_policyENSJ_17_Hashtable_traitsILb0ELb0ELb1EEEE22_M_insert_bucket_beginEmPNSJ_10_Hash_nodeISH_Lb0EEE
FN:2040,2057,_ZNSt10_HashtableINSt7__cxx1112basic_stringIcSt11char_traitsIcESaIcEEESt4pairIKS5_N12WPEFramework10PluginHost7JSONRPC8ObserverEESaISC_ENSt8__detail10_Select1stESt8equal_toIS5_ESt4hashIS5_ENSE_18_Mod_range_hashingENSE_20_Default_ranged_hashENSE_20_Prime_rehash_policyENSE_17_Hashtable_traitsILb1ELb0ELb1EEEE22_M_remove_bucket_beginEmPNSE_10_Hash_nodeISC_Lb1EEEm
FN:2064,2073,_ZNSt10_HashtableINSt7__cxx1112basic_stringIcSt11char_traitsIcESaIcEEESt4pairIKS5_N12WPEFramework10PluginHost7JSONRPC8ObserverEESaISC_ENSt8__detail10_Select1stESt8equal_toIS5_ESt4hashIS5_ENSE_18_Mod_range_hashingENSE_20_Default_ranged_hashENSE_20_Prime_rehash_policyENSE_17_Hashtable_traitsILb1ELb0ELb1EEEE20_M_get_previous_nodeEmPNSE_10_Hash_nodeISC_Lb1EEE
FN:2081,2108,_ZNSt10_HashtableINSt7__cxx1112basic_stringIcSt11char_traitsIcESaIcEEESt4pairIKS5_N12WPEFramework10PluginHost7JSONRPC8ObserverEESaISC_ENSt8__detail10_Select1stESt8equal_toIS5_ESt4hashIS5_ENSE_18_Mod_range_hashingENSE_20_Default_ranged_hashENSE_20_Prime_rehash_policyENSE_17_Hashtable_traitsILb1ELb0ELb1EEEE10_M_emplaceIJRKSt21piecewise_construct_tSt5tupleIJRS7_EESU_IJEEEEES6_INSE_14_Node_iteratorISC_Lb0ELb1EEEbESt17integral_constantIbLb1EEDpOT_
FN:2166,2189,_ZNSt10_HashtableINSt7__cxx1112basic_stringIcSt11char_traitsIcESaIcEEESt4pairIKS5_N12WPEFramework10PluginHost7JSONRPC8ObserverEESaISC_ENSt8__detail10_Select1stESt8equal_toIS5_ESt4hashIS5_ENSE_18_Mod_range_hashingENSE_20_Default_ranged_hashENSE_20_Prime_rehash_policyENSE_17_Hashtable_traitsILb1ELb0ELb1EEEE21_M_insert_unique_nodeEmmPNSE_10_Hash_nodeISC_Lb1EEEm
FN:2166,2189,_ZNSt10_HashtableINSt7__cxx1112basic_stringIcSt11char_traitsIcESaIcEEESt4pairIKS5_S5_ESaIS8_ENSt8__detail10_Select1stESt8equal_toIS5_ESt4hashIS5_ENSA_18_Mod_range_hashingENSA_20_Default_ranged_hashENSA_20_Prime_rehash_policyENSA_17_Hashtable_traitsILb1ELb0ELb1EEEE21_M_insert_unique_nodeEmmPNSA_10_Hash_nodeIS8_Lb1EEEm
FN:2166,2189,_ZNSt10_HashtableIjSt4pairIKjSt13unordered_mapINSt7__cxx1112basic_stringIcSt11char_traitsIcESaIcEEES8_St4hashIS8_ESt8equal_toIS8_ESaIS0_IKS8_S8_EEEESaISH_ENSt8__detail10_Select1stESB_IjES9_IjENSJ_18_Mod_range_hashingENSJ_20_Default_ranged_hashENSJ_20_Prime_rehash_policyENSJ_17_Hashtable_traitsILb0ELb0ELb1EEEE21_M_insert_unique_nodeEmmPNSJ_10_Hash_nodeISH_Lb0EEEm
FN:2316,2329,_ZNSt10_HashtableINSt7__cxx1112basic_stringIcSt11char_traitsIcESaIcEEESt4pairIKS5_N12WPEFramework10PluginHost7JSONRPC8ObserverEESaISC_ENSt8__detail10_Select1stESt8equal_toIS5_ESt4hashIS5_ENSE_18_Mod_range_hashingENSE_20_Default_ranged_hashENSE_20_Prime_rehash_policyENSE_17_Hashtable_traitsILb1ELb0ELb1EEEE5eraseENSE_20_Node_const_iteratorISC_Lb0ELb1EEE
FN:2336,2357,_ZNSt10_HashtableINSt7__cxx1112basic_stringIcSt11char_traitsIcESaIcEEESt4pairIKS5_N12WPEFramework10PluginHost7JSONRPC8ObserverEESaISC_ENSt8__detail10_Select1stESt8equal_toIS5_ESt4hashIS5_ENSE_18_Mod_range_hashingENSE_20_Default_ranged_hashENSE_20_Prime_rehash_policyENSE_17_Hashtable_traitsILb1ELb0ELb1EEEE8_M_eraseEmPNSE_15_Hash_node_baseEPNSE_10_Hash_nodeISC_Lb1EEE
FN:2520,2529,_ZNSt10_HashtableINSt7__cxx1112basic_stringIcSt11char_traitsIcESaIcEEESt4pairIKS5_N12WPEFramework10PluginHost7JSONRPC8ObserverEESaISC_ENSt8__detail10_Select1stESt8equal_toIS5_ESt4hashIS5_ENSE_18_Mod_range_hashingENSE_20_Default_ranged_hashENSE_20_Prime_rehash_policyENSE_17_Hashtable_traitsILb1ELb0ELb1EEEE5clearEv
FN:2520,2529,_ZNSt10_HashtableINSt7__cxx1112basic_stringIcSt11char_traitsIcESaIcEEESt4pairIKS5_S5_ESaIS8_ENSt8__detail10_Select1stESt8equal_toIS5_ESt4hashIS5_ENSA_18_Mod_range_hashingENSA_20_Default_ranged_hashENSA_20_Prime_rehash_policyENSA_17_Hashtable_traitsILb1ELb0ELb1EEEE5clearEv
FN:2520,2529,_ZNSt10_HashtableIjSt4pairIKjSt13unordered_mapINSt7__cxx1112basic_stringIcSt11char_traitsIcESaIcEEES8_St4hashIS8_ESt8equal_toIS8_ESaIS0_IKS8_S8_EEEESaISH_ENSt8__detail10_Select1stESB_IjES9_IjENSJ_18_Mod_range_hashingENSJ_20_Default_ranged_hashENSJ_20_Prime_rehash_policyENSJ_17_Hashtable_traitsILb0ELb0ELb1EEEE5clearEv
FN:2559,2574,_ZNSt10_HashtableINSt7__cxx1112basic_stringIcSt11char_traitsIcESaIcEEESt4pairIKS5_N12WPEFramework10PluginHost7JSONRPC8ObserverEESaISC_ENSt8__detail10_Select1stESt8equal_toIS5_ESt4hashIS5_ENSE_18_Mod_range_hashingENSE_20_Default_ranged_hashENSE_20_Prime_rehash_policyENSE_17_Hashtable_traitsILb1ELb0ELb1EEEE9_M_rehashEmRKm
FN:2559,2574,_ZNSt10_HashtableINSt7__cxx1112basic_stringIcSt11char_traitsIcESaIcEEESt4pairIKS5_S5_ESaIS8_ENSt8__detail10_Select1stESt8equal_toIS5_ESt4hashIS5_ENSA_18_Mod_range_hashingENSA_20_Default_ranged_hashENSA_20_Prime_rehash_policyENSA_17_Hashtable_traitsILb1ELb0ELb1EEEE9_M_rehashEmRKm
FN:2559,2574,_ZNSt10_HashtableIjSt4pairIKjSt13unordered_mapINSt7__cxx1112basic_stringIcSt11char_traitsIcESaIcEEES8_St4hashIS8_ESt8equal_toIS8_ESaIS0_IKS8_S8_EEEESaISH_ENSt8__detail10_Select1stESB_IjES9_IjENSJ_18_Mod_range_hashingENSJ_20_Default_ranged_hashENSJ_20_Prime_rehash_policyENSJ_17_Hashtable_traitsILb0ELb0ELb1EEEE9_M_rehashEmRKm
FN:2582,2616,_ZNSt10_HashtableINSt7__cxx1112basic_stringIcSt11char_traitsIcESaIcEEESt4pairIKS5_N12WPEFramework10PluginHost7JSONRPC8ObserverEESaISC_ENSt8__detail10_Select1stESt8equal_toIS5_ESt4hashIS5_ENSE_18_Mod_range_hashingENSE_20_Default_ranged_hashENSE_20_Prime_rehash_policyENSE_17_Hashtable_traitsILb1ELb0ELb1EEEE13_M_rehash_auxEmSt17integral_constantIbLb1EE
FN:2582,2616,_ZNSt10_HashtableINSt7__cxx1112basic_stringIcSt11char_traitsIcESaIcEEESt4pairIKS5_S5_ESaIS8_ENSt8__detail10_Select1stESt8equal_toIS5_ESt4hashIS5_ENSA_18_Mod_range_hashingENSA_20_Default_ranged_hashENSA_20_Prime_rehash_policyENSA_17_Hashtable_traitsILb1ELb0ELb1EEEE13_M_rehash_auxEmSt17integral_constantIbLb1EE
FN:2582,2616,_ZNSt10_HashtableIjSt4pairIKjSt13unordered_mapINSt7__cxx1112basic_stringIcSt11char_traitsIcESaIcEEES8_St4hashIS8_ESt8equal_toIS8_ESaIS0_IKS8_S8_EEEESaISH_ENSt8__detail10_Select1stESB_IjES9_IjENSJ_18_Mod_range_hashingENSJ_20_Default_ranged_hashENSJ_20_Prime_rehash_policyENSJ_17_Hashtable_traitsILb0ELb0ELb1EEEE13_M_rehash_auxEmSt17integral_constantIbLb1EE
FN:305,308,_ZNSt10_HashtableINSt7__cxx1112basic_stringIcSt11char_traitsIcESaIcEEESt4pairIKS5_N12WPEFramework10PluginHost7JSONRPC8ObserverEESaISC_ENSt8__detail10_Select1stESt8equal_toIS5_ESt4hashIS5_ENSE_18_Mod_range_hashingENSE_20_Default_ranged_hashENSE_20_Prime_rehash_policyENSE_17_Hashtable_traitsILb1ELb0ELb1EEEE12_Scoped_nodeC2IJRKSt21piecewise_construct_tSt5tupleIJRS7_EESV_IJEEEEEPNSE_16_Hashtable_allocISaINSE_10_Hash_nodeISC_Lb1EEEEEEDpOT_
FN:305,308,_ZNSt10_HashtableINSt7__cxx1112basic_stringIcSt11char_traitsIcESaIcEEESt4pairIKS5_S5_ESaIS8_ENSt8__detail10_Select1stESt8equal_toIS5_ESt4hashIS5_ENSA_18_Mod_range_hashingENSA_20_Default_ranged_hashENSA_20_Prime_rehash_policyENSA_17_Hashtable_traitsILb1ELb0ELb1EEEE12_Scoped_nodeC2IJRKSt21piecewise_construct_tSt5tupleIJRS7_EESR_IJEEEEEPNSA_16_Hashtable_allocISaINSA_10_Hash_nodeIS8_Lb1EEEEEEDpOT_
FN:305,308,_ZNSt10_HashtableIjSt4pairIKjSt13unordered_mapINSt7__cxx1112basic_stringIcSt11char_traitsIcESaIcEEES8_St4hashIS8_ESt8equal_toIS8_ESaIS0_IKS8_S8_EEEESaISH_ENSt8__detail10_Select1stESB_IjES9_IjENSJ_18_Mod_range_hashingENSJ_20_Default_ranged_hashENSJ_20_Prime_rehash_policyENSJ_17_Hashtable_traitsILb0ELb0ELb1EEEE12_Scoped_nodeC2IJRKSt21piecewise_construct_tSt5tupleIJRS1_EESY_IJEEEEEPNSJ_16_Hashtable_allocISaINSJ_10_Hash_nodeISH_Lb0EEEEEEDpOT_
FN:311,311,_ZNSt10_HashtableINSt7__cxx1112basic_stringIcSt11char_traitsIcESaIcEEESt4pairIKS5_N12WPEFramework10PluginHost7JSONRPC8ObserverEESaISC_ENSt8__detail10_Select1stESt8equal_toIS5_ESt4hashIS5_ENSE_18_Mod_range_hashingENSE_20_Default_ranged_hashENSE_20_Prime_rehash_policyENSE_17_Hashtable_traitsILb1ELb0ELb1EEEE12_Scoped_nodeD2Ev
FN:311,311,_ZNSt10_HashtableINSt7__cxx1112basic_stringIcSt11char_traitsIcESaIcEEESt4pairIKS5_S5_ESaIS8_ENSt8__detail10_Select1stESt8equal_toIS5_ESt4hashIS5_ENSA_18_Mod_range_hashingENSA_20_Default_ranged_hashENSA_20_Prime_rehash_policyENSA_17_Hashtable_traitsILb1ELb0ELb1EEEE12_Scoped_nodeD2Ev
FN:311,311,_ZNSt10_HashtableIjSt4pairIKjSt13unordered_mapINSt7__cxx1112basic_stringIcSt11char_traitsIcESaIcEEES8_St4hashIS8_ESt8equal_toIS8_ESaIS0_IKS8_S8_EEEESaISH_ENSt8__detail10_Select1stESB_IjES9_IjENSJ_18_Mod_range_hashingENSJ_20_Default_ranged_hashENSJ_20_Prime_rehash_policyENSJ_17_Hashtable_traitsILb0ELb0ELb1EEEE12_Scoped_nodeD2Ev
FN:416,417,_ZNKSt10_HashtableINSt7__cxx1112basic_stringIcSt11char_traitsIcESaIcEEESt4pairIKS5_N12WPEFramework10PluginHost7JSONRPC8ObserverEESaISC_ENSt8__detail10_Select1stESt8equal_toIS5_ESt4hashIS5_ENSE_18_Mod_range_hashingENSE_20_Default_ranged_hashENSE_20_Prime_rehash_policyENSE_17_Hashtable_traitsILb1ELb0ELb1EEEE21_M_uses_single_bucketEPPNSE_15_Hash_node_baseE
FN:416,417,_ZNKSt10_HashtableINSt7__cxx1112basic_stringIcSt11char_traitsIcESaIcEEESt4pairIKS5_S5_ESaIS8_ENSt8__detail10_Select1stESt8equal_toIS5_ESt4hashIS5_ENSA_18_Mod_range_hashingENSA_20_Default_ranged_hashENSA_20_Prime_rehash_policyENSA_17_Hashtable_traitsILb1ELb0ELb1EEEE21_M_uses_single_bucketEPPNSA_15_Hash_node_baseE
FN:416,417,_ZNKSt10_HashtableIjSt4pairIKjSt13unordered_mapINSt7__cxx1112basic_stringIcSt11char_traitsIcESaIcEEES8_St4hashIS8_ESt8equal_toIS8_ESaIS0_IKS8_S8_EEEESaISH_ENSt8__detail10_Select1stESB_IjES9_IjENSJ_18_Mod_range_hashingENSJ_20_Default_ranged_hashENSJ_20_Prime_rehash_policyENSJ_17_Hashtable_traitsILb0ELb0ELb1EEEE21_M_uses_single_bucketEPPNSJ_15_Hash_node_baseE
FN:424,428,_ZNSt10_HashtableINSt7__cxx1112basic_stringIcSt11char_traitsIcESaIcEEESt4pairIKS5_N12WPEFramework10PluginHost7JSONRPC8ObserverEESaISC_ENSt8__detail10_Select1stESt8equal_toIS5_ESt4hashIS5_ENSE_18_Mod_range_hashingENSE_20_Default_ranged_hashENSE_20_Prime_rehash_policyENSE_17_Hashtable_traitsILb1ELb0ELb1EEEE22__small_size_thresholdEv
FN:424,428,_ZNSt10_HashtableINSt7__cxx1112basic_stringIcSt11char_traitsIcESaIcEEESt4pairIKS5_N12WPEFramework4Core7JSONRPC7Handler5EntryEESaISD_ENSt8__detail10_Select1stESt8equal_toIS5_ESt4hashIS5_ENSF_18_Mod_range_hashingENSF_20_Default_ranged_hashENSF_20_Prime_rehash_policyENSF_17_Hashtable_traitsILb1ELb0ELb1EEEE22__small_size_thresholdEv
FN:424,428,_ZNSt10_HashtableINSt7__cxx1112basic_stringIcSt11char_traitsIcESaIcEEESt4pairIKS5_S5_ESaIS8_ENSt8__detail10_Select1stESt8equal_toIS5_ESt4hashIS5_ENSA_18_Mod_range_hashingENSA_20_Default_ranged_hashENSA_20_Prime_rehash_policyENSA_17_Hashtable_traitsILb1ELb0ELb1EEEE22__small_size_thresholdEv
FN:424,428,_ZNSt10_HashtableIjSt4pairIKjSt13unordered_mapINSt7__cxx1112basic_stringIcSt11char_traitsIcESaIcEEES8_St4hashIS8_ESt8equal_toIS8_ESaIS0_IKS8_S8_EEEESaISH_ENSt8__detail10_Select1stESB_IjES9_IjENSJ_18_Mod_range_hashingENSJ_20_Default_ranged_hashENSJ_20_Prime_rehash_policyENSJ_17_Hashtable_traitsILb0ELb0ELb1EEEE22__small_size_thresholdEv
FN:434,443,_ZNSt10_HashtableINSt7__cxx1112basic_stringIcSt11char_traitsIcESaIcEEESt4pairIKS5_N12WPEFramework10PluginHost7JSONRPC8ObserverEESaISC_ENSt8__detail10_Select1stESt8equal_toIS5_ESt4hashIS5_ENSE_18_Mod_range_hashingENSE_20_Default_ranged_hashENSE_20_Prime_rehash_policyENSE_17_Hashtable_traitsILb1ELb0ELb1EEEE19_M_allocate_bucketsEm
FN:434,443,_ZNSt10_HashtableINSt7__cxx1112basic_stringIcSt11char_traitsIcESaIcEEESt4pairIKS5_S5_ESaIS8_ENSt8__detail10_Select1stESt8equal_toIS5_ESt4hashIS5_ENSA_18_Mod_range_hashingENSA_20_Default_ranged_hashENSA_20_Prime_rehash_policyENSA_17_Hashtable_traitsILb1ELb0ELb1EEEE19_M_allocate_bucketsEm
FN:434,443,_ZNSt10_HashtableIjSt4pairIKjSt13unordered_mapINSt7__cxx1112basic_stringIcSt11char_traitsIcESaIcEEES8_St4hashIS8_ESt8equal_toIS8_ESaIS0_IKS8_S8_EEEESaISH_ENSt8__detail10_Select1stESB_IjES9_IjENSJ_18_Mod_range_hashingENSJ_20_Default_ranged_hashENSJ_20_Prime_rehash_policyENSJ_17_Hashtable_traitsILb0ELb0ELb1EEEE19_M_allocate_bucketsEm
FN:446,452,_ZNSt10_HashtableINSt7__cxx1112basic_stringIcSt11char_traitsIcESaIcEEESt4pairIKS5_N12WPEFramework10PluginHost7JSONRPC8ObserverEESaISC_ENSt8__detail10_Select1stESt8equal_toIS5_ESt4hashIS5_ENSE_18_Mod_range_hashingENSE_20_Default_ranged_hashENSE_20_Prime_rehash_policyENSE_17_Hashtable_traitsILb1ELb0ELb1EEEE21_M_deallocate_bucketsEPPNSE_15_Hash_node_baseEm
FN:446,452,_ZNSt10_HashtableINSt7__cxx1112basic_stringIcSt11char_traitsIcESaIcEEESt4pairIKS5_S5_ESaIS8_ENSt8__detail10_Select1stESt8equal_toIS5_ESt4hashIS5_ENSA_18_Mod_range_hashingENSA_20_Default_ranged_hashENSA_20_Prime_rehash_policyENSA_17_Hashtable_traitsILb1ELb0ELb1EEEE21_M_deallocate_bucketsEPPNSA_15_Hash_node_baseEm
FN:446,452,_ZNSt10_HashtableIjSt4pairIKjSt13unordered_mapINSt7__cxx1112basic_stringIcSt11char_traitsIcESaIcEEES8_St4hashIS8_ESt8equal_toIS8_ESaIS0_IKS8_S8_EEEESaISH_ENSt8__detail10_Select1stESB_IjES9_IjENSJ_18_Mod_range_hashingENSJ_20_Default_ranged_hashENSJ_20_Prime_rehash_policyENSJ_17_Hashtable_traitsILb0ELb0ELb1EEEE21_M_deallocate_bucketsEPPNSJ_15_Hash_node_baseEm
FN:455,456,_ZNSt10_HashtableINSt7__cxx1112basic_stringIcSt11char_traitsIcESaIcEEESt4pairIKS5_N12WPEFramework10PluginHost7JSONRPC8ObserverEESaISC_ENSt8__detail10_Select1stESt8equal_toIS5_ESt4hashIS5_ENSE_18_Mod_range_hashingENSE_20_Default_ranged_hashENSE_20_Prime_rehash_policyENSE_17_Hashtable_traitsILb1ELb0ELb1EEEE21_M_deallocate_bucketsEv
FN:455,456,_ZNSt10_HashtableINSt7__cxx1112basic_stringIcSt11char_traitsIcESaIcEEESt4pairIKS5_S5_ESaIS8_ENSt8__detail10_Select1stESt8equal_toIS5_ESt4hashIS5_ENSA_18_Mod_range_hashingENSA_20_Default_ranged_hashENSA_20_Prime_rehash_policyENSA_17_Hashtable_traitsILb1ELb0ELb1EEEE21_M_deallocate_bucketsEv
FN:455,456,_ZNSt10_HashtableIjSt4pairIKjSt13unordered_mapINSt7__cxx1112basic_stringIcSt11char_traitsIcESaIcEEES8_St4hashIS8_ESt8equal_toIS8_ESaIS0_IKS8_S8_EEEESaISH_ENSt8__detail10_Select1stESB_IjES9_IjENSJ_18_Mod_range_hashingENSJ_20_Default_ranged_hashENSJ_20_Prime_rehash_policyENSJ_17_Hashtable_traitsILb0ELb0ELb1EEEE21_M_deallocate_bucketsEv
FN:464,465,_ZNKSt10_HashtableINSt7__cxx1112basic_stringIcSt11char_traitsIcESaIcEEESt4pairIKS5_N12WPEFramework10PluginHost7JSONRPC8ObserverEESaISC_ENSt8__detail10_Select1stESt8equal_toIS5_ESt4hashIS5_ENSE_18_Mod_range_hashingENSE_20_Default_ranged_hashENSE_20_Prime_rehash_policyENSE_17_Hashtable_traitsILb1ELb0ELb1EEEE8_M_beginEv
FN:464,465,_ZNKSt10_HashtableINSt7__cxx1112basic_stringIcSt11char_traitsIcESaIcEEESt4pairIKS5_N12WPEFramework4Core7JSONRPC7Handler5EntryEESaISD_ENSt8__detail10_Select1stESt8equal_toIS5_ESt4hashIS5_ENSF_18_Mod_range_hashingENSF_20_Default_ranged_hashENSF_20_Prime_rehash_policyENSF_17_Hashtable_traitsILb1ELb0ELb1EEEE8_M_beginEv
FN:464,465,_ZNKSt10_HashtableINSt7__cxx1112basic_stringIcSt11char_traitsIcESaIcEEESt4pairIKS5_S5_ESaIS8_ENSt8__detail10_Select1stESt8equal_toIS5_ESt4hashIS5_ENSA_18_Mod_range_hashingENSA_20_Default_ranged_hashENSA_20_Prime_rehash_policyENSA_17_Hashtable_traitsILb1ELb0ELb1EEEE8_M_beginEv
FN:464,465,_ZNKSt10_HashtableIjSt4pairIKjSt13unordered_mapINSt7__cxx1112basic_stringIcSt11char_traitsIcESaIcEEES8_St4hashIS8_ESt8equal_toIS8_ESaIS0_IKS8_S8_EEEESaISH_ENSt8__detail10_Select1stESB_IjES9_IjENSJ_18_Mod_range_hashingENSJ_20_Default_ranged_hashENSJ_20_Prime_rehash_policyENSJ_17_Hashtable_traitsILb0ELb0ELb1EEEE8_M_beginEv
FN:530,530,_ZNSt10_HashtableINSt7__cxx1112basic_stringIcSt11char_traitsIcESaIcEEESt4pairIKS5_S5_ESaIS8_ENSt8__detail10_Select1stESt8equal_toIS5_ESt4hashIS5_ENSA_18_Mod_range_hashingENSA_20_Default_ranged_hashENSA_20_Prime_rehash_policyENSA_17_Hashtable_traitsILb1ELb0ELb1EEEEC2Ev
FN:530,530,_ZNSt10_HashtableIjSt4pairIKjSt13unordered_mapINSt7__cxx1112basic_stringIcSt11char_traitsIcESaIcEEES8_St4hashIS8_ESt8equal_toIS8_ESaIS0_IKS8_S8_EEEESaISH_ENSt8__detail10_Select1stESB_IjES9_IjENSJ_18_Mod_range_hashingENSJ_20_Default_ranged_hashENSJ_20_Prime_rehash_policyENSJ_17_Hashtable_traitsILb0ELb0ELb1EEEEC2Ev
FN:623,624,_ZNSt10_HashtableINSt7__cxx1112basic_stringIcSt11char_traitsIcESaIcEEESt4pairIKS5_N12WPEFramework10PluginHost7JSONRPC8ObserverEESaISC_ENSt8__detail10_Select1stESt8equal_toIS5_ESt4hashIS5_ENSE_18_Mod_range_hashingENSE_20_Default_ranged_hashENSE_20_Prime_rehash_policyENSE_17_Hashtable_traitsILb1ELb0ELb1EEEE5beginEv
FN:623,624,_ZNSt10_HashtableINSt7__cxx1112basic_stringIcSt11char_traitsIcESaIcEEESt4pairIKS5_N12WPEFramework4Core7JSONRPC7Handler5EntryEESaISD_ENSt8__detail10_Select1stESt8equal_toIS5_ESt4hashIS5_ENSF_18_Mod_range_hashingENSF_20_Default_ranged_hashENSF_20_Prime_rehash_policyENSF_17_Hashtable_traitsILb1ELb0ELb1EEEE5beginEv
FN:623,624,_ZNSt10_HashtableINSt7__cxx1112basic_stringIcSt11char_traitsIcESaIcEEESt4pairIKS5_S5_ESaIS8_ENSt8__detail10_Select1stESt8equal_toIS5_ESt4hashIS5_ENSA_18_Mod_range_hashingENSA_20_Default_ranged_hashENSA_20_Prime_rehash_policyENSA_17_Hashtable_traitsILb1ELb0ELb1EEEE5beginEv
FN:623,624,_ZNSt10_HashtableIjSt4pairIKjSt13unordered_mapINSt7__cxx1112basic_stringIcSt11char_traitsIcESaIcEEES8_St4hashIS8_ESt8equal_toIS8_ESaIS0_IKS8_S8_EEEESaISH_ENSt8__detail10_Select1stESB_IjES9_IjENSJ_18_Mod_range_hashingENSJ_20_Default_ranged_hashENSJ_20_Prime_rehash_policyENSJ_17_Hashtable_traitsILb0ELb0ELb1EEEE5beginEv
FN:627,628,_ZNKSt10_HashtableINSt7__cxx1112basic_stringIcSt11char_traitsIcESaIcEEESt4pairIKS5_N12WPEFramework4Core7JSONRPC7Handler5EntryEESaISD_ENSt8__detail10_Select1stESt8equal_toIS5_ESt4hashIS5_ENSF_18_Mod_range_hashingENSF_20_Default_ranged_hashENSF_20_Prime_rehash_policyENSF_17_Hashtable_traitsILb1ELb0ELb1EEEE5beginEv
FN:631,632,_ZNSt10_HashtableINSt7__cxx1112basic_stringIcSt11char_traitsIcESaIcEEESt4pairIKS5_N12WPEFramework10PluginHost7JSONRPC8ObserverEESaISC_ENSt8__detail10_Select1stESt8equal_toIS5_ESt4hashIS5_ENSE_18_Mod_range_hashingENSE_20_Default_ranged_hashENSE_20_Prime_rehash_policyENSE_17_Hashtable_traitsILb1ELb0ELb1EEEE3endEv
FN:631,632,_ZNSt10_HashtableINSt7__cxx1112basic_stringIcSt11char_traitsIcESaIcEEESt4pairIKS5_N12WPEFramework4Core7JSONRPC7Handler5EntryEESaISD_ENSt8__detail10_Select1stESt8equal_toIS5_ESt4hashIS5_ENSF_18_Mod_range_hashingENSF_20_Default_ranged_hashENSF_20_Prime_rehash_policyENSF_17_Hashtable_traitsILb1ELb0ELb1EEEE3endEv
FN:631,632,_ZNSt10_HashtableINSt7__cxx1112basic_stringIcSt11char_traitsIcESaIcEEESt4pairIKS5_S5_ESaIS8_ENSt8__detail10_Select1stESt8equal_toIS5_ESt4hashIS5_ENSA_18_Mod_range_hashingENSA_20_Default_ranged_hashENSA_20_Prime_rehash_policyENSA_17_Hashtable_traitsILb1ELb0ELb1EEEE3endEv
FN:631,632,_ZNSt10_HashtableIjSt4pairIKjSt13unordered_mapINSt7__cxx1112basic_stringIcSt11char_traitsIcESaIcEEES8_St4hashIS8_ESt8equal_toIS8_ESaIS0_IKS8_S8_EEEESaISH_ENSt8__detail10_Select1stESB_IjES9_IjENSJ_18_Mod_range_hashingENSJ_20_Default_ranged_hashENSJ_20_Prime_rehash_policyENSJ_17_Hashtable_traitsILb0ELb0ELb1EEEE3endEv
FN:635,636,_ZNKSt10_HashtableINSt7__cxx1112basic_stringIcSt11char_traitsIcESaIcEEESt4pairIKS5_N12WPEFramework4Core7JSONRPC7Handler5EntryEESaISD_ENSt8__detail10_Select1stESt8equal_toIS5_ESt4hashIS5_ENSF_18_Mod_range_hashingENSF_20_Default_ranged_hashENSF_20_Prime_rehash_policyENSF_17_Hashtable_traitsILb1ELb0ELb1EEEE3endEv
FN:647,648,_ZNKSt10_HashtableINSt7__cxx1112basic_stringIcSt11char_traitsIcESaIcEEESt4pairIKS5_N12WPEFramework10PluginHost7JSONRPC8ObserverEESaISC_ENSt8__detail10_Select1stESt8equal_toIS5_ESt4hashIS5_ENSE_18_Mod_range_hashingENSE_20_Default_ranged_hashENSE_20_Prime_rehash_policyENSE_17_Hashtable_traitsILb1ELb0ELb1EEEE4sizeEv
FN:647,648,_ZNKSt10_HashtableINSt7__cxx1112basic_stringIcSt11char_traitsIcESaIcEEESt4pairIKS5_N12WPEFramework4Core7JSONRPC7Handler5EntryEESaISD_ENSt8__detail10_Select1stESt8equal_toIS5_ESt4hashIS5_ENSF_18_Mod_range_hashingENSF_20_Default_ranged_hashENSF_20_Prime_rehash_policyENSF_17_Hashtable_traitsILb1ELb0ELb1EEEE4sizeEv
FN:647,648,_ZNKSt10_HashtableINSt7__cxx1112basic_stringIcSt11char_traitsIcESaIcEEESt4pairIKS5_S5_ESaIS8_ENSt8__detail10_Select1stESt8equal_toIS5_ESt4hashIS5_ENSA_18_Mod_range_hashingENSA_20_Default_ranged_hashENSA_20_Prime_rehash_policyENSA_17_Hashtable_traitsILb1ELb0ELb1EEEE4sizeEv
FN:647,648,_ZNKSt10_HashtableIjSt4pairIKjSt13unordered_mapINSt7__cxx1112basic_stringIcSt11char_traitsIcESaIcEEES8_St4hashIS8_ESt8equal_toIS8_ESaIS0_IKS8_S8_EEEESaISH_ENSt8__detail10_Select1stESB_IjES9_IjENSJ_18_Mod_range_hashingENSJ_20_Default_ranged_hashENSJ_20_Prime_rehash_policyENSJ_17_Hashtable_traitsILb0ELb0ELb1EEEE4sizeEv
FN:792,793,_ZNKSt10_HashtableINSt7__cxx1112basic_stringIcSt11char_traitsIcESaIcEEESt4pairIKS5_N12WPEFramework10PluginHost7JSONRPC8ObserverEESaISC_ENSt8__detail10_Select1stESt8equal_toIS5_ESt4hashIS5_ENSE_18_Mod_range_hashingENSE_20_Default_ranged_hashENSE_20_Prime_rehash_policyENSE_17_Hashtable_traitsILb1ELb0ELb1EEEE15_M_bucket_indexERKNSE_16_Hash_node_valueISC_Lb1EEE
FN:792,793,_ZNKSt10_HashtableINSt7__cxx1112basic_stringIcSt11char_traitsIcESaIcEEESt4pairIKS5_N12WPEFramework4Core7JSONRPC7Handler5EntryEESaISD_ENSt8__detail10_Select1stESt8equal_toIS5_ESt4hashIS5_ENSF_18_Mod_range_hashingENSF_20_Default_ranged_hashENSF_20_Prime_rehash_policyENSF_17_Hashtable_traitsILb1ELb0ELb1EEEE15_M_bucket_indexERKNSF_16_Hash_node_valueISD_Lb1EEE
FN:792,793,_ZNKSt10_HashtableINSt7__cxx1112basic_stringIcSt11char_traitsIcESaIcEEESt4pairIKS5_S5_ESaIS8_ENSt8__detail10_Select1stESt8equal_toIS5_ESt4hashIS5_ENSA_18_Mod_range_hashingENSA_20_Default_ranged_hashENSA_20_Prime_rehash_policyENSA_17_Hashtable_traitsILb1ELb0ELb1EEEE15_M_bucket_indexERKNSA_16_Hash_node_valueIS8_Lb1EEE
FN:792,793,_ZNKSt10_HashtableIjSt4pairIKjSt13unordered_mapINSt7__cxx1112basic_stringIcSt11char_traitsIcESaIcEEES8_St4hashIS8_ESt8equal_toIS8_ESaIS0_IKS8_S8_EEEESaISH_ENSt8__detail10_Select1stESB_IjES9_IjENSJ_18_Mod_range_hashingENSJ_20_Default_ranged_hashENSJ_20_Prime_rehash_policyENSJ_17_Hashtable_traitsILb0ELb0ELb1EEEE15_M_bucket_indexERKNSJ_16_Hash_node_valueISH_Lb0EEE
FN:796,797,_ZNKSt10_HashtableINSt7__cxx1112basic_stringIcSt11char_traitsIcESaIcEEESt4pairIKS5_N12WPEFramework10PluginHost7JSONRPC8ObserverEESaISC_ENSt8__detail10_Select1stESt8equal_toIS5_ESt4hashIS5_ENSE_18_Mod_range_hashingENSE_20_Default_ranged_hashENSE_20_Prime_rehash_policyENSE_17_Hashtable_traitsILb1ELb0ELb1EEEE15_M_bucket_indexEm
FN:796,797,_ZNKSt10_HashtableINSt7__cxx1112basic_stringIcSt11char_traitsIcESaIcEEESt4pairIKS5_N12WPEFramework4Core7JSONRPC7Handler5EntryEESaISD_ENSt8__detail10_Select1stESt8equal_toIS5_ESt4hashIS5_ENSF_18_Mod_range_hashingENSF_20_Default_ranged_hashENSF_20_Prime_rehash_policyENSF_17_Hashtable_traitsILb1ELb0ELb1EEEE15_M_bucket_indexEm
FN:796,797,_ZNKSt10_HashtableINSt7__cxx1112basic_stringIcSt11char_traitsIcESaIcEEESt4pairIKS5_S5_ESaIS8_ENSt8__detail10_Select1stESt8equal_toIS5_ESt4hashIS5_ENSA_18_Mod_range_hashingENSA_20_Default_ranged_hashENSA_20_Prime_rehash_policyENSA_17_Hashtable_traitsILb1ELb0ELb1EEEE15_M_bucket_indexEm
FN:796,797,_ZNKSt10_HashtableIjSt4pairIKjSt13unordered_mapINSt7__cxx1112basic_stringIcSt11char_traitsIcESaIcEEES8_St4hashIS8_ESt8equal_toIS8_ESaIS0_IKS8_S8_EEEESaISH_ENSt8__detail10_Select1stESB_IjES9_IjENSJ_18_Mod_range_hashingENSJ_20_Default_ranged_hashENSJ_20_Prime_rehash_policyENSJ_17_Hashtable_traitsILb0ELb0ELb1EEEE15_M_bucket_indexEm
FN:812,819,_ZNKSt10_HashtableINSt7__cxx1112basic_stringIcSt11char_traitsIcESaIcEEESt4pairIKS5_N12WPEFramework10PluginHost7JSONRPC8ObserverEESaISC_ENSt8__detail10_Select1stESt8equal_toIS5_ESt4hashIS5_ENSE_18_Mod_range_hashingENSE_20_Default_ranged_hashENSE_20_Prime_rehash_policyENSE_17_Hashtable_traitsILb1ELb0ELb1EEEE12_M_find_nodeEmRS7_m
FN:812,819,_ZNKSt10_HashtableINSt7__cxx1112basic_stringIcSt11char_traitsIcESaIcEEESt4pairIKS5_N12WPEFramework4Core7JSONRPC7Handler5EntryEESaISD_ENSt8__detail10_Select1stESt8equal_toIS5_ESt4hashIS5_ENSF_18_Mod_range_hashingENSF_20_Default_ranged_hashENSF_20_Prime_rehash_policyENSF_17_Hashtable_traitsILb1ELb0ELb1EEEE12_M_find_nodeEmRS7_m
FN:812,819,_ZNKSt10_HashtableINSt7__cxx1112basic_stringIcSt11char_traitsIcESaIcEEESt4pairIKS5_S5_ESaIS8_ENSt8__detail10_Select1stESt8equal_toIS5_ESt4hashIS5_ENSA_18_Mod_range_hashingENSA_20_Default_ranged_hashENSA_20_Prime_rehash_policyENSA_17_Hashtable_traitsILb1ELb0ELb1EEEE12_M_find_nodeEmRS7_m
FN:812,819,_ZNKSt10_HashtableIjSt4pairIKjSt13unordered_mapINSt7__cxx1112basic_stringIcSt11char_traitsIcESaIcEEES8_St4hashIS8_ESt8equal_toIS8_ESaIS0_IKS8_S8_EEEESaISH_ENSt8__detail10_Select1stESB_IjES9_IjENSJ_18_Mod_range_hashingENSJ_20_Default_ranged_hashENSJ_20_Prime_rehash_policyENSJ_17_Hashtable_traitsILb0ELb0ELb1EEEE12_M_find_nodeEmRS1_m
FN:960,961,_ZNSt10_HashtableINSt7__cxx1112basic_stringIcSt11char_traitsIcESaIcEEESt4pairIKS5_N12WPEFramework10PluginHost7JSONRPC8ObserverEESaISC_ENSt8__detail10_Select1stESt8equal_toIS5_ESt4hashIS5_ENSE_18_Mod_range_hashingENSE_20_Default_ranged_hashENSE_20_Prime_rehash_policyENSE_17_Hashtable_traitsILb1ELb0ELb1EEEE7emplaceIJRKSt21piecewise_construct_tSt5tupleIJRS7_EESU_IJEEEEES6_INSE_14_Node_iteratorISC_Lb0ELb1EEEbEDpOT_
FN:979,980,_ZNSt10_HashtableINSt7__cxx1112basic_stringIcSt11char_traitsIcESaIcEEESt4pairIKS5_N12WPEFramework10PluginHost7JSONRPC8ObserverEESaISC_ENSt8__detail10_Select1stESt8equal_toIS5_ESt4hashIS5_ENSE_18_Mod_range_hashingENSE_20_Default_ranged_hashENSE_20_Prime_rehash_policyENSE_17_Hashtable_traitsILb1ELb0ELb1EEEE5eraseENSE_14_Node_iteratorISC_Lb0ELb1EEE
FNDA:0,_ZNSt10_HashtableINSt7__cxx1112basic_stringIcSt11char_traitsIcESaIcEEESt4pairIKS5_S5_ESaIS8_ENSt8__detail10_Select1stESt8equal_toIS5_ESt4hashIS5_ENSA_18_Mod_range_hashingENSA_20_Default_ranged_hashENSA_20_Prime_rehash_policyENSA_17_Hashtable_traitsILb1ELb0ELb1EEEED2Ev
FNDA:3,_ZNSt10_HashtableIjSt4pairIKjSt13unordered_mapINSt7__cxx1112basic_stringIcSt11char_traitsIcESaIcEEES8_St4hashIS8_ESt8equal_toIS8_ESaIS0_IKS8_S8_EEEESaISH_ENSt8__detail10_Select1stESB_IjES9_IjENSJ_18_Mod_range_hashingENSJ_20_Default_ranged_hashENSJ_20_Prime_rehash_policyENSJ_17_Hashtable_traitsILb0ELb0ELb1EEEED2Ev
FNDA:0,_ZNSt10_HashtableINSt7__cxx1112basic_stringIcSt11char_traitsIcESaIcEEESt4pairIKS5_N12WPEFramework10PluginHost7JSONRPC8ObserverEESaISC_ENSt8__detail10_Select1stESt8equal_toIS5_ESt4hashIS5_ENSE_18_Mod_range_hashingENSE_20_Default_ranged_hashENSE_20_Prime_rehash_policyENSE_17_Hashtable_traitsILb1ELb0ELb1EEEE4findERS7_
FNDA:47,_ZNSt10_HashtableINSt7__cxx1112basic_stringIcSt11char_traitsIcESaIcEEESt4pairIKS5_N12WPEFramework4Core7JSONRPC7Handler5EntryEESaISD_ENSt8__detail10_Select1stESt8equal_toIS5_ESt4hashIS5_ENSF_18_Mod_range_hashingENSF_20_Default_ranged_hashENSF_20_Prime_rehash_policyENSF_17_Hashtable_traitsILb1ELb0ELb1EEEE4findERS7_
FNDA:2,_ZNSt10_HashtableINSt7__cxx1112basic_stringIcSt11char_traitsIcESaIcEEESt4pairIKS5_S5_ESaIS8_ENSt8__detail10_Select1stESt8equal_toIS5_ESt4hashIS5_ENSA_18_Mod_range_hashingENSA_20_Default_ranged_hashENSA_20_Prime_rehash_policyENSA_17_Hashtable_traitsILb1ELb0ELb1EEEE4findERS7_
FNDA:3,_ZNSt10_HashtableIjSt4pairIKjSt13unordered_mapINSt7__cxx1112basic_stringIcSt11char_traitsIcESaIcEEES8_St4hashIS8_ESt8equal_toIS8_ESaIS0_IKS8_S8_EEEESaISH_ENSt8__detail10_Select1stESB_IjES9_IjENSJ_18_Mod_range_hashingENSJ_20_Default_ranged_hashENSJ_20_Prime_rehash_policyENSJ_17_Hashtable_traitsILb0ELb0ELb1EEEE4findERS1_
FNDA:49,_ZNKSt10_HashtableINSt7__cxx1112basic_stringIcSt11char_traitsIcESaIcEEESt4pairIKS5_N12WPEFramework4Core7JSONRPC7Handler5EntryEESaISD_ENSt8__detail10_Select1stESt8equal_toIS5_ESt4hashIS5_ENSF_18_Mod_range_hashingENSF_20_Default_ranged_hashENSF_20_Prime_rehash_policyENSF_17_Hashtable_traitsILb1ELb0ELb1EEEE4findERS7_
FNDA:0,_ZNKSt10_HashtableINSt7__cxx1112basic_stringIcSt11char_traitsIcESaIcEEESt4pairIKS5_N12WPEFramework10PluginHost7JSONRPC8ObserverEESaISC_ENSt8__detail10_Select1stESt8equal_toIS5_ESt4hashIS5_ENSE_18_Mod_range_hashingENSE_20_Default_ranged_hashENSE_20_Prime_rehash_policyENSE_17_Hashtable_traitsILb1ELb0ELb1EEEE19_M_find_before_nodeEmRS7_m
FNDA:0,_ZNKSt10_HashtableINSt7__cxx1112basic_stringIcSt11char_traitsIcESaIcEEESt4pairIKS5_N12WPEFramework4Core7JSONRPC7Handler5EntryEESaISD_ENSt8__detail10_Select1stESt8equal_toIS5_ESt4hashIS5_ENSF_18_Mod_range_hashingENSF_20_Default_ranged_hashENSF_20_Prime_rehash_policyENSF_17_Hashtable_traitsILb1ELb0ELb1EEEE19_M_find_before_nodeEmRS7_m
FNDA:1,_ZNKSt10_HashtableINSt7__cxx1112basic_stringIcSt11char_traitsIcESaIcEEESt4pairIKS5_S5_ESaIS8_ENSt8__detail10_Select1stESt8equal_toIS5_ESt4hashIS5_ENSA_18_Mod_range_hashingENSA_20_Default_ranged_hashENSA_20_Prime_rehash_policyENSA_17_Hashtable_traitsILb1ELb0ELb1EEEE19_M_find_before_nodeEmRS7_m
FNDA:4,_ZNKSt10_HashtableIjSt4pairIKjSt13unordered_mapINSt7__cxx1112basic_stringIcSt11char_traitsIcESaIcEEES8_St4hashIS8_ESt8equal_toIS8_ESaIS0_IKS8_S8_EEEESaISH_ENSt8__detail10_Select1stESB_IjES9_IjENSJ_18_Mod_range_hashingENSJ_20_Default_ranged_hashENSJ_20_Prime_rehash_policyENSJ_17_Hashtable_traitsILb0ELb0ELb1EEEE19_M_find_before_nodeEmRS1_m
FNDA:0,_ZNSt10_HashtableINSt7__cxx1112basic_stringIcSt11char_traitsIcESaIcEEESt4pairIKS5_N12WPEFramework10PluginHost7JSONRPC8ObserverEESaISC_ENSt8__detail10_Select1stESt8equal_toIS5_ESt4hashIS5_ENSE_18_Mod_range_hashingENSE_20_Default_ranged_hashENSE_20_Prime_rehash_policyENSE_17_Hashtable_traitsILb1ELb0ELb1EEEE22_M_insert_bucket_beginEmPNSE_10_Hash_nodeISC_Lb1EEE
FNDA:1,_ZNSt10_HashtableINSt7__cxx1112basic_stringIcSt11char_traitsIcESaIcEEESt4pairIKS5_S5_ESaIS8_ENSt8__detail10_Select1stESt8equal_toIS5_ESt4hashIS5_ENSA_18_Mod_range_hashingENSA_20_Default_ranged_hashENSA_20_Prime_rehash_policyENSA_17_Hashtable_traitsILb1ELb0ELb1EEEE22_M_insert_bucket_beginEmPNSA_10_Hash_nodeIS8_Lb1EEE
FNDA:1,_ZNSt10_HashtableIjSt4pairIKjSt13unordered_mapINSt7__cxx1112basic_stringIcSt11char_traitsIcESaIcEEES8_St4hashIS8_ESt8equal_toIS8_ESaIS0_IKS8_S8_EEEESaISH_ENSt8__detail10_Select1stESB_IjES9_IjENSJ_18_Mod_range_hashingENSJ_20_Default_ranged_hashENSJ_20_Prime_rehash_policyENSJ_17_Hashtable_traitsILb0ELb0ELb1EEEE22_M_insert_bucket_beginEmPNSJ_10_Hash_nodeISH_Lb0EEE
FNDA:0,_ZNSt10_HashtableINSt7__cxx1112basic_stringIcSt11char_traitsIcESaIcEEESt4pairIKS5_N12WPEFramework10PluginHost7JSONRPC8ObserverEESaISC_ENSt8__detail10_Select1stESt8equal_toIS5_ESt4hashIS5_ENSE_18_Mod_range_hashingENSE_20_Default_ranged_hashENSE_20_Prime_rehash_policyENSE_17_Hashtable_traitsILb1ELb0ELb1EEEE22_M_remove_bucket_beginEmPNSE_10_Hash_nodeISC_Lb1EEEm
FNDA:0,_ZNSt10_HashtableINSt7__cxx1112basic_stringIcSt11char_traitsIcESaIcEEESt4pairIKS5_N12WPEFramework10PluginHost7JSONRPC8ObserverEESaISC_ENSt8__detail10_Select1stESt8equal_toIS5_ESt4hashIS5_ENSE_18_Mod_range_hashingENSE_20_Default_ranged_hashENSE_20_Prime_rehash_policyENSE_17_Hashtable_traitsILb1ELb0ELb1EEEE20_M_get_previous_nodeEmPNSE_10_Hash_nodeISC_Lb1EEE
FNDA:0,_ZNSt10_HashtableINSt7__cxx1112basic_stringIcSt11char_traitsIcESaIcEEESt4pairIKS5_N12WPEFramework10PluginHost7JSONRPC8ObserverEESaISC_ENSt8__detail10_Select1stESt8equal_toIS5_ESt4hashIS5_ENSE_18_Mod_range_hashingENSE_20_Default_ranged_hashENSE_20_Prime_rehash_policyENSE_17_Hashtable_traitsILb1ELb0ELb1EEEE10_M_emplaceIJRKSt21piecewise_construct_tSt5tupleIJRS7_EESU_IJEEEEES6_INSE_14_Node_iteratorISC_Lb0ELb1EEEbESt17integral_constantIbLb1EEDpOT_
FNDA:0,_ZNSt10_HashtableINSt7__cxx1112basic_stringIcSt11char_traitsIcESaIcEEESt4pairIKS5_N12WPEFramework10PluginHost7JSONRPC8ObserverEESaISC_ENSt8__detail10_Select1stESt8equal_toIS5_ESt4hashIS5_ENSE_18_Mod_range_hashingENSE_20_Default_ranged_hashENSE_20_Prime_rehash_policyENSE_17_Hashtable_traitsILb1ELb0ELb1EEEE21_M_insert_unique_nodeEmmPNSE_10_Hash_nodeISC_Lb1EEEm
FNDA:1,_ZNSt10_HashtableINSt7__cxx1112basic_stringIcSt11char_traitsIcESaIcEEESt4pairIKS5_S5_ESaIS8_ENSt8__detail10_Select1stESt8equal_toIS5_ESt4hashIS5_ENSA_18_Mod_range_hashingENSA_20_Default_ranged_hashENSA_20_Prime_rehash_policyENSA_17_Hashtable_traitsILb1ELb0ELb1EEEE21_M_insert_unique_nodeEmmPNSA_10_Hash_nodeIS8_Lb1EEEm
FNDA:1,_ZNSt10_HashtableIjSt4pairIKjSt13unordered_mapINSt7__cxx1112basic_stringIcSt11char_traitsIcESaIcEEES8_St4hashIS8_ESt8equal_toIS8_ESaIS0_IKS8_S8_EEEESaISH_ENSt8__detail10_Select1stESB_IjES9_IjENSJ_18_Mod_range_hashingENSJ_20_Default_ranged_hashENSJ_20_Prime_rehash_policyENSJ_17_Hashtable_traitsILb0ELb0ELb1EEEE21_M_insert_unique_nodeEmmPNSJ_10_Hash_nodeISH_Lb0EEEm
FNDA:0,_ZNSt10_HashtableINSt7__cxx1112basic_stringIcSt11char_traitsIcESaIcEEESt4pairIKS5_N12WPEFramework10PluginHost7JSONRPC8ObserverEESaISC_ENSt8__detail10_Select1stESt8equal_toIS5_ESt4hashIS5_ENSE_18_Mod_range_hashingENSE_20_Default_ranged_hashENSE_20_Prime_rehash_policyENSE_17_Hashtable_traitsILb1ELb0ELb1EEEE5eraseENSE_20_Node_const_iteratorISC_Lb0ELb1EEE
FNDA:0,_ZNSt10_HashtableINSt7__cxx1112basic_stringIcSt11char_traitsIcESaIcEEESt4pairIKS5_N12WPEFramework10PluginHost7JSONRPC8ObserverEESaISC_ENSt8__detail10_Select1stESt8equal_toIS5_ESt4hashIS5_ENSE_18_Mod_range_hashingENSE_20_Default_ranged_hashENSE_20_Prime_rehash_policyENSE_17_Hashtable_traitsILb1ELb0ELb1EEEE8_M_eraseEmPNSE_15_Hash_node_baseEPNSE_10_Hash_nodeISC_Lb1EEE
FNDA:27,_ZNSt10_HashtableINSt7__cxx1112basic_stringIcSt11char_traitsIcESaIcEEESt4pairIKS5_N12WPEFramework10PluginHost7JSONRPC8ObserverEESaISC_ENSt8__detail10_Select1stESt8equal_toIS5_ESt4hashIS5_ENSE_18_Mod_range_hashingENSE_20_Default_ranged_hashENSE_20_Prime_rehash_policyENSE_17_Hashtable_traitsILb1ELb0ELb1EEEE5clearEv
FNDA:0,_ZNSt10_HashtableINSt7__cxx1112basic_stringIcSt11char_traitsIcESaIcEEESt4pairIKS5_S5_ESaIS8_ENSt8__detail10_Select1stESt8equal_toIS5_ESt4hashIS5_ENSA_18_Mod_range_hashingENSA_20_Default_ranged_hashENSA_20_Prime_rehash_policyENSA_17_Hashtable_traitsILb1ELb0ELb1EEEE5clearEv
FNDA:3,_ZNSt10_HashtableIjSt4pairIKjSt13unordered_mapINSt7__cxx1112basic_stringIcSt11char_traitsIcESaIcEEES8_St4hashIS8_ESt8equal_toIS8_ESaIS0_IKS8_S8_EEEESaISH_ENSt8__detail10_Select1stESB_IjES9_IjENSJ_18_Mod_range_hashingENSJ_20_Default_ranged_hashENSJ_20_Prime_rehash_policyENSJ_17_Hashtable_traitsILb0ELb0ELb1EEEE5clearEv
FNDA:0,_ZNSt10_HashtableINSt7__cxx1112basic_stringIcSt11char_traitsIcESaIcEEESt4pairIKS5_N12WPEFramework10PluginHost7JSONRPC8ObserverEESaISC_ENSt8__detail10_Select1stESt8equal_toIS5_ESt4hashIS5_ENSE_18_Mod_range_hashingENSE_20_Default_ranged_hashENSE_20_Prime_rehash_policyENSE_17_Hashtable_traitsILb1ELb0ELb1EEEE9_M_rehashEmRKm
FNDA:1,_ZNSt10_HashtableINSt7__cxx1112basic_stringIcSt11char_traitsIcESaIcEEESt4pairIKS5_S5_ESaIS8_ENSt8__detail10_Select1stESt8equal_toIS5_ESt4hashIS5_ENSA_18_Mod_range_hashingENSA_20_Default_ranged_hashENSA_20_Prime_rehash_policyENSA_17_Hashtable_traitsILb1ELb0ELb1EEEE9_M_rehashEmRKm
FNDA:1,_ZNSt10_HashtableIjSt4pairIKjSt13unordered_mapINSt7__cxx1112basic_stringIcSt11char_traitsIcESaIcEEES8_St4hashIS8_ESt8equal_toIS8_ESaIS0_IKS8_S8_EEEESaISH_ENSt8__detail10_Select1stESB_IjES9_IjENSJ_18_Mod_range_hashingENSJ_20_Default_ranged_hashENSJ_20_Prime_rehash_policyENSJ_17_Hashtable_traitsILb0ELb0ELb1EEEE9_M_rehashEmRKm
FNDA:0,_ZNSt10_HashtableINSt7__cxx1112basic_stringIcSt11char_traitsIcESaIcEEESt4pairIKS5_N12WPEFramework10PluginHost7JSONRPC8ObserverEESaISC_ENSt8__detail10_Select1stESt8equal_toIS5_ESt4hashIS5_ENSE_18_Mod_range_hashingENSE_20_Default_ranged_hashENSE_20_Prime_rehash_policyENSE_17_Hashtable_traitsILb1ELb0ELb1EEEE13_M_rehash_auxEmSt17integral_constantIbLb1EE
FNDA:1,_ZNSt10_HashtableINSt7__cxx1112basic_stringIcSt11char_traitsIcESaIcEEESt4pairIKS5_S5_ESaIS8_ENSt8__detail10_Select1stESt8equal_toIS5_ESt4hashIS5_ENSA_18_Mod_range_hashingENSA_20_Default_ranged_hashENSA_20_Prime_rehash_policyENSA_17_Hashtable_traitsILb1ELb0ELb1EEEE13_M_rehash_auxEmSt17integral_constantIbLb1EE
FNDA:1,_ZNSt10_HashtableIjSt4pairIKjSt13unordered_mapINSt7__cxx1112basic_stringIcSt11char_traitsIcESaIcEEES8_St4hashIS8_ESt8equal_toIS8_ESaIS0_IKS8_S8_EEEESaISH_ENSt8__detail10_Select1stESB_IjES9_IjENSJ_18_Mod_range_hashingENSJ_20_Default_ranged_hashENSJ_20_Prime_rehash_policyENSJ_17_Hashtable_traitsILb0ELb0ELb1EEEE13_M_rehash_auxEmSt17integral_constantIbLb1EE
FNDA:0,_ZNSt10_HashtableINSt7__cxx1112basic_stringIcSt11char_traitsIcESaIcEEESt4pairIKS5_N12WPEFramework10PluginHost7JSONRPC8ObserverEESaISC_ENSt8__detail10_Select1stESt8equal_toIS5_ESt4hashIS5_ENSE_18_Mod_range_hashingENSE_20_Default_ranged_hashENSE_20_Prime_rehash_policyENSE_17_Hashtable_traitsILb1ELb0ELb1EEEE12_Scoped_nodeC2IJRKSt21piecewise_construct_tSt5tupleIJRS7_EESV_IJEEEEEPNSE_16_Hashtable_allocISaINSE_10_Hash_nodeISC_Lb1EEEEEEDpOT_
FNDA:1,_ZNSt10_HashtableINSt7__cxx1112basic_stringIcSt11char_traitsIcESaIcEEESt4pairIKS5_S5_ESaIS8_ENSt8__detail10_Select1stESt8equal_toIS5_ESt4hashIS5_ENSA_18_Mod_range_hashingENSA_20_Default_ranged_hashENSA_20_Prime_rehash_policyENSA_17_Hashtable_traitsILb1ELb0ELb1EEEE12_Scoped_nodeC2IJRKSt21piecewise_construct_tSt5tupleIJRS7_EESR_IJEEEEEPNSA_16_Hashtable_allocISaINSA_10_Hash_nodeIS8_Lb1EEEEEEDpOT_
FNDA:1,_ZNSt10_HashtableIjSt4pairIKjSt13unordered_mapINSt7__cxx1112basic_stringIcSt11char_traitsIcESaIcEEES8_St4hashIS8_ESt8equal_toIS8_ESaIS0_IKS8_S8_EEEESaISH_ENSt8__detail10_Select1stESB_IjES9_IjENSJ_18_Mod_range_hashingENSJ_20_Default_ranged_hashENSJ_20_Prime_rehash_policyENSJ_17_Hashtable_traitsILb0ELb0ELb1EEEE12_Scoped_nodeC2IJRKSt21piecewise_construct_tSt5tupleIJRS1_EESY_IJEEEEEPNSJ_16_Hashtable_allocISaINSJ_10_Hash_nodeISH_Lb0EEEEEEDpOT_
FNDA:0,_ZNSt10_HashtableINSt7__cxx1112basic_stringIcSt11char_traitsIcESaIcEEESt4pairIKS5_N12WPEFramework10PluginHost7JSONRPC8ObserverEESaISC_ENSt8__detail10_Select1stESt8equal_toIS5_ESt4hashIS5_ENSE_18_Mod_range_hashingENSE_20_Default_ranged_hashENSE_20_Prime_rehash_policyENSE_17_Hashtable_traitsILb1ELb0ELb1EEEE12_Scoped_nodeD2Ev
FNDA:1,_ZNSt10_HashtableINSt7__cxx1112basic_stringIcSt11char_traitsIcESaIcEEESt4pairIKS5_S5_ESaIS8_ENSt8__detail10_Select1stESt8equal_toIS5_ESt4hashIS5_ENSA_18_Mod_range_hashingENSA_20_Default_ranged_hashENSA_20_Prime_rehash_policyENSA_17_Hashtable_traitsILb1ELb0ELb1EEEE12_Scoped_nodeD2Ev
FNDA:1,_ZNSt10_HashtableIjSt4pairIKjSt13unordered_mapINSt7__cxx1112basic_stringIcSt11char_traitsIcESaIcEEES8_St4hashIS8_ESt8equal_toIS8_ESaIS0_IKS8_S8_EEEESaISH_ENSt8__detail10_Select1stESB_IjES9_IjENSJ_18_Mod_range_hashingENSJ_20_Default_ranged_hashENSJ_20_Prime_rehash_policyENSJ_17_Hashtable_traitsILb0ELb0ELb1EEEE12_Scoped_nodeD2Ev
FNDA:0,_ZNKSt10_HashtableINSt7__cxx1112basic_stringIcSt11char_traitsIcESaIcEEESt4pairIKS5_N12WPEFramework10PluginHost7JSONRPC8ObserverEESaISC_ENSt8__detail10_Select1stESt8equal_toIS5_ESt4hashIS5_ENSE_18_Mod_range_hashingENSE_20_Default_ranged_hashENSE_20_Prime_rehash_policyENSE_17_Hashtable_traitsILb1ELb0ELb1EEEE21_M_uses_single_bucketEPPNSE_15_Hash_node_baseE
FNDA:1,_ZNKSt10_HashtableINSt7__cxx1112basic_stringIcSt11char_traitsIcESaIcEEESt4pairIKS5_S5_ESaIS8_ENSt8__detail10_Select1stESt8equal_toIS5_ESt4hashIS5_ENSA_18_Mod_range_hashingENSA_20_Default_ranged_hashENSA_20_Prime_rehash_policyENSA_17_Hashtable_traitsILb1ELb0ELb1EEEE21_M_uses_single_bucketEPPNSA_15_Hash_node_baseE
FNDA:4,_ZNKSt10_HashtableIjSt4pairIKjSt13unordered_mapINSt7__cxx1112basic_stringIcSt11char_traitsIcESaIcEEES8_St4hashIS8_ESt8equal_toIS8_ESaIS0_IKS8_S8_EEEESaISH_ENSt8__detail10_Select1stESB_IjES9_IjENSJ_18_Mod_range_hashingENSJ_20_Default_ranged_hashENSJ_20_Prime_rehash_policyENSJ_17_Hashtable_traitsILb0ELb0ELb1EEEE21_M_uses_single_bucketEPPNSJ_15_Hash_node_baseE
FNDA:0,_ZNSt10_HashtableINSt7__cxx1112basic_stringIcSt11char_traitsIcESaIcEEESt4pairIKS5_N12WPEFramework10PluginHost7JSONRPC8ObserverEESaISC_ENSt8__detail10_Select1stESt8equal_toIS5_ESt4hashIS5_ENSE_18_Mod_range_hashingENSE_20_Default_ranged_hashENSE_20_Prime_rehash_policyENSE_17_Hashtable_traitsILb1ELb0ELb1EEEE22__small_size_thresholdEv
FNDA:174,_ZNSt10_HashtableINSt7__cxx1112basic_stringIcSt11char_traitsIcESaIcEEESt4pairIKS5_N12WPEFramework4Core7JSONRPC7Handler5EntryEESaISD_ENSt8__detail10_Select1stESt8equal_toIS5_ESt4hashIS5_ENSF_18_Mod_range_hashingENSF_20_Default_ranged_hashENSF_20_Prime_rehash_policyENSF_17_Hashtable_traitsILb1ELb0ELb1EEEE22__small_size_thresholdEv
FNDA:2,_ZNSt10_HashtableINSt7__cxx1112basic_stringIcSt11char_traitsIcESaIcEEESt4pairIKS5_S5_ESaIS8_ENSt8__detail10_Select1stESt8equal_toIS5_ESt4hashIS5_ENSA_18_Mod_range_hashingENSA_20_Default_ranged_hashENSA_20_Prime_rehash_policyENSA_17_Hashtable_traitsILb1ELb0ELb1EEEE22__small_size_thresholdEv
FNDA:3,_ZNSt10_HashtableIjSt4pairIKjSt13unordered_mapINSt7__cxx1112basic_stringIcSt11char_traitsIcESaIcEEES8_St4hashIS8_ESt8equal_toIS8_ESaIS0_IKS8_S8_EEEESaISH_ENSt8__detail10_Select1stESB_IjES9_IjENSJ_18_Mod_range_hashingENSJ_20_Default_ranged_hashENSJ_20_Prime_rehash_policyENSJ_17_Hashtable_traitsILb0ELb0ELb1EEEE22__small_size_thresholdEv
FNDA:0,_ZNSt10_HashtableINSt7__cxx1112basic_stringIcSt11char_traitsIcESaIcEEESt4pairIKS5_N12WPEFramework10PluginHost7JSONRPC8ObserverEESaISC_ENSt8__detail10_Select1stESt8equal_toIS5_ESt4hashIS5_ENSE_18_Mod_range_hashingENSE_20_Default_ranged_hashENSE_20_Prime_rehash_policyENSE_17_Hashtable_traitsILb1ELb0ELb1EEEE19_M_allocate_bucketsEm
FNDA:1,_ZNSt10_HashtableINSt7__cxx1112basic_stringIcSt11char_traitsIcESaIcEEESt4pairIKS5_S5_ESaIS8_ENSt8__detail10_Select1stESt8equal_toIS5_ESt4hashIS5_ENSA_18_Mod_range_hashingENSA_20_Default_ranged_hashENSA_20_Prime_rehash_policyENSA_17_Hashtable_traitsILb1ELb0ELb1EEEE19_M_allocate_bucketsEm
FNDA:1,_ZNSt10_HashtableIjSt4pairIKjSt13unordered_mapINSt7__cxx1112basic_stringIcSt11char_traitsIcESaIcEEES8_St4hashIS8_ESt8equal_toIS8_ESaIS0_IKS8_S8_EEEESaISH_ENSt8__detail10_Select1stESB_IjES9_IjENSJ_18_Mod_range_hashingENSJ_20_Default_ranged_hashENSJ_20_Prime_rehash_policyENSJ_17_Hashtable_traitsILb0ELb0ELb1EEEE19_M_allocate_bucketsEm
FNDA:0,_ZNSt10_HashtableINSt7__cxx1112basic_stringIcSt11char_traitsIcESaIcEEESt4pairIKS5_N12WPEFramework10PluginHost7JSONRPC8ObserverEESaISC_ENSt8__detail10_Select1stESt8equal_toIS5_ESt4hashIS5_ENSE_18_Mod_range_hashingENSE_20_Default_ranged_hashENSE_20_Prime_rehash_policyENSE_17_Hashtable_traitsILb1ELb0ELb1EEEE21_M_deallocate_bucketsEPPNSE_15_Hash_node_baseEm
FNDA:1,_ZNSt10_HashtableINSt7__cxx1112basic_stringIcSt11char_traitsIcESaIcEEESt4pairIKS5_S5_ESaIS8_ENSt8__detail10_Select1stESt8equal_toIS5_ESt4hashIS5_ENSA_18_Mod_range_hashingENSA_20_Default_ranged_hashENSA_20_Prime_rehash_policyENSA_17_Hashtable_traitsILb1ELb0ELb1EEEE21_M_deallocate_bucketsEPPNSA_15_Hash_node_baseEm
FNDA:4,_ZNSt10_HashtableIjSt4pairIKjSt13unordered_mapINSt7__cxx1112basic_stringIcSt11char_traitsIcESaIcEEES8_St4hashIS8_ESt8equal_toIS8_ESaIS0_IKS8_S8_EEEESaISH_ENSt8__detail10_Select1stESB_IjES9_IjENSJ_18_Mod_range_hashingENSJ_20_Default_ranged_hashENSJ_20_Prime_rehash_policyENSJ_17_Hashtable_traitsILb0ELb0ELb1EEEE21_M_deallocate_bucketsEPPNSJ_15_Hash_node_baseEm
FNDA:0,_ZNSt10_HashtableINSt7__cxx1112basic_stringIcSt11char_traitsIcESaIcEEESt4pairIKS5_N12WPEFramework10PluginHost7JSONRPC8ObserverEESaISC_ENSt8__detail10_Select1stESt8equal_toIS5_ESt4hashIS5_ENSE_18_Mod_range_hashingENSE_20_Default_ranged_hashENSE_20_Prime_rehash_policyENSE_17_Hashtable_traitsILb1ELb0ELb1EEEE21_M_deallocate_bucketsEv
FNDA:1,_ZNSt10_HashtableINSt7__cxx1112basic_stringIcSt11char_traitsIcESaIcEEESt4pairIKS5_S5_ESaIS8_ENSt8__detail10_Select1stESt8equal_toIS5_ESt4hashIS5_ENSA_18_Mod_range_hashingENSA_20_Default_ranged_hashENSA_20_Prime_rehash_policyENSA_17_Hashtable_traitsILb1ELb0ELb1EEEE21_M_deallocate_bucketsEv
FNDA:4,_ZNSt10_HashtableIjSt4pairIKjSt13unordered_mapINSt7__cxx1112basic_stringIcSt11char_traitsIcESaIcEEES8_St4hashIS8_ESt8equal_toIS8_ESaIS0_IKS8_S8_EEEESaISH_ENSt8__detail10_Select1stESB_IjES9_IjENSJ_18_Mod_range_hashingENSJ_20_Default_ranged_hashENSJ_20_Prime_rehash_policyENSJ_17_Hashtable_traitsILb0ELb0ELb1EEEE21_M_deallocate_bucketsEv
FNDA:27,_ZNKSt10_HashtableINSt7__cxx1112basic_stringIcSt11char_traitsIcESaIcEEESt4pairIKS5_N12WPEFramework10PluginHost7JSONRPC8ObserverEESaISC_ENSt8__detail10_Select1stESt8equal_toIS5_ESt4hashIS5_ENSE_18_Mod_range_hashingENSE_20_Default_ranged_hashENSE_20_Prime_rehash_policyENSE_17_Hashtable_traitsILb1ELb0ELb1EEEE8_M_beginEv
FNDA:174,_ZNKSt10_HashtableINSt7__cxx1112basic_stringIcSt11char_traitsIcESaIcEEESt4pairIKS5_N12WPEFramework4Core7JSONRPC7Handler5EntryEESaISD_ENSt8__detail10_Select1stESt8equal_toIS5_ESt4hashIS5_ENSF_18_Mod_range_hashingENSF_20_Default_ranged_hashENSF_20_Prime_rehash_policyENSF_17_Hashtable_traitsILb1ELb0ELb1EEEE8_M_beginEv
FNDA:3,_ZNKSt10_HashtableINSt7__cxx1112basic_stringIcSt11char_traitsIcESaIcEEESt4pairIKS5_S5_ESaIS8_ENSt8__detail10_Select1stESt8equal_toIS5_ESt4hashIS5_ENSA_18_Mod_range_hashingENSA_20_Default_ranged_hashENSA_20_Prime_rehash_policyENSA_17_Hashtable_traitsILb1ELb0ELb1EEEE8_M_beginEv
FNDA:4,_ZNKSt10_HashtableIjSt4pairIKjSt13unordered_mapINSt7__cxx1112basic_stringIcSt11char_traitsIcESaIcEEES8_St4hashIS8_ESt8equal_toIS8_ESaIS0_IKS8_S8_EEEESaISH_ENSt8__detail10_Select1stESB_IjES9_IjENSJ_18_Mod_range_hashingENSJ_20_Default_ranged_hashENSJ_20_Prime_rehash_policyENSJ_17_Hashtable_traitsILb0ELb0ELb1EEEE8_M_beginEv
FNDA:1,_ZNSt10_HashtableINSt7__cxx1112basic_stringIcSt11char_traitsIcESaIcEEESt4pairIKS5_S5_ESaIS8_ENSt8__detail10_Select1stESt8equal_toIS5_ESt4hashIS5_ENSA_18_Mod_range_hashingENSA_20_Default_ranged_hashENSA_20_Prime_rehash_policyENSA_17_Hashtable_traitsILb1ELb0ELb1EEEEC2Ev
FNDA:29,_ZNSt10_HashtableIjSt4pairIKjSt13unordered_mapINSt7__cxx1112basic_stringIcSt11char_traitsIcESaIcEEES8_St4hashIS8_ESt8equal_toIS8_ESaIS0_IKS8_S8_EEEESaISH_ENSt8__detail10_Select1stESB_IjES9_IjENSJ_18_Mod_range_hashingENSJ_20_Default_ranged_hashENSJ_20_Prime_rehash_policyENSJ_17_Hashtable_traitsILb0ELb0ELb1EEEEC2Ev
FNDA:0,_ZNSt10_HashtableINSt7__cxx1112basic_stringIcSt11char_traitsIcESaIcEEESt4pairIKS5_N12WPEFramework10PluginHost7JSONRPC8ObserverEESaISC_ENSt8__detail10_Select1stESt8equal_toIS5_ESt4hashIS5_ENSE_18_Mod_range_hashingENSE_20_Default_ranged_hashENSE_20_Prime_rehash_policyENSE_17_Hashtable_traitsILb1ELb0ELb1EEEE5beginEv
FNDA:99,_ZNSt10_HashtableINSt7__cxx1112basic_stringIcSt11char_traitsIcESaIcEEESt4pairIKS5_N12WPEFramework4Core7JSONRPC7Handler5EntryEESaISD_ENSt8__detail10_Select1stESt8equal_toIS5_ESt4hashIS5_ENSF_18_Mod_range_hashingENSF_20_Default_ranged_hashENSF_20_Prime_rehash_policyENSF_17_Hashtable_traitsILb1ELb0ELb1EEEE5beginEv
FNDA:2,_ZNSt10_HashtableINSt7__cxx1112basic_stringIcSt11char_traitsIcESaIcEEESt4pairIKS5_S5_ESaIS8_ENSt8__detail10_Select1stESt8equal_toIS5_ESt4hashIS5_ENSA_18_Mod_range_hashingENSA_20_Default_ranged_hashENSA_20_Prime_rehash_policyENSA_17_Hashtable_traitsILb1ELb0ELb1EEEE5beginEv
FNDA:0,_ZNSt10_HashtableIjSt4pairIKjSt13unordered_mapINSt7__cxx1112basic_stringIcSt11char_traitsIcESaIcEEES8_St4hashIS8_ESt8equal_toIS8_ESaIS0_IKS8_S8_EEEESaISH_ENSt8__detail10_Select1stESB_IjES9_IjENSJ_18_Mod_range_hashingENSJ_20_Default_ranged_hashENSJ_20_Prime_rehash_policyENSJ_17_Hashtable_traitsILb0ELb0ELb1EEEE5beginEv
FNDA:49,_ZNKSt10_HashtableINSt7__cxx1112basic_stringIcSt11char_traitsIcESaIcEEESt4pairIKS5_N12WPEFramework4Core7JSONRPC7Handler5EntryEESaISD_ENSt8__detail10_Select1stESt8equal_toIS5_ESt4hashIS5_ENSF_18_Mod_range_hashingENSF_20_Default_ranged_hashENSF_20_Prime_rehash_policyENSF_17_Hashtable_traitsILb1ELb0ELb1EEEE5beginEv
FNDA:0,_ZNSt10_HashtableINSt7__cxx1112basic_stringIcSt11char_traitsIcESaIcEEESt4pairIKS5_N12WPEFramework10PluginHost7JSONRPC8ObserverEESaISC_ENSt8__detail10_Select1stESt8equal_toIS5_ESt4hashIS5_ENSE_18_Mod_range_hashingENSE_20_Default_ranged_hashENSE_20_Prime_rehash_policyENSE_17_Hashtable_traitsILb1ELb0ELb1EEEE3endEv
FNDA:172,_ZNSt10_HashtableINSt7__cxx1112basic_stringIcSt11char_traitsIcESaIcEEESt4pairIKS5_N12WPEFramework4Core7JSONRPC7Handler5EntryEESaISD_ENSt8__detail10_Select1stESt8equal_toIS5_ESt4hashIS5_ENSF_18_Mod_range_hashingENSF_20_Default_ranged_hashENSF_20_Prime_rehash_policyENSF_17_Hashtable_traitsILb1ELb0ELb1EEEE3endEv
FNDA:6,_ZNSt10_HashtableINSt7__cxx1112basic_stringIcSt11char_traitsIcESaIcEEESt4pairIKS5_S5_ESaIS8_ENSt8__detail10_Select1stESt8equal_toIS5_ESt4hashIS5_ENSA_18_Mod_range_hashingENSA_20_Default_ranged_hashENSA_20_Prime_rehash_policyENSA_17_Hashtable_traitsILb1ELb0ELb1EEEE3endEv
FNDA:3,_ZNSt10_HashtableIjSt4pairIKjSt13unordered_mapINSt7__cxx1112basic_stringIcSt11char_traitsIcESaIcEEES8_St4hashIS8_ESt8equal_toIS8_ESaIS0_IKS8_S8_EEEESaISH_ENSt8__detail10_Select1stESB_IjES9_IjENSJ_18_Mod_range_hashingENSJ_20_Default_ranged_hashENSJ_20_Prime_rehash_policyENSJ_17_Hashtable_traitsILb0ELb0ELb1EEEE3endEv
FNDA:100,_ZNKSt10_HashtableINSt7__cxx1112basic_stringIcSt11char_traitsIcESaIcEEESt4pairIKS5_N12WPEFramework4Core7JSONRPC7Handler5EntryEESaISD_ENSt8__detail10_Select1stESt8equal_toIS5_ESt4hashIS5_ENSF_18_Mod_range_hashingENSF_20_Default_ranged_hashENSF_20_Prime_rehash_policyENSF_17_Hashtable_traitsILb1ELb0ELb1EEEE3endEv
FNDA:0,_ZNKSt10_HashtableINSt7__cxx1112basic_stringIcSt11char_traitsIcESaIcEEESt4pairIKS5_N12WPEFramework10PluginHost7JSONRPC8ObserverEESaISC_ENSt8__detail10_Select1stESt8equal_toIS5_ESt4hashIS5_ENSE_18_Mod_range_hashingENSE_20_Default_ranged_hashENSE_20_Prime_rehash_policyENSE_17_Hashtable_traitsILb1ELb0ELb1EEEE4sizeEv
FNDA:174,_ZNKSt10_HashtableINSt7__cxx1112basic_stringIcSt11char_traitsIcESaIcEEESt4pairIKS5_N12WPEFramework4Core7JSONRPC7Handler5EntryEESaISD_ENSt8__detail10_Select1stESt8equal_toIS5_ESt4hashIS5_ENSF_18_Mod_range_hashingENSF_20_Default_ranged_hashENSF_20_Prime_rehash_policyENSF_17_Hashtable_traitsILb1ELb0ELb1EEEE4sizeEv
FNDA:2,_ZNKSt10_HashtableINSt7__cxx1112basic_stringIcSt11char_traitsIcESaIcEEESt4pairIKS5_S5_ESaIS8_ENSt8__detail10_Select1stESt8equal_toIS5_ESt4hashIS5_ENSA_18_Mod_range_hashingENSA_20_Default_ranged_hashENSA_20_Prime_rehash_policyENSA_17_Hashtable_traitsILb1ELb0ELb1EEEE4sizeEv
FNDA:3,_ZNKSt10_HashtableIjSt4pairIKjSt13unordered_mapINSt7__cxx1112basic_stringIcSt11char_traitsIcESaIcEEES8_St4hashIS8_ESt8equal_toIS8_ESaIS0_IKS8_S8_EEEESaISH_ENSt8__detail10_Select1stESB_IjES9_IjENSJ_18_Mod_range_hashingENSJ_20_Default_ranged_hashENSJ_20_Prime_rehash_policyENSJ_17_Hashtable_traitsILb0ELb0ELb1EEEE4sizeEv
FNDA:0,_ZNKSt10_HashtableINSt7__cxx1112basic_stringIcSt11char_traitsIcESaIcEEESt4pairIKS5_N12WPEFramework10PluginHost7JSONRPC8ObserverEESaISC_ENSt8__detail10_Select1stESt8equal_toIS5_ESt4hashIS5_ENSE_18_Mod_range_hashingENSE_20_Default_ranged_hashENSE_20_Prime_rehash_policyENSE_17_Hashtable_traitsILb1ELb0ELb1EEEE15_M_bucket_indexERKNSE_16_Hash_node_valueISC_Lb1EEE
FNDA:26,_ZNKSt10_HashtableINSt7__cxx1112basic_stringIcSt11char_traitsIcESaIcEEESt4pairIKS5_N12WPEFramework4Core7JSONRPC7Handler5EntryEESaISD_ENSt8__detail10_Select1stESt8equal_toIS5_ESt4hashIS5_ENSF_18_Mod_range_hashingENSF_20_Default_ranged_hashENSF_20_Prime_rehash_policyENSF_17_Hashtable_traitsILb1ELb0ELb1EEEE15_M_bucket_indexERKNSF_16_Hash_node_valueISD_Lb1EEE
FNDA:0,_ZNKSt10_HashtableINSt7__cxx1112basic_stringIcSt11char_traitsIcESaIcEEESt4pairIKS5_S5_ESaIS8_ENSt8__detail10_Select1stESt8equal_toIS5_ESt4hashIS5_ENSA_18_Mod_range_hashingENSA_20_Default_ranged_hashENSA_20_Prime_rehash_policyENSA_17_Hashtable_traitsILb1ELb0ELb1EEEE15_M_bucket_indexERKNSA_16_Hash_node_valueIS8_Lb1EEE
FNDA:0,_ZNKSt10_HashtableIjSt4pairIKjSt13unordered_mapINSt7__cxx1112basic_stringIcSt11char_traitsIcESaIcEEES8_St4hashIS8_ESt8equal_toIS8_ESaIS0_IKS8_S8_EEEESaISH_ENSt8__detail10_Select1stESB_IjES9_IjENSJ_18_Mod_range_hashingENSJ_20_Default_ranged_hashENSJ_20_Prime_rehash_policyENSJ_17_Hashtable_traitsILb0ELb0ELb1EEEE15_M_bucket_indexERKNSJ_16_Hash_node_valueISH_Lb0EEE
FNDA:0,_ZNKSt10_HashtableINSt7__cxx1112basic_stringIcSt11char_traitsIcESaIcEEESt4pairIKS5_N12WPEFramework10PluginHost7JSONRPC8ObserverEESaISC_ENSt8__detail10_Select1stESt8equal_toIS5_ESt4hashIS5_ENSE_18_Mod_range_hashingENSE_20_Default_ranged_hashENSE_20_Prime_rehash_policyENSE_17_Hashtable_traitsILb1ELb0ELb1EEEE15_M_bucket_indexEm
FNDA:52,_ZNKSt10_HashtableINSt7__cxx1112basic_stringIcSt11char_traitsIcESaIcEEESt4pairIKS5_N12WPEFramework4Core7JSONRPC7Handler5EntryEESaISD_ENSt8__detail10_Select1stESt8equal_toIS5_ESt4hashIS5_ENSF_18_Mod_range_hashingENSF_20_Default_ranged_hashENSF_20_Prime_rehash_policyENSF_17_Hashtable_traitsILb1ELb0ELb1EEEE15_M_bucket_indexEm
FNDA:2,_ZNKSt10_HashtableINSt7__cxx1112basic_stringIcSt11char_traitsIcESaIcEEESt4pairIKS5_S5_ESaIS8_ENSt8__detail10_Select1stESt8equal_toIS5_ESt4hashIS5_ENSA_18_Mod_range_hashingENSA_20_Default_ranged_hashENSA_20_Prime_rehash_policyENSA_17_Hashtable_traitsILb1ELb0ELb1EEEE15_M_bucket_indexEm
FNDA:5,_ZNKSt10_HashtableIjSt4pairIKjSt13unordered_mapINSt7__cxx1112basic_stringIcSt11char_traitsIcESaIcEEES8_St4hashIS8_ESt8equal_toIS8_ESaIS0_IKS8_S8_EEEESaISH_ENSt8__detail10_Select1stESB_IjES9_IjENSJ_18_Mod_range_hashingENSJ_20_Default_ranged_hashENSJ_20_Prime_rehash_policyENSJ_17_Hashtable_traitsILb0ELb0ELb1EEEE15_M_bucket_indexEm
FNDA:0,_ZNKSt10_HashtableINSt7__cxx1112basic_stringIcSt11char_traitsIcESaIcEEESt4pairIKS5_N12WPEFramework10PluginHost7JSONRPC8ObserverEESaISC_ENSt8__detail10_Select1stESt8equal_toIS5_ESt4hashIS5_ENSE_18_Mod_range_hashingENSE_20_Default_ranged_hashENSE_20_Prime_rehash_policyENSE_17_Hashtable_traitsILb1ELb0ELb1EEEE12_M_find_nodeEmRS7_m
FNDA:0,_ZNKSt10_HashtableINSt7__cxx1112basic_stringIcSt11char_traitsIcESaIcEEESt4pairIKS5_N12WPEFramework4Core7JSONRPC7Handler5EntryEESaISD_ENSt8__detail10_Select1stESt8equal_toIS5_ESt4hashIS5_ENSF_18_Mod_range_hashingENSF_20_Default_ranged_hashENSF_20_Prime_rehash_policyENSF_17_Hashtable_traitsILb1ELb0ELb1EEEE12_M_find_nodeEmRS7_m
FNDA:1,_ZNKSt10_HashtableINSt7__cxx1112basic_stringIcSt11char_traitsIcESaIcEEESt4pairIKS5_S5_ESaIS8_ENSt8__detail10_Select1stESt8equal_toIS5_ESt4hashIS5_ENSA_18_Mod_range_hashingENSA_20_Default_ranged_hashENSA_20_Prime_rehash_policyENSA_17_Hashtable_traitsILb1ELb0ELb1EEEE12_M_find_nodeEmRS7_m
FNDA:4,_ZNKSt10_HashtableIjSt4pairIKjSt13unordered_mapINSt7__cxx1112basic_stringIcSt11char_traitsIcESaIcEEES8_St4hashIS8_ESt8equal_toIS8_ESaIS0_IKS8_S8_EEEESaISH_ENSt8__detail10_Select1stESB_IjES9_IjENSJ_18_Mod_range_hashingENSJ_20_Default_ranged_hashENSJ_20_Prime_rehash_policyENSJ_17_Hashtable_traitsILb0ELb0ELb1EEEE12_M_find_nodeEmRS1_m
FNDA:0,_ZNSt10_HashtableINSt7__cxx1112basic_stringIcSt11char_traitsIcESaIcEEESt4pairIKS5_N12WPEFramework10PluginHost7JSONRPC8ObserverEESaISC_ENSt8__detail10_Select1stESt8equal_toIS5_ESt4hashIS5_ENSE_18_Mod_range_hashingENSE_20_Default_ranged_hashENSE_20_Prime_rehash_policyENSE_17_Hashtable_traitsILb1ELb0ELb1EEEE7emplaceIJRKSt21piecewise_construct_tSt5tupleIJRS7_EESU_IJEEEEES6_INSE_14_Node_iteratorISC_Lb0ELb1EEEbEDpOT_
FNDA:0,_ZNSt10_HashtableINSt7__cxx1112basic_stringIcSt11char_traitsIcESaIcEEESt4pairIKS5_N12WPEFramework10PluginHost7JSONRPC8ObserverEESaISC_ENSt8__detail10_Select1stESt8equal_toIS5_ESt4hashIS5_ENSE_18_Mod_range_hashingENSE_20_Default_ranged_hashENSE_20_Prime_rehash_policyENSE_17_Hashtable_traitsILb1ELb0ELb1EEEE5eraseENSE_14_Node_iteratorISC_Lb0ELb1EEE
FNF:87
FNH:54
DA:305,2
DA:306,2
DA:307,2
DA:308,2
DA:311,2
DA:416,5
DA:417,5
DA:424,179
DA:427,179
DA:434,2
DA:436,2
DA:438,0
DA:439,0
DA:442,2
DA:446,5
DA:448,5
DA:449,5
DA:451,0
DA:455,5
DA:456,5
DA:464,208
DA:465,208
DA:530,30
DA:623,101
DA:624,101
DA:627,49
DA:628,49
DA:631,181
DA:632,181
DA:635,100
DA:636,100
DA:647,179
DA:648,179
DA:792,26
DA:793,26
DA:796,59
DA:797,59
DA:812,5
DA:815,5
DA:816,5
DA:817,2
DA:818,3
DA:960,0
DA:961,0
DA:979,0
DA:980,0
DA:1595,3
DA:1608,3
DA:1609,3
DA:1610,3
DA:1664,52
DA:1669,52
DA:1671,50
DA:1672,49
DA:1673,48
DA:1674,1
DA:1677,3
DA:1678,3
DA:1679,3
DA:1687,49
DA:1692,49
DA:1694,49
DA:1695,47
DA:1696,47
DA:1697,2
DA:1700,0
DA:1701,0
DA:1702,0
DA:1948,5
DA:1954,5
DA:1955,5
DA:1956,3
DA:1958,2
DA:1959,0
DA:1961,2
DA:1962,2
DA:1964,0
DA:1965,0
DA:1966,0
DA:1969,0
DA:2007,2
DA:2011,2
DA:2015,0
DA:2016,0
DA:2023,2
DA:2024,2
DA:2026,2
DA:2029,0
DA:2031,2
DA:2033,2
DA:2040,0
DA:2045,0
DA:2049,0
DA:2050,0
DA:2053,0
DA:2054,0
DA:2055,0
DA:2057,0
DA:2064,0
DA:2069,0
DA:2070,0
DA:2071,0
DA:2072,0
DA:2081,0
DA:2087,0
DA:2088,0
DA:2089,0
DA:2091,0
DA:2092,0
DA:2094,0
DA:2097,0
DA:2098,0
DA:2099,0
DA:2100,0
DA:2102,0
DA:2105,0
DA:2106,0
DA:2107,0
DA:2108,0
DA:2166,2
DA:2172,2
DA:2174,2
DA:2177,2
DA:2179,2
DA:2180,2
DA:2183,2
DA:2186,2
DA:2187,2
DA:2188,2
DA:2316,0
DA:2321,0
DA:2322,0
DA:2327,0
DA:2328,0
DA:2336,0
DA:2341,0
DA:2342,0
DA:2343,0
DA:2344,0
DA:2346,0
DA:2347,0
DA:2348,0
DA:2351,0
DA:2352,0
DA:2353,0
DA:2354,0
DA:2356,0
DA:2520,30
DA:2524,30
DA:2525,30
DA:2526,30
DA:2527,30
DA:2528,30
DA:2529,30
DA:2559,2
DA:2565,2
DA:2567,0
DA:2571,0
DA:2572,0
DA:2574,2
DA:2582,2
DA:2586,2
DA:2587,2
DA:2588,2
DA:2589,2
DA:2590,2
DA:2592,0
DA:2594,0
DA:2595,0
DA:2597,0
DA:2598,0
DA:2599,0
DA:2600,0
DA:2601,0
DA:2602,0
DA:2606,0
DA:2607,0
DA:2610,0
DA:2613,2
DA:2614,2
DA:2615,2
DA:2616,2
LF:182
LH:102
end_of_record
TN:
SF:/usr/include/c++/13/bits/hashtable_policy.h
FN:112,113,_ZNKSt8__detail10_Select1stclIRKSt4pairIKNSt7__cxx1112basic_stringIcSt11char_traitsIcESaIcEEEN12WPEFramework10PluginHost7JSONRPC8ObserverEEEEONS0_10__1st_typeIT_E4typeEOSI_
FN:112,113,_ZNKSt8__detail10_Select1stclIRKSt4pairIKNSt7__cxx1112basic_stringIcSt11char_traitsIcESaIcEEEN12WPEFramework4Core7JSONRPC7Handler5EntryEEEEONS0_10__1st_typeIT_E4typeEOSJ_
FN:112,113,_ZNKSt8__detail10_Select1stclIRKSt4pairIKNSt7__cxx1112basic_stringIcSt11char_traitsIcESaIcEEES8_EEEONS0_10__1st_typeIT_E4typeEOSE_
FN:112,113,_ZNKSt8__detail10_Select1stclIRKSt4pairIKjSt13unordered_mapINSt7__cxx1112basic_stringIcSt11char_traitsIcESaIcEEESA_St4hashISA_ESt8equal_toISA_ESaIS2_IKSA_SA_EEEEEEONS0_10__1st_typeIT_E4typeEOSN_
FN:112,113,_ZNKSt8__detail10_Select1stclIRSt4pairIKNSt7__cxx1112basic_stringIcSt11char_traitsIcESaIcEEEN12WPEFramework10PluginHost7JSONRPC8ObserverEEEEONS0_10__1st_typeIT_E4typeEOSH_
FN:1218,1218,_ZNSt8__detail21_Hashtable_ebo_helperILi0ESaINS_10_Hash_nodeISt4pairIKNSt7__cxx1112basic_stringIcSt11char_traitsIcESaIcEEES8_ELb1EEEELb1EEC2Ev
FN:1218,1218,_ZNSt8__detail21_Hashtable_ebo_helperILi0ESaINS_10_Hash_nodeISt4pairIKjSt13unordered_mapINSt7__cxx1112basic_stringIcSt11char_traitsIcESaIcEEESA_St4hashISA_ESt8equal_toISA_ESaIS2_IKSA_SA_EEEELb0EEEELb1EEC2Ev
FN:1218,1218,_ZNSt8__detail21_Hashtable_ebo_helperILi0ESt8equal_toINSt7__cxx1112basic_stringIcSt11char_traitsIcESaIcEEEELb1EEC2Ev
FN:1218,1218,_ZNSt8__detail21_Hashtable_ebo_helperILi0ESt8equal_toIjELb1EEC2Ev
FN:1218,1218,_ZNSt8__detail21_Hashtable_ebo_helperILi1ESt4hashINSt7__cxx1112basic_stringIcSt11char_traitsIcESaIcEEEELb1EEC2Ev
FN:1218,1218,_ZNSt8__detail21_Hashtable_ebo_helperILi1ESt4hashIjELb1EEC2Ev
FN:1225,1225,_ZNKSt8__detail21_Hashtable_ebo_helperILi0ESt8equal_toINSt7__cxx1112basic_stringIcSt11char_traitsIcESaIcEEEELb1EE7_M_cgetEv
FN:1225,1225,_ZNKSt8__detail21_Hashtable_ebo_helperILi0ESt8equal_toIjELb1EE7_M_cgetEv
FN:1225,1225,_ZNKSt8__detail21_Hashtable_ebo_helperILi1ESt4hashINSt7__cxx1112basic_stringIcSt11char_traitsIcESaIcEEEELb1EE7_M_cgetEv
FN:1225,1225,_ZNKSt8__detail21_Hashtable_ebo_helperILi1ESt4hashIjELb1EE7_M_cgetEv
FN:1226,1226,_ZNSt8__detail21_Hashtable_ebo_helperILi0ESaINS_10_Hash_nodeISt4pairIKNSt7__cxx1112basic_stringIcSt11char_traitsIcESaIcEEEN12WPEFramework10PluginHost7JSONRPC8ObserverEELb1EEEELb1EE6_M_getEv
FN:1226,1226,_ZNSt8__detail21_Hashtable_ebo_helperILi0ESaINS_10_Hash_nodeISt4pairIKNSt7__cxx1112basic_stringIcSt11char_traitsIcESaIcEEES8_ELb1EEEELb1EE6_M_getEv
FN:1226,1226,_ZNSt8__detail21_Hashtable_ebo_helperILi0ESaINS_10_Hash_nodeISt4pairIKjSt13unordered_mapINSt7__cxx1112basic_stringIcSt11char_traitsIcESaIcEEESA_St4hashISA_ESt8equal_toISA_ESaIS2_IKSA_SA_EEEELb0EEEELb1EE6_M_getEv
FN:1301,1301,_ZNSt8__detail15_Hash_code_baseINSt7__cxx1112basic_stringIcSt11char_traitsIcESaIcEEESt4pairIKS6_S6_ENS_10_Select1stESt4hashIS6_ENS_18_Mod_range_hashingENS_20_Default_ranged_hashELb1EEC2Ev
FN:1301,1301,_ZNSt8__detail15_Hash_code_baseIjSt4pairIKjSt13unordered_mapINSt7__cxx1112basic_stringIcSt11char_traitsIcESaIcEEES9_St4hashIS9_ESt8equal_toIS9_ESaIS1_IKS9_S9_EEEENS_10_Select1stESA_IjENS_18_Mod_range_hashingENS_20_Default_ranged_hashELb0EEC2Ev
FN:1306,1311,_ZNKSt8__detail15_Hash_code_baseINSt7__cxx1112basic_stringIcSt11char_traitsIcESaIcEEESt4pairIKS6_N12WPEFramework10PluginHost7JSONRPC8ObserverEENS_10_Select1stESt4hashIS6_ENS_18_Mod_range_hashingENS_20_Default_ranged_hashELb1EE12_M_hash_codeERS8_
FN:1306,1311,_ZNKSt8__detail15_Hash_code_baseINSt7__cxx1112basic_stringIcSt11char_traitsIcESaIcEEESt4pairIKS6_N12WPEFramework4Core7JSONRPC7Handler5EntryEENS_10_Select1stESt4hashIS6_ENS_18_Mod_range_hashingENS_20_Default_ranged_hashELb1EE12_M_hash_codeERS8_
FN:1306,1311,_ZNKSt8__detail15_Hash_code_baseINSt7__cxx1112basic_stringIcSt11char_traitsIcESaIcEEESt4pairIKS6_S6_ENS_10_Select1stESt4hashIS6_ENS_18_Mod_range_hashingENS_20_Default_ranged_hashELb1EE12_M_hash_codeERS8_
FN:1306,1311,_ZNKSt8__detail15_Hash_code_baseIjSt4pairIKjSt13unordered_mapINSt7__cxx1112basic_stringIcSt11char_traitsIcESaIcEEES9_St4hashIS9_ESt8equal_toIS9_ESaIS1_IKS9_S9_EEEENS_10_Select1stESA_IjENS_18_Mod_range_hashingENS_20_Default_ranged_hashELb0EE12_M_hash_codeERS2_
FN:1331,1332,_ZNKSt8__detail15_Hash_code_baseINSt7__cxx1112basic_stringIcSt11char_traitsIcESaIcEEESt4pairIKS6_N12WPEFramework10PluginHost7JSONRPC8ObserverEENS_10_Select1stESt4hashIS6_ENS_18_Mod_range_hashingENS_20_Default_ranged_hashELb1EE15_M_bucket_indexEmm
FN:1331,1332,_ZNKSt8__detail15_Hash_code_baseINSt7__cxx1112basic_stringIcSt11char_traitsIcESaIcEEESt4pairIKS6_N12WPEFramework4Core7JSONRPC7Handler5EntryEENS_10_Select1stESt4hashIS6_ENS_18_Mod_range_hashingENS_20_Default_ranged_hashELb1EE15_M_bucket_indexEmm
FN:1331,1332,_ZNKSt8__detail15_Hash_code_baseINSt7__cxx1112basic_stringIcSt11char_traitsIcESaIcEEESt4pairIKS6_S6_ENS_10_Select1stESt4hashIS6_ENS_18_Mod_range_hashingENS_20_Default_ranged_hashELb1EE15_M_bucket_indexEmm
FN:1331,1332,_ZNKSt8__detail15_Hash_code_baseIjSt4pairIKjSt13unordered_mapINSt7__cxx1112basic_stringIcSt11char_traitsIcESaIcEEES9_St4hashIS9_ESt8equal_toIS9_ESaIS1_IKS9_S9_EEEENS_10_Select1stESA_IjENS_18_Mod_range_hashingENS_20_Default_ranged_hashELb0EE15_M_bucket_indexEmm
FN:1335,1343,_ZNKSt8__detail15_Hash_code_baseIjSt4pairIKjSt13unordered_mapINSt7__cxx1112basic_stringIcSt11char_traitsIcESaIcEEES9_St4hashIS9_ESt8equal_toIS9_ESaIS1_IKS9_S9_EEEENS_10_Select1stESA_IjENS_18_Mod_range_hashingENS_20_Default_ranged_hashELb0EE15_M_bucket_indexERKNS_16_Hash_node_valueISI_Lb0EEEm
FN:1346,1350,_ZNKSt8__detail15_Hash_code_baseINSt7__cxx1112basic_stringIcSt11char_traitsIcESaIcEEESt4pairIKS6_N12WPEFramework10PluginHost7JSONRPC8ObserverEENS_10_Select1stESt4hashIS6_ENS_18_Mod_range_hashingENS_20_Default_ranged_hashELb1EE15_M_bucket_indexERKNS_16_Hash_node_valueISD_Lb1EEEm
FN:1346,1350,_ZNKSt8__detail15_Hash_code_baseINSt7__cxx1112basic_stringIcSt11char_traitsIcESaIcEEESt4pairIKS6_N12WPEFramework4Core7JSONRPC7Handler5EntryEENS_10_Select1stESt4hashIS6_ENS_18_Mod_range_hashingENS_20_Default_ranged_hashELb1EE15_M_bucket_indexERKNS_16_Hash_node_valueISE_Lb1EEEm
FN:1346,1350,_ZNKSt8__detail15_Hash_code_baseINSt7__cxx1112basic_stringIcSt11char_traitsIcESaIcEEESt4pairIKS6_S6_ENS_10_Select1stESt4hashIS6_ENS_18_Mod_range_hashingENS_20_Default_ranged_hashELb1EE15_M_bucket_indexERKNS_16_Hash_node_valueIS9_Lb1EEEm
FN:1353,1354,_ZNKSt8__detail15_Hash_code_baseIjSt4pairIKjSt13unordered_mapINSt7__cxx1112basic_stringIcSt11char_traitsIcESaIcEEES9_St4hashIS9_ESt8equal_toIS9_ESaIS1_IKS9_S9_EEEENS_10_Select1stESA_IjENS_18_Mod_range_hashingENS_20_Default_ranged_hashELb0EE13_M_store_codeERNS_21_Hash_node_code_cacheILb0EEEm
FN:1362,1363,_ZNKSt8__detail15_Hash_code_baseINSt7__cxx1112basic_stringIcSt11char_traitsIcESaIcEEESt4pairIKS6_N12WPEFramework10PluginHost7JSONRPC8ObserverEENS_10_Select1stESt4hashIS6_ENS_18_Mod_range_hashingENS_20_Default_ranged_hashELb1EE13_M_store_codeERNS_21_Hash_node_code_cacheILb1EEEm
FN:1362,1363,_ZNKSt8__detail15_Hash_code_baseINSt7__cxx1112basic_stringIcSt11char_traitsIcESaIcEEESt4pairIKS6_S6_ENS_10_Select1stESt4hashIS6_ENS_18_Mod_range_hashingENS_20_Default_ranged_hashELb1EE13_M_store_codeERNS_21_Hash_node_code_cacheILb1EEEm
FN:1375,1375,_ZNKSt8__detail15_Hash_code_baseINSt7__cxx1112basic_stringIcSt11char_traitsIcESaIcEEESt4pairIKS6_N12WPEFramework10PluginHost7JSONRPC8ObserverEENS_10_Select1stESt4hashIS6_ENS_18_Mod_range_hashingENS_20_Default_ranged_hashELb1EE7_M_hashEv
FN:1375,1375,_ZNKSt8__detail15_Hash_code_baseINSt7__cxx1112basic_stringIcSt11char_traitsIcESaIcEEESt4pairIKS6_N12WPEFramework4Core7JSONRPC7Handler5EntryEENS_10_Select1stESt4hashIS6_ENS_18_Mod_range_hashingENS_20_Default_ranged_hashELb1EE7_M_hashEv
FN:1375,1375,_ZNKSt8__detail15_Hash_code_baseINSt7__cxx1112basic_stringIcSt11char_traitsIcESaIcEEESt4pairIKS6_S6_ENS_10_Select1stESt4hashIS6_ENS_18_Mod_range_hashingENS_20_Default_ranged_hashELb1EE7_M_hashEv
FN:1375,1375,_ZNKSt8__detail15_Hash_code_baseIjSt4pairIKjSt13unordered_mapINSt7__cxx1112basic_stringIcSt11char_traitsIcESaIcEEES9_St4hashIS9_ESt8equal_toIS9_ESaIS1_IKS9_S9_EEEENS_10_Select1stESA_IjENS_18_Mod_range_hashingENS_20_Default_ranged_hashELb0EE7_M_hashEv
FN:1683,1684,_ZNSt8__detail15_Hashtable_baseIjSt4pairIKjSt13unordered_mapINSt7__cxx1112basic_stringIcSt11char_traitsIcESaIcEEES9_St4hashIS9_ESt8equal_toIS9_ESaIS1_IKS9_S9_EEEENS_10_Select1stESC_IjESA_IjENS_18_Mod_range_hashingENS_20_Default_ranged_hashENS_17_Hashtable_traitsILb0ELb0ELb1EEEE9_S_equalsEmRKNS_21_Hash_node_code_cacheILb0EEE
FN:1692,1693,_ZNSt8__detail15_Hashtable_baseINSt7__cxx1112basic_stringIcSt11char_traitsIcESaIcEEESt4pairIKS6_N12WPEFramework10PluginHost7JSONRPC8ObserverEENS_10_Select1stESt8equal_toIS6_ESt4hashIS6_ENS_18_Mod_range_hashingENS_20_Default_ranged_hashENS_17_Hashtable_traitsILb1ELb0ELb1EEEE9_S_equalsEmRKNS_21_Hash_node_code_cacheILb1EEE
FN:1692,1693,_ZNSt8__detail15_Hashtable_baseINSt7__cxx1112basic_stringIcSt11char_traitsIcESaIcEEESt4pairIKS6_N12WPEFramework4Core7JSONRPC7Handler5EntryEENS_10_Select1stESt8equal_toIS6_ESt4hashIS6_ENS_18_Mod_range_hashingENS_20_Default_ranged_hashENS_17_Hashtable_traitsILb1ELb0ELb1EEEE9_S_equalsEmRKNS_21_Hash_node_code_cacheILb1EEE
FN:1692,1693,_ZNSt8__detail15_Hashtable_baseINSt7__cxx1112basic_stringIcSt11char_traitsIcESaIcEEESt4pairIKS6_S6_ENS_10_Select1stESt8equal_toIS6_ESt4hashIS6_ENS_18_Mod_range_hashingENS_20_Default_ranged_hashENS_17_Hashtable_traitsILb1ELb0ELb1EEEE9_S_equalsEmRKNS_21_Hash_node_code_cacheILb1EEE
FN:1701,1701,_ZNSt8__detail15_Hashtable_baseINSt7__cxx1112basic_stringIcSt11char_traitsIcESaIcEEESt4pairIKS6_S6_ENS_10_Select1stESt8equal_toIS6_ESt4hashIS6_ENS_18_Mod_range_hashingENS_20_Default_ranged_hashENS_17_Hashtable_traitsILb1ELb0ELb1EEEEC2Ev
FN:1701,1701,_ZNSt8__detail15_Hashtable_baseIjSt4pairIKjSt13unordered_mapINSt7__cxx1112basic_stringIcSt11char_traitsIcESaIcEEES9_St4hashIS9_ESt8equal_toIS9_ESaIS1_IKS9_S9_EEEENS_10_Select1stESC_IjESA_IjENS_18_Mod_range_hashingENS_20_Default_ranged_hashENS_17_Hashtable_traitsILb0ELb0ELb1EEEEC2Ev
FN:1708,1716,_ZNKSt8__detail15_Hashtable_baseINSt7__cxx1112basic_stringIcSt11char_traitsIcESaIcEEESt4pairIKS6_N12WPEFramework10PluginHost7JSONRPC8ObserverEENS_10_Select1stESt8equal_toIS6_ESt4hashIS6_ENS_18_Mod_range_hashingENS_20_Default_ranged_hashENS_17_Hashtable_traitsILb1ELb0ELb1EEEE13_M_key_equalsERS8_RKNS_16_Hash_node_valueISD_Lb1EEE
FN:1708,1716,_ZNKSt8__detail15_Hashtable_baseINSt7__cxx1112basic_stringIcSt11char_traitsIcESaIcEEESt4pairIKS6_N12WPEFramework4Core7JSONRPC7Handler5EntryEENS_10_Select1stESt8equal_toIS6_ESt4hashIS6_ENS_18_Mod_range_hashingENS_20_Default_ranged_hashENS_17_Hashtable_traitsILb1ELb0ELb1EEEE13_M_key_equalsERS8_RKNS_16_Hash_node_valueISE_Lb1EEE
FN:1708,1716,_ZNKSt8__detail15_Hashtable_baseINSt7__cxx1112basic_stringIcSt11char_traitsIcESaIcEEESt4pairIKS6_S6_ENS_10_Select1stESt8equal_toIS6_ESt4hashIS6_ENS_18_Mod_range_hashingENS_20_Default_ranged_hashENS_17_Hashtable_traitsILb1ELb0ELb1EEEE13_M_key_equalsERS8_RKNS_16_Hash_node_valueIS9_Lb1EEE
FN:1708,1716,_ZNKSt8__detail15_Hashtable_baseIjSt4pairIKjSt13unordered_mapINSt7__cxx1112basic_stringIcSt11char_traitsIcESaIcEEES9_St4hashIS9_ESt8equal_toIS9_ESaIS1_IKS9_S9_EEEENS_10_Select1stESC_IjESA_IjENS_18_Mod_range_hashingENS_20_Default_ranged_hashENS_17_Hashtable_traitsILb0ELb0ELb1EEEE13_M_key_equalsERS2_RKNS_16_Hash_node_valueISI_Lb0EEE
FN:1732,1734,_ZNKSt8__detail15_Hashtable_baseINSt7__cxx1112basic_stringIcSt11char_traitsIcESaIcEEESt4pairIKS6_N12WPEFramework10PluginHost7JSONRPC8ObserverEENS_10_Select1stESt8equal_toIS6_ESt4hashIS6_ENS_18_Mod_range_hashingENS_20_Default_ranged_hashENS_17_Hashtable_traitsILb1ELb0ELb1EEEE9_M_equalsERS8_mRKNS_16_Hash_node_valueISD_Lb1EEE
FN:1732,1734,_ZNKSt8__detail15_Hashtable_baseINSt7__cxx1112basic_stringIcSt11char_traitsIcESaIcEEESt4pairIKS6_N12WPEFramework4Core7JSONRPC7Handler5EntryEENS_10_Select1stESt8equal_toIS6_ESt4hashIS6_ENS_18_Mod_range_hashingENS_20_Default_ranged_hashENS_17_Hashtable_traitsILb1ELb0ELb1EEEE9_M_equalsERS8_mRKNS_16_Hash_node_valueISE_Lb1EEE
FN:1732,1734,_ZNKSt8__detail15_Hashtable_baseINSt7__cxx1112basic_stringIcSt11char_traitsIcESaIcEEESt4pairIKS6_S6_ENS_10_Select1stESt8equal_toIS6_ESt4hashIS6_ENS_18_Mod_range_hashingENS_20_Default_ranged_hashENS_17_Hashtable_traitsILb1ELb0ELb1EEEE9_M_equalsERS8_mRKNS_16_Hash_node_valueIS9_Lb1EEE
FN:1732,1734,_ZNKSt8__detail15_Hashtable_baseIjSt4pairIKjSt13unordered_mapINSt7__cxx1112basic_stringIcSt11char_traitsIcESaIcEEES9_St4hashIS9_ESt8equal_toIS9_ESaIS1_IKS9_S9_EEEENS_10_Select1stESC_IjESA_IjENS_18_Mod_range_hashingENS_20_Default_ranged_hashENS_17_Hashtable_traitsILb0ELb0ELb1EEEE9_M_equalsERS2_mRKNS_16_Hash_node_valueISI_Lb0EEE
FN:1760,1760,_ZNKSt8__detail15_Hashtable_baseINSt7__cxx1112basic_stringIcSt11char_traitsIcESaIcEEESt4pairIKS6_N12WPEFramework10PluginHost7JSONRPC8ObserverEENS_10_Select1stESt8equal_toIS6_ESt4hashIS6_ENS_18_Mod_range_hashingENS_20_Default_ranged_hashENS_17_Hashtable_traitsILb1ELb0ELb1EEEE5_M_eqEv
FN:1760,1760,_ZNKSt8__detail15_Hashtable_baseINSt7__cxx1112basic_stringIcSt11char_traitsIcESaIcEEESt4pairIKS6_N12WPEFramework4Core7JSONRPC7Handler5EntryEENS_10_Select1stESt8equal_toIS6_ESt4hashIS6_ENS_18_Mod_range_hashingENS_20_Default_ranged_hashENS_17_Hashtable_traitsILb1ELb0ELb1EEEE5_M_eqEv
FN:1760,1760,_ZNKSt8__detail15_Hashtable_baseINSt7__cxx1112basic_stringIcSt11char_traitsIcESaIcEEESt4pairIKS6_S6_ENS_10_Select1stESt8equal_toIS6_ESt4hashIS6_ENS_18_Mod_range_hashingENS_20_Default_ranged_hashENS_17_Hashtable_traitsILb1ELb0ELb1EEEE5_M_eqEv
FN:1760,1760,_ZNKSt8__detail15_Hashtable_baseIjSt4pairIKjSt13unordered_mapINSt7__cxx1112basic_stringIcSt11char_traitsIcESaIcEEES9_St4hashIS9_ESt8equal_toIS9_ESaIS1_IKS9_S9_EEEENS_10_Select1stESC_IjESA_IjENS_18_Mod_range_hashingENS_20_Default_ranged_hashENS_17_Hashtable_traitsILb0ELb0ELb1EEEE5_M_eqEv
FN:1940,1940,_ZNSt8__detail16_Hashtable_allocISaINS_10_Hash_nodeISt4pairIKNSt7__cxx1112basic_stringIcSt11char_traitsIcESaIcEEES8_ELb1EEEEEC2Ev
FN:1940,1940,_ZNSt8__detail16_Hashtable_allocISaINS_10_Hash_nodeISt4pairIKjSt13unordered_mapINSt7__cxx1112basic_stringIcSt11char_traitsIcESaIcEEESA_St4hashISA_ESt8equal_toISA_ESaIS2_IKSA_SA_EEEELb0EEEEEC2Ev
FN:1950,1951,_ZNSt8__detail16_Hashtable_allocISaINS_10_Hash_nodeISt4pairIKNSt7__cxx1112basic_stringIcSt11char_traitsIcESaIcEEEN12WPEFramework10PluginHost7JSONRPC8ObserverEELb1EEEEE17_M_node_allocatorEv
FN:1950,1951,_ZNSt8__detail16_Hashtable_allocISaINS_10_Hash_nodeISt4pairIKNSt7__cxx1112basic_stringIcSt11char_traitsIcESaIcEEES8_ELb1EEEEE17_M_node_allocatorEv
FN:1950,1951,_ZNSt8__detail16_Hashtable_allocISaINS_10_Hash_nodeISt4pairIKjSt13unordered_mapINSt7__cxx1112basic_stringIcSt11char_traitsIcESaIcEEESA_St4hashISA_ESt8equal_toISA_ESaIS2_IKSA_SA_EEEELb0EEEEE17_M_node_allocatorEv
FN:1987,2005,_ZNSt8__detail16_Hashtable_allocISaINS_10_Hash_nodeISt4pairIKNSt7__cxx1112basic_stringIcSt11char_traitsIcESaIcEEEN12WPEFramework10PluginHost7JSONRPC8ObserverEELb1EEEEE16_M_allocate_nodeIJRKSt21piecewise_construct_tSt5tupleIJRS9_EESM_IJEEEEEPSF_DpOT_
FN:1987,2005,_ZNSt8__detail16_Hashtable_allocISaINS_10_Hash_nodeISt4pairIKNSt7__cxx1112basic_stringIcSt11char_traitsIcESaIcEEES8_ELb1EEEEE16_M_allocate_nodeIJRKSt21piecewise_construct_tSt5tupleIJRS9_EESI_IJEEEEEPSB_DpOT_
FN:1987,2005,_ZNSt8__detail16_Hashtable_allocISaINS_10_Hash_nodeISt4pairIKjSt13unordered_mapINSt7__cxx1112basic_stringIcSt11char_traitsIcESaIcEEESA_St4hashISA_ESt8equal_toISA_ESaIS2_IKSA_SA_EEEELb0EEEEE16_M_allocate_nodeIJRKSt21piecewise_construct_tSt5tupleIJRS3_EESR_IJEEEEEPSK_DpOT_
FN:2009,2013,_ZNSt8__detail16_Hashtable_allocISaINS_10_Hash_nodeISt4pairIKNSt7__cxx1112basic_stringIcSt11char_traitsIcESaIcEEEN12WPEFramework10PluginHost7JSONRPC8ObserverEELb1EEEEE18_M_deallocate_nodeEPSF_
FN:2009,2013,_ZNSt8__detail16_Hashtable_allocISaINS_10_Hash_nodeISt4pairIKNSt7__cxx1112basic_stringIcSt11char_traitsIcESaIcEEES8_ELb1EEEEE18_M_deallocate_nodeEPSB_
FN:2009,2013,_ZNSt8__detail16_Hashtable_allocISaINS_10_Hash_nodeISt4pairIKjSt13unordered_mapINSt7__cxx1112basic_stringIcSt11char_traitsIcESaIcEEESA_St4hashISA_ESt8equal_toISA_ESaIS2_IKSA_SA_EEEELb0EEEEE18_M_deallocate_nodeEPSK_
FN:2017,2023,_ZNSt8__detail16_Hashtable_allocISaINS_10_Hash_nodeISt4pairIKNSt7__cxx1112basic_stringIcSt11char_traitsIcESaIcEEEN12WPEFramework10PluginHost7JSONRPC8ObserverEELb1EEEEE22_M_deallocate_node_ptrEPSF_
FN:2017,2023,_ZNSt8__detail16_Hashtable_allocISaINS_10_Hash_nodeISt4pairIKNSt7__cxx1112basic_stringIcSt11char_traitsIcESaIcEEES8_ELb1EEEEE22_M_deallocate_node_ptrEPSB_
FN:2017,2023,_ZNSt8__detail16_Hashtable_allocISaINS_10_Hash_nodeISt4pairIKjSt13unordered_mapINSt7__cxx1112basic_stringIcSt11char_traitsIcESaIcEEESA_St4hashISA_ESt8equal_toISA_ESaIS2_IKSA_SA_EEEELb0EEEEE22_M_deallocate_node_ptrEPSK_
FN:2027,2035,_ZNSt8__detail16_Hashtable_allocISaINS_10_Hash_nodeISt4pairIKNSt7__cxx1112basic_stringIcSt11char_traitsIcESaIcEEEN12WPEFramework10PluginHost7JSONRPC8ObserverEELb1EEEEE19_M_deallocate_nodesEPSF_
FN:2027,2035,_ZNSt8__detail16_Hashtable_allocISaINS_10_Hash_nodeISt4pairIKNSt7__cxx1112basic_stringIcSt11char_traitsIcESaIcEEES8_ELb1EEEEE19_M_deallocate_nodesEPSB_
FN:2027,2035,_ZNSt8__detail16_Hashtable_allocISaINS_10_Hash_nodeISt4pairIKjSt13unordered_mapINSt7__cxx1112basic_stringIcSt11char_traitsIcESaIcEEESA_St4hashISA_ESt8equal_toISA_ESaIS2_IKSA_SA_EEEELb0EEEEE19_M_deallocate_nodesEPSK_
FN:2039,2048,_ZNSt8__detail16_Hashtable_allocISaINS_10_Hash_nodeISt4pairIKNSt7__cxx1112basic_stringIcSt11char_traitsIcESaIcEEEN12WPEFramework10PluginHost7JSONRPC8ObserverEELb1EEEEE19_M_allocate_bucketsEm
FN:2039,2048,_ZNSt8__detail16_Hashtable_allocISaINS_10_Hash_nodeISt4pairIKNSt7__cxx1112basic_stringIcSt11char_traitsIcESaIcEEES8_ELb1EEEEE19_M_allocate_bucketsEm
FN:2039,2048,_ZNSt8__detail16_Hashtable_allocISaINS_10_Hash_nodeISt4pairIKjSt13unordered_mapINSt7__cxx1112basic_stringIcSt11char_traitsIcESaIcEEESA_St4hashISA_ESt8equal_toISA_ESaIS2_IKSA_SA_EEEELb0EEEEE19_M_allocate_bucketsEm
FN:2052,2060,_ZNSt8__detail16_Hashtable_allocISaINS_10_Hash_nodeISt4pairIKNSt7__cxx1112basic_stringIcSt11char_traitsIcESaIcEEEN12WPEFramework10PluginHost7JSONRPC8ObserverEELb1EEEEE21_M_deallocate_bucketsEPPNS_15_Hash_node_baseEm
FN:2052,2060,_ZNSt8__detail16_Hashtable_allocISaINS_10_Hash_nodeISt4pairIKNSt7__cxx1112basic_stringIcSt11char_traitsIcESaIcEEES8_ELb1EEEEE21_M_deallocate_bucketsEPPNS_15_Hash_node_baseEm
FN:2052,2060,_ZNSt8__detail16_Hashtable_allocISaINS_10_Hash_nodeISt4pairIKjSt13unordered_mapINSt7__cxx1112basic_stringIcSt11char_traitsIcESaIcEEESA_St4hashISA_ESt8equal_toISA_ESaIS2_IKSA_SA_EEEELb0EEEEE21_M_deallocate_bucketsEPPNS_15_Hash_node_baseEm
FN:297,298,_ZNSt8__detail22_Hashtable_hash_traitsISt4hashINSt7__cxx1112basic_stringIcSt11char_traitsIcESaIcEEEEE22__small_size_thresholdEv
FN:297,298,_ZNSt8__detail22_Hashtable_hash_traitsISt4hashIjEE22__small_size_thresholdEv
FN:313,313,_ZNSt8__detail15_Hash_node_baseC2Ev
FN:380,381,_ZNKSt8__detail10_Hash_nodeISt4pairIKNSt7__cxx1112basic_stringIcSt11char_traitsIcESaIcEEEN12WPEFramework10PluginHost7JSONRPC8ObserverEELb1EE7_M_nextEv
FN:380,381,_ZNKSt8__detail10_Hash_nodeISt4pairIKNSt7__cxx1112basic_stringIcSt11char_traitsIcESaIcEEEN12WPEFramework4Core7JSONRPC7Handler5EntryEELb1EE7_M_nextEv
FN:380,381,_ZNKSt8__detail10_Hash_nodeISt4pairIKNSt7__cxx1112basic_stringIcSt11char_traitsIcESaIcEEES7_ELb1EE7_M_nextEv
FN:380,381,_ZNKSt8__detail10_Hash_nodeISt4pairIKjSt13unordered_mapINSt7__cxx1112basic_stringIcSt11char_traitsIcESaIcEEES9_St4hashIS9_ESt8equal_toIS9_ESaIS1_IKS9_S9_EEEELb0EE7_M_nextEv
FN:393,394,_ZNSt8__detail19_Node_iterator_baseISt4pairIKNSt7__cxx1112basic_stringIcSt11char_traitsIcESaIcEEEN12WPEFramework10PluginHost7JSONRPC8ObserverEELb1EEC2EPNS_10_Hash_nodeISD_Lb1EEE
FN:393,394,_ZNSt8__detail19_Node_iterator_baseISt4pairIKNSt7__cxx1112basic_stringIcSt11char_traitsIcESaIcEEEN12WPEFramework4Core7JSONRPC7Handler5EntryEELb1EEC2EPNS_10_Hash_nodeISE_Lb1EEE
FN:393,394,_ZNSt8__detail19_Node_iterator_baseISt4pairIKNSt7__cxx1112basic_stringIcSt11char_traitsIcESaIcEEES7_ELb1EEC2EPNS_10_Hash_nodeIS9_Lb1EEE
FN:393,394,_ZNSt8__detail19_Node_iterator_baseISt4pairIKjSt13unordered_mapINSt7__cxx1112basic_stringIcSt11char_traitsIcESaIcEEES9_St4hashIS9_ESt8equal_toIS9_ESaIS1_IKS9_S9_EEEELb0EEC2EPNS_10_Hash_nodeISI_Lb0EEE
FN:397,398,_ZNSt8__detail19_Node_iterator_baseISt4pairIKNSt7__cxx1112basic_stringIcSt11char_traitsIcESaIcEEEN12WPEFramework10PluginHost7JSONRPC8ObserverEELb1EE7_M_incrEv
FN:397,398,_ZNSt8__detail19_Node_iterator_baseISt4pairIKNSt7__cxx1112basic_stringIcSt11char_traitsIcESaIcEEEN12WPEFramework4Core7JSONRPC7Handler5EntryEELb1EE7_M_incrEv
FN:397,398,_ZNSt8__detail19_Node_iterator_baseISt4pairIKNSt7__cxx1112basic_stringIcSt11char_traitsIcESaIcEEES7_ELb1EE7_M_incrEv
FN:397,398,_ZNSt8__detail19_Node_iterator_baseISt4pairIKjSt13unordered_mapINSt7__cxx1112basic_stringIcSt11char_traitsIcESaIcEEES9_St4hashIS9_ESt8equal_toIS9_ESaIS1_IKS9_S9_EEEELb0EE7_M_incrEv
FN:401,403,_ZNSt8__detaileqERKNS_19_Node_iterator_baseISt4pairIKNSt7__cxx1112basic_stringIcSt11char_traitsIcESaIcEEEN12WPEFramework10PluginHost7JSONRPC8ObserverEELb1EEESG_
FN:401,403,_ZNSt8__detaileqERKNS_19_Node_iterator_baseISt4pairIKNSt7__cxx1112basic_stringIcSt11char_traitsIcESaIcEEES7_ELb1EEESC_
FN:401,403,_ZNSt8__detaileqERKNS_19_Node_iterator_baseISt4pairIKjSt13unordered_mapINSt7__cxx1112basic_stringIcSt11char_traitsIcESaIcEEES9_St4hashIS9_ESt8equal_toIS9_ESaIS1_IKS9_S9_EEEELb0EEESL_
FN:407,409,_ZNSt8__detailneERKNS_19_Node_iterator_baseISt4pairIKNSt7__cxx1112basic_stringIcSt11char_traitsIcESaIcEEEN12WPEFramework10PluginHost7JSONRPC8ObserverEELb1EEESG_
FN:407,409,_ZNSt8__detailneERKNS_19_Node_iterator_baseISt4pairIKNSt7__cxx1112basic_stringIcSt11char_traitsIcESaIcEEEN12WPEFramework4Core7JSONRPC7Handler5EntryEELb1EEESH_
FN:407,409,_ZNSt8__detailneERKNS_19_Node_iterator_baseISt4pairIKNSt7__cxx1112basic_stringIcSt11char_traitsIcESaIcEEES7_ELb1EEESC_
FN:407,409,_ZNSt8__detailneERKNS_19_Node_iterator_baseISt4pairIKjSt13unordered_mapINSt7__cxx1112basic_stringIcSt11char_traitsIcESaIcEEES9_St4hashIS9_ESt8equal_toIS9_ESaIS1_IKS9_S9_EEEELb0EEESL_
FN:436,437,_ZNSt8__detail14_Node_iteratorISt4pairIKNSt7__cxx1112basic_stringIcSt11char_traitsIcESaIcEEEN12WPEFramework10PluginHost7JSONRPC8ObserverEELb0ELb1EEC2EPNS_10_Hash_nodeISD_Lb1EEE
FN:436,437,_ZNSt8__detail14_Node_iteratorISt4pairIKNSt7__cxx1112basic_stringIcSt11char_traitsIcESaIcEEEN12WPEFramework4Core7JSONRPC7Handler5EntryEELb0ELb1EEC2EPNS_10_Hash_nodeISE_Lb1EEE
FN:436,437,_ZNSt8__detail14_Node_iteratorISt4pairIKNSt7__cxx1112basic_stringIcSt11char_traitsIcESaIcEEES7_ELb0ELb1EEC2EPNS_10_Hash_nodeIS9_Lb1EEE
FN:436,437,_ZNSt8__detail14_Node_iteratorISt4pairIKjSt13unordered_mapINSt7__cxx1112basic_stringIcSt11char_traitsIcESaIcEEES9_St4hashIS9_ESt8equal_toIS9_ESaIS1_IKS9_S9_EEEELb0ELb0EEC2EPNS_10_Hash_nodeISI_Lb0EEE
FN:440,441,_ZNKSt8__detail14_Node_iteratorISt4pairIKNSt7__cxx1112basic_stringIcSt11char_traitsIcESaIcEEEN12WPEFramework10PluginHost7JSONRPC8ObserverEELb0ELb1EEdeEv
FN:444,445,_ZNKSt8__detail14_Node_iteratorISt4pairIKNSt7__cxx1112basic_stringIcSt11char_traitsIcESaIcEEEN12WPEFramework10PluginHost7JSONRPC8ObserverEELb0ELb1EEptEv
FN:444,445,_ZNKSt8__detail14_Node_iteratorISt4pairIKNSt7__cxx1112basic_stringIcSt11char_traitsIcESaIcEEEN12WPEFramework4Core7JSONRPC7Handler5EntryEELb0ELb1EEptEv
FN:444,445,_ZNKSt8__detail14_Node_iteratorISt4pairIKNSt7__cxx1112basic_stringIcSt11char_traitsIcESaIcEEES7_ELb0ELb1EEptEv
FN:444,445,_ZNKSt8__detail14_Node_iteratorISt4pairIKjSt13unordered_mapINSt7__cxx1112basic_stringIcSt11char_traitsIcESaIcEEES9_St4hashIS9_ESt8equal_toIS9_ESaIS1_IKS9_S9_EEEELb0ELb0EEptEv
FN:448,452,_ZNSt8__detail14_Node_iteratorISt4pairIKNSt7__cxx1112basic_stringIcSt11char_traitsIcESaIcEEEN12WPEFramework10PluginHost7JSONRPC8ObserverEELb0ELb1EEppEv
FN:448,452,_ZNSt8__detail14_Node_iteratorISt4pairIKNSt7__cxx1112basic_stringIcSt11char_traitsIcESaIcEEEN12WPEFramework4Core7JSONRPC7Handler5EntryEELb0ELb1EEppEv
FN:448,452,_ZNSt8__detail14_Node_iteratorISt4pairIKNSt7__cxx1112basic_stringIcSt11char_traitsIcESaIcEEES7_ELb0ELb1EEppEv
FN:448,452,_ZNSt8__detail14_Node_iteratorISt4pairIKjSt13unordered_mapINSt7__cxx1112basic_stringIcSt11char_traitsIcESaIcEEES9_St4hashIS9_ESt8equal_toIS9_ESaIS1_IKS9_S9_EEEELb0ELb0EEppEv
FN:455,460,_ZNSt8__detail14_Node_iteratorISt4pairIKNSt7__cxx1112basic_stringIcSt11char_traitsIcESaIcEEEN12WPEFramework10PluginHost7JSONRPC8ObserverEELb0ELb1EEppEi
FN:483,484,_ZNSt8__detail20_Node_const_iteratorISt4pairIKNSt7__cxx1112basic_stringIcSt11char_traitsIcESaIcEEEN12WPEFramework4Core7JSONRPC7Handler5EntryEELb0ELb1EEC2EPNS_10_Hash_nodeISE_Lb1EEE
FN:486,488,_ZNSt8__detail20_Node_const_iteratorISt4pairIKNSt7__cxx1112basic_stringIcSt11char_traitsIcESaIcEEEN12WPEFramework10PluginHost7JSONRPC8ObserverEELb0ELb1EEC2ERKNS_14_Node_iteratorISD_Lb0ELb1EEE
FN:499,503,_ZNSt8__detail20_Node_const_iteratorISt4pairIKNSt7__cxx1112basic_stringIcSt11char_traitsIcESaIcEEEN12WPEFramework4Core7JSONRPC7Handler5EntryEELb0ELb1EEppEv
FN:526,528,_ZNKSt8__detail18_Mod_range_hashingclEmm
FN:544,545,_ZNSt8__detail20_Prime_rehash_policyC2Ef
FN:571,572,_ZNKSt8__detail20_Prime_rehash_policy8_M_stateEv
FN:579,580,_ZNSt8__detail20_Prime_rehash_policy8_M_resetEm
FN:807,828,_ZNSt8__detail9_Map_baseINSt7__cxx1112basic_stringIcSt11char_traitsIcESaIcEEESt4pairIKS6_S6_ESaIS9_ENS_10_Select1stESt8equal_toIS6_ESt4hashIS6_ENS_18_Mod_range_hashingENS_20_Default_ranged_hashENS_20_Prime_rehash_policyENS_17_Hashtable_traitsILb1ELb0ELb1EEELb1EEixERS8_
FN:807,828,_ZNSt8__detail9_Map_baseIjSt4pairIKjSt13unordered_mapINSt7__cxx1112basic_stringIcSt11char_traitsIcESaIcEEES9_St4hashIS9_ESt8equal_toIS9_ESaIS1_IKS9_S9_EEEESaISI_ENS_10_Select1stESC_IjESA_IjENS_18_Mod_range_hashingENS_20_Default_ranged_hashENS_20_Prime_rehash_policyENS_17_Hashtable_traitsILb0ELb0ELb1EEELb1EEixERS2_
FNDA:0,_ZNKSt8__detail10_Select1stclIRKSt4pairIKNSt7__cxx1112basic_stringIcSt11char_traitsIcESaIcEEEN12WPEFramework10PluginHost7JSONRPC8ObserverEEEEONS0_10__1st_typeIT_E4typeEOSI_
FNDA:120,_ZNKSt8__detail10_Select1stclIRKSt4pairIKNSt7__cxx1112basic_stringIcSt11char_traitsIcESaIcEEEN12WPEFramework4Core7JSONRPC7Handler5EntryEEEEONS0_10__1st_typeIT_E4typeEOSJ_
FNDA:2,_ZNKSt8__detail10_Select1stclIRKSt4pairIKNSt7__cxx1112basic_stringIcSt11char_traitsIcESaIcEEES8_EEEONS0_10__1st_typeIT_E4typeEOSE_
FNDA:2,_ZNKSt8__detail10_Select1stclIRKSt4pairIKjSt13unordered_mapINSt7__cxx1112basic_stringIcSt11char_traitsIcESaIcEEESA_St4hashISA_ESt8equal_toISA_ESaIS2_IKSA_SA_EEEEEEONS0_10__1st_typeIT_E4typeEOSN_
FNDA:0,_ZNKSt8__detail10_Select1stclIRSt4pairIKNSt7__cxx1112basic_stringIcSt11char_traitsIcESaIcEEEN12WPEFramework10PluginHost7JSONRPC8ObserverEEEEONS0_10__1st_typeIT_E4typeEOSH_
FNDA:1,_ZNSt8__detail21_Hashtable_ebo_helperILi0ESaINS_10_Hash_nodeISt4pairIKNSt7__cxx1112basic_stringIcSt11char_traitsIcESaIcEEES8_ELb1EEEELb1EEC2Ev
FNDA:29,_ZNSt8__detail21_Hashtable_ebo_helperILi0ESaINS_10_Hash_nodeISt4pairIKjSt13unordered_mapINSt7__cxx1112basic_stringIcSt11char_traitsIcESaIcEEESA_St4hashISA_ESt8equal_toISA_ESaIS2_IKSA_SA_EEEELb0EEEELb1EEC2Ev
FNDA:401,_ZNSt8__detail21_Hashtable_ebo_helperILi0ESt8equal_toINSt7__cxx1112basic_stringIcSt11char_traitsIcESaIcEEEELb1EEC2Ev
FNDA:29,_ZNSt8__detail21_Hashtable_ebo_helperILi0ESt8equal_toIjELb1EEC2Ev
FNDA:401,_ZNSt8__detail21_Hashtable_ebo_helperILi1ESt4hashINSt7__cxx1112basic_stringIcSt11char_traitsIcESaIcEEEELb1EEC2Ev
FNDA:29,_ZNSt8__detail21_Hashtable_ebo_helperILi1ESt4hashIjELb1EEC2Ev
FNDA:5747,_ZNKSt8__detail21_Hashtable_ebo_helperILi0ESt8equal_toINSt7__cxx1112basic_stringIcSt11char_traitsIcESaIcEEEELb1EE7_M_cgetEv
FNDA:2,_ZNKSt8__detail21_Hashtable_ebo_helperILi0ESt8equal_toIjELb1EE7_M_cgetEv
FNDA:718,_ZNKSt8__detail21_Hashtable_ebo_helperILi1ESt4hashINSt7__cxx1112basic_stringIcSt11char_traitsIcESaIcEEEELb1EE7_M_cgetEv
FNDA:4,_ZNKSt8__detail21_Hashtable_ebo_helperILi1ESt4hashIjELb1EE7_M_cgetEv
FNDA:0,_ZNSt8__detail21_Hashtable_ebo_helperILi0ESaINS_10_Hash_nodeISt4pairIKNSt7__cxx1112basic_stringIcSt11char_traitsIcESaIcEEEN12WPEFramework10PluginHost7JSONRPC8ObserverEELb1EEEELb1EE6_M_getEv
FNDA:3,_ZNSt8__detail21_Hashtable_ebo_helperILi0ESaINS_10_Hash_nodeISt4pairIKNSt7__cxx1112basic_stringIcSt11char_traitsIcESaIcEEES8_ELb1EEEELb1EE6_M_getEv
FNDA:3,_ZNSt8__detail21_Hashtable_ebo_helperILi0ESaINS_10_Hash_nodeISt4pairIKjSt13unordered_mapINSt7__cxx1112basic_stringIcSt11char_traitsIcESaIcEEESA_St4hashISA_ESt8equal_toISA_ESaIS2_IKSA_SA_EEEELb0EEEELb1EE6_M_getEv
FNDA:1,_ZNSt8__detail15_Hash_code_baseINSt7__cxx1112basic_stringIcSt11char_traitsIcESaIcEEESt4pairIKS6_S6_ENS_10_Select1stESt4hashIS6_ENS_18_Mod_range_hashingENS_20_Default_ranged_hashELb1EEC2Ev
FNDA:29,_ZNSt8__detail15_Hash_code_baseIjSt4pairIKjSt13unordered_mapINSt7__cxx1112basic_stringIcSt11char_traitsIcESaIcEEES9_St4hashIS9_ESt8equal_toIS9_ESaIS1_IKS9_S9_EEEENS_10_Select1stESA_IjENS_18_Mod_range_hashingENS_20_Default_ranged_hashELb0EEC2Ev
FNDA:0,_ZNKSt8__detail15_Hash_code_baseINSt7__cxx1112basic_stringIcSt11char_traitsIcESaIcEEESt4pairIKS6_N12WPEFramework10PluginHost7JSONRPC8ObserverEENS_10_Select1stESt4hashIS6_ENS_18_Mod_range_hashingENS_20_Default_ranged_hashELb1EE12_M_hash_codeERS8_
FNDA:26,_ZNKSt8__detail15_Hash_code_baseINSt7__cxx1112basic_stringIcSt11char_traitsIcESaIcEEESt4pairIKS6_N12WPEFramework4Core7JSONRPC7Handler5EntryEENS_10_Select1stESt4hashIS6_ENS_18_Mod_range_hashingENS_20_Default_ranged_hashELb1EE12_M_hash_codeERS8_
FNDA:1,_ZNKSt8__detail15_Hash_code_baseINSt7__cxx1112basic_stringIcSt11char_traitsIcESaIcEEESt4pairIKS6_S6_ENS_10_Select1stESt4hashIS6_ENS_18_Mod_range_hashingENS_20_Default_ranged_hashELb1EE12_M_hash_codeERS8_
FNDA:4,_ZNKSt8__detail15_Hash_code_baseIjSt4pairIKjSt13unordered_mapINSt7__cxx1112basic_stringIcSt11char_traitsIcESaIcEEES9_St4hashIS9_ESt8equal_toIS9_ESaIS1_IKS9_S9_EEEENS_10_Select1stESA_IjENS_18_Mod_range_hashingENS_20_Default_ranged_hashELb0EE12_M_hash_codeERS2_
FNDA:0,_ZNKSt8__detail15_Hash_code_baseINSt7__cxx1112basic_stringIcSt11char_traitsIcESaIcEEESt4pairIKS6_N12WPEFramework10PluginHost7JSONRPC8ObserverEENS_10_Select1stESt4hashIS6_ENS_18_Mod_range_hashingENS_20_Default_ranged_hashELb1EE15_M_bucket_indexEmm
FNDA:52,_ZNKSt8__detail15_Hash_code_baseINSt7__cxx1112basic_stringIcSt11char_traitsIcESaIcEEESt4pairIKS6_N12WPEFramework4Core7JSONRPC7Handler5EntryEENS_10_Select1stESt4hashIS6_ENS_18_Mod_range_hashingENS_20_Default_ranged_hashELb1EE15_M_bucket_indexEmm
FNDA:2,_ZNKSt8__detail15_Hash_code_baseINSt7__cxx1112basic_stringIcSt11char_traitsIcESaIcEEESt4pairIKS6_S6_ENS_10_Select1stESt4hashIS6_ENS_18_Mod_range_hashingENS_20_Default_ranged_hashELb1EE15_M_bucket_indexEmm
FNDA:5,_ZNKSt8__detail15_Hash_code_baseIjSt4pairIKjSt13unordered_mapINSt7__cxx1112basic_stringIcSt11char_traitsIcESaIcEEES9_St4hashIS9_ESt8equal_toIS9_ESaIS1_IKS9_S9_EEEENS_10_Select1stESA_IjENS_18_Mod_range_hashingENS_20_Default_ranged_hashELb0EE15_M_bucket_indexEmm
FNDA:0,_ZNKSt8__detail15_Hash_code_baseIjSt4pairIKjSt13unordered_mapINSt7__cxx1112basic_stringIcSt11char_traitsIcESaIcEEES9_St4hashIS9_ESt8equal_toIS9_ESaIS1_IKS9_S9_EEEENS_10_Select1stESA_IjENS_18_Mod_range_hashingENS_20_Default_ranged_hashELb0EE15_M_bucket_indexERKNS_16_Hash_node_valueISI_Lb0EEEm
FNDA:0,_ZNKSt8__detail15_Hash_code_baseINSt7__cxx1112basic_stringIcSt11char_traitsIcESaIcEEESt4pairIKS6_N12WPEFramework10PluginHost7JSONRPC8ObserverEENS_10_Select1stESt4hashIS6_ENS_18_Mod_range_hashingENS_20_Default_ranged_hashELb1EE15_M_bucket_indexERKNS_16_Hash_node_valueISD_Lb1EEEm
FNDA:26,_ZNKSt8__detail15_Hash_code_baseINSt7__cxx1112basic_stringIcSt11char_traitsIcESaIcEEESt4pairIKS6_N12WPEFramework4Core7JSONRPC7Handler5EntryEENS_10_Select1stESt4hashIS6_ENS_18_Mod_range_hashingENS_20_Default_ranged_hashELb1EE15_M_bucket_indexERKNS_16_Hash_node_valueISE_Lb1EEEm
FNDA:0,_ZNKSt8__detail15_Hash_code_baseINSt7__cxx1112basic_stringIcSt11char_traitsIcESaIcEEESt4pairIKS6_S6_ENS_10_Select1stESt4hashIS6_ENS_18_Mod_range_hashingENS_20_Default_ranged_hashELb1EE15_M_bucket_indexERKNS_16_Hash_node_valueIS9_Lb1EEEm
FNDA:1,_ZNKSt8__detail15_Hash_code_baseIjSt4pairIKjSt13unordered_mapINSt7__cxx1112basic_stringIcSt11char_traitsIcESaIcEEES9_St4hashIS9_ESt8equal_toIS9_ESaIS1_IKS9_S9_EEEENS_10_Select1stESA_IjENS_18_Mod_range_hashingENS_20_Default_ranged_hashELb0EE13_M_store_codeERNS_21_Hash_node_code_cacheILb0EEEm
FNDA:0,_ZNKSt8__detail15_Hash_code_baseINSt7__cxx1112basic_stringIcSt11char_traitsIcESaIcEEESt4pairIKS6_N12WPEFramework10PluginHost7JSONRPC8ObserverEENS_10_Select1stESt4hashIS6_ENS_18_Mod_range_hashingENS_20_Default_ranged_hashELb1EE13_M_store_codeERNS_21_Hash_node_code_cacheILb1EEEm
FNDA:1,_ZNKSt8__detail15_Hash_code_baseINSt7__cxx1112basic_stringIcSt11char_traitsIcESaIcEEESt4pairIKS6_S6_ENS_10_Select1stESt4hashIS6_ENS_18_Mod_range_hashingENS_20_Default_ranged_hashELb1EE13_M_store_codeERNS_21_Hash_node_code_cacheILb1EEEm
FNDA:0,_ZNKSt8__detail15_Hash_code_baseINSt7__cxx1112basic_stringIcSt11char_traitsIcESaIcEEESt4pairIKS6_N12WPEFramework10PluginHost7JSONRPC8ObserverEENS_10_Select1stESt4hashIS6_ENS_18_Mod_range_hashingENS_20_Default_ranged_hashELb1EE7_M_hashEv
FNDA:26,_ZNKSt8__detail15_Hash_code_baseINSt7__cxx1112basic_stringIcSt11char_traitsIcESaIcEEESt4pairIKS6_N12WPEFramework4Core7JSONRPC7Handler5EntryEENS_10_Select1stESt4hashIS6_ENS_18_Mod_range_hashingENS_20_Default_ranged_hashELb1EE7_M_hashEv
FNDA:1,_ZNKSt8__detail15_Hash_code_baseINSt7__cxx1112basic_stringIcSt11char_traitsIcESaIcEEESt4pairIKS6_S6_ENS_10_Select1stESt4hashIS6_ENS_18_Mod_range_hashingENS_20_Default_ranged_hashELb1EE7_M_hashEv
FNDA:4,_ZNKSt8__detail15_Hash_code_baseIjSt4pairIKjSt13unordered_mapINSt7__cxx1112basic_stringIcSt11char_traitsIcESaIcEEES9_St4hashIS9_ESt8equal_toIS9_ESaIS1_IKS9_S9_EEEENS_10_Select1stESA_IjENS_18_Mod_range_hashingENS_20_Default_ranged_hashELb0EE7_M_hashEv
FNDA:2,_ZNSt8__detail15_Hashtable_baseIjSt4pairIKjSt13unordered_mapINSt7__cxx1112basic_stringIcSt11char_traitsIcESaIcEEES9_St4hashIS9_ESt8equal_toIS9_ESaIS1_IKS9_S9_EEEENS_10_Select1stESC_IjESA_IjENS_18_Mod_range_hashingENS_20_Default_ranged_hashENS_17_Hashtable_traitsILb0ELb0ELb1EEEE9_S_equalsEmRKNS_21_Hash_node_code_cacheILb0EEE
FNDA:0,_ZNSt8__detail15_Hashtable_baseINSt7__cxx1112basic_stringIcSt11char_traitsIcESaIcEEESt4pairIKS6_N12WPEFramework10PluginHost7JSONRPC8ObserverEENS_10_Select1stESt8equal_toIS6_ESt4hashIS6_ENS_18_Mod_range_hashingENS_20_Default_ranged_hashENS_17_Hashtable_traitsILb1ELb0ELb1EEEE9_S_equalsEmRKNS_21_Hash_node_code_cacheILb1EEE
FNDA:0,_ZNSt8__detail15_Hashtable_baseINSt7__cxx1112basic_stringIcSt11char_traitsIcESaIcEEESt4pairIKS6_N12WPEFramework4Core7JSONRPC7Handler5EntryEENS_10_Select1stESt8equal_toIS6_ESt4hashIS6_ENS_18_Mod_range_hashingENS_20_Default_ranged_hashENS_17_Hashtable_traitsILb1ELb0ELb1EEEE9_S_equalsEmRKNS_21_Hash_node_code_cacheILb1EEE
FNDA:0,_ZNSt8__detail15_Hashtable_baseINSt7__cxx1112basic_stringIcSt11char_traitsIcESaIcEEESt4pairIKS6_S6_ENS_10_Select1stESt8equal_toIS6_ESt4hashIS6_ENS_18_Mod_range_hashingENS_20_Default_ranged_hashENS_17_Hashtable_traitsILb1ELb0ELb1EEEE9_S_equalsEmRKNS_21_Hash_node_code_cacheILb1EEE
FNDA:1,_ZNSt8__detail15_Hashtable_baseINSt7__cxx1112basic_stringIcSt11char_traitsIcESaIcEEESt4pairIKS6_S6_ENS_10_Select1stESt8equal_toIS6_ESt4hashIS6_ENS_18_Mod_range_hashingENS_20_Default_ranged_hashENS_17_Hashtable_traitsILb1ELb0ELb1EEEEC2Ev
FNDA:29,_ZNSt8__detail15_Hashtable_baseIjSt4pairIKjSt13unordered_mapINSt7__cxx1112basic_stringIcSt11char_traitsIcESaIcEEES9_St4hashIS9_ESt8equal_toIS9_ESaIS1_IKS9_S9_EEEENS_10_Select1stESC_IjESA_IjENS_18_Mod_range_hashingENS_20_Default_ranged_hashENS_17_Hashtable_traitsILb0ELb0ELb1EEEEC2Ev
FNDA:0,_ZNKSt8__detail15_Hashtable_baseINSt7__cxx1112basic_stringIcSt11char_traitsIcESaIcEEESt4pairIKS6_N12WPEFramework10PluginHost7JSONRPC8ObserverEENS_10_Select1stESt8equal_toIS6_ESt4hashIS6_ENS_18_Mod_range_hashingENS_20_Default_ranged_hashENS_17_Hashtable_traitsILb1ELb0ELb1EEEE13_M_key_equalsERS8_RKNS_16_Hash_node_valueISD_Lb1EEE
FNDA:120,_ZNKSt8__detail15_Hashtable_baseINSt7__cxx1112basic_stringIcSt11char_traitsIcESaIcEEESt4pairIKS6_N12WPEFramework4Core7JSONRPC7Handler5EntryEENS_10_Select1stESt8equal_toIS6_ESt4hashIS6_ENS_18_Mod_range_hashingENS_20_Default_ranged_hashENS_17_Hashtable_traitsILb1ELb0ELb1EEEE13_M_key_equalsERS8_RKNS_16_Hash_node_valueISE_Lb1EEE
FNDA:2,_ZNKSt8__detail15_Hashtable_baseINSt7__cxx1112basic_stringIcSt11char_traitsIcESaIcEEESt4pairIKS6_S6_ENS_10_Select1stESt8equal_toIS6_ESt4hashIS6_ENS_18_Mod_range_hashingENS_20_Default_ranged_hashENS_17_Hashtable_traitsILb1ELb0ELb1EEEE13_M_key_equalsERS8_RKNS_16_Hash_node_valueIS9_Lb1EEE
FNDA:2,_ZNKSt8__detail15_Hashtable_baseIjSt4pairIKjSt13unordered_mapINSt7__cxx1112basic_stringIcSt11char_traitsIcESaIcEEES9_St4hashIS9_ESt8equal_toIS9_ESaIS1_IKS9_S9_EEEENS_10_Select1stESC_IjESA_IjENS_18_Mod_range_hashingENS_20_Default_ranged_hashENS_17_Hashtable_traitsILb0ELb0ELb1EEEE13_M_key_equalsERS2_RKNS_16_Hash_node_valueISI_Lb0EEE
FNDA:0,_ZNKSt8__detail15_Hashtable_baseINSt7__cxx1112basic_stringIcSt11char_traitsIcESaIcEEESt4pairIKS6_N12WPEFramework10PluginHost7JSONRPC8ObserverEENS_10_Select1stESt8equal_toIS6_ESt4hashIS6_ENS_18_Mod_range_hashingENS_20_Default_ranged_hashENS_17_Hashtable_traitsILb1ELb0ELb1EEEE9_M_equalsERS8_mRKNS_16_Hash_node_valueISD_Lb1EEE
FNDA:0,_ZNKSt8__detail15_Hashtable_baseINSt7__cxx1112basic_stringIcSt11char_traitsIcESaIcEEESt4pairIKS6_N12WPEFramework4Core7JSONRPC7Handler5EntryEENS_10_Select1stESt8equal_toIS6_ESt4hashIS6_ENS_18_Mod_range_hashingENS_20_Default_ranged_hashENS_17_Hashtable_traitsILb1ELb0ELb1EEEE9_M_equalsERS8_mRKNS_16_Hash_node_valueISE_Lb1EEE
FNDA:0,_ZNKSt8__detail15_Hashtable_baseINSt7__cxx1112basic_stringIcSt11char_traitsIcESaIcEEESt4pairIKS6_S6_ENS_10_Select1stESt8equal_toIS6_ESt4hashIS6_ENS_18_Mod_range_hashingENS_20_Default_ranged_hashENS_17_Hashtable_traitsILb1ELb0ELb1EEEE9_M_equalsERS8_mRKNS_16_Hash_node_valueIS9_Lb1EEE
FNDA:2,_ZNKSt8__detail15_Hashtable_baseIjSt4pairIKjSt13unordered_mapINSt7__cxx1112basic_stringIcSt11char_traitsIcESaIcEEES9_St4hashIS9_ESt8equal_toIS9_ESaIS1_IKS9_S9_EEEENS_10_Select1stESC_IjESA_IjENS_18_Mod_range_hashingENS_20_Default_ranged_hashENS_17_Hashtable_traitsILb0ELb0ELb1EEEE9_M_equalsERS2_mRKNS_16_Hash_node_valueISI_Lb0EEE
FNDA:0,_ZNKSt8__detail15_Hashtable_baseINSt7__cxx1112basic_stringIcSt11char_traitsIcESaIcEEESt4pairIKS6_N12WPEFramework10PluginHost7JSONRPC8ObserverEENS_10_Select1stESt8equal_toIS6_ESt4hashIS6_ENS_18_Mod_range_hashingENS_20_Default_ranged_hashENS_17_Hashtable_traitsILb1ELb0ELb1EEEE5_M_eqEv
FNDA:120,_ZNKSt8__detail15_Hashtable_baseINSt7__cxx1112basic_stringIcSt11char_traitsIcESaIcEEESt4pairIKS6_N12WPEFramework4Core7JSONRPC7Handler5EntryEENS_10_Select1stESt8equal_toIS6_ESt4hashIS6_ENS_18_Mod_range_hashingENS_20_Default_ranged_hashENS_17_Hashtable_traitsILb1ELb0ELb1EEEE5_M_eqEv
FNDA:2,_ZNKSt8__detail15_Hashtable_baseINSt7__cxx1112basic_stringIcSt11char_traitsIcESaIcEEESt4pairIKS6_S6_ENS_10_Select1stESt8equal_toIS6_ESt4hashIS6_ENS_18_Mod_range_hashingENS_20_Default_ranged_hashENS_17_Hashtable_traitsILb1ELb0ELb1EEEE5_M_eqEv
FNDA:2,_ZNKSt8__detail15_Hashtable_baseIjSt4pairIKjSt13unordered_mapINSt7__cxx1112basic_stringIcSt11char_traitsIcESaIcEEES9_St4hashIS9_ESt8equal_toIS9_ESaIS1_IKS9_S9_EEEENS_10_Select1stESC_IjESA_IjENS_18_Mod_range_hashingENS_20_Default_ranged_hashENS_17_Hashtable_traitsILb0ELb0ELb1EEEE5_M_eqEv
FNDA:1,_ZNSt8__detail16_Hashtable_allocISaINS_10_Hash_nodeISt4pairIKNSt7__cxx1112basic_stringIcSt11char_traitsIcESaIcEEES8_ELb1EEEEEC2Ev
FNDA:29,_ZNSt8__detail16_Hashtable_allocISaINS_10_Hash_nodeISt4pairIKjSt13unordered_mapINSt7__cxx1112basic_stringIcSt11char_traitsIcESaIcEEESA_St4hashISA_ESt8equal_toISA_ESaIS2_IKSA_SA_EEEELb0EEEEEC2Ev
FNDA:0,_ZNSt8__detail16_Hashtable_allocISaINS_10_Hash_nodeISt4pairIKNSt7__cxx1112basic_stringIcSt11char_traitsIcESaIcEEEN12WPEFramework10PluginHost7JSONRPC8ObserverEELb1EEEEE17_M_node_allocatorEv
FNDA:3,_ZNSt8__detail16_Hashtable_allocISaINS_10_Hash_nodeISt4pairIKNSt7__cxx1112basic_stringIcSt11char_traitsIcESaIcEEES8_ELb1EEEEE17_M_node_allocatorEv
FNDA:3,_ZNSt8__detail16_Hashtable_allocISaINS_10_Hash_nodeISt4pairIKjSt13unordered_mapINSt7__cxx1112basic_stringIcSt11char_traitsIcESaIcEEESA_St4hashISA_ESt8equal_toISA_ESaIS2_IKSA_SA_EEEELb0EEEEE17_M_node_allocatorEv
FNDA:0,_ZNSt8__detail16_Hashtable_allocISaINS_10_Hash_nodeISt4pairIKNSt7__cxx1112basic_stringIcSt11char_traitsIcESaIcEEEN12WPEFramework10PluginHost7JSONRPC8ObserverEELb1EEEEE16_M_allocate_nodeIJRKSt21piecewise_construct_tSt5tupleIJRS9_EESM_IJEEEEEPSF_DpOT_
FNDA:1,_ZNSt8__detail16_Hashtable_allocISaINS_10_Hash_nodeISt4pairIKNSt7__cxx1112basic_stringIcSt11char_traitsIcESaIcEEES8_ELb1EEEEE16_M_allocate_nodeIJRKSt21piecewise_construct_tSt5tupleIJRS9_EESI_IJEEEEEPSB_DpOT_
FNDA:1,_ZNSt8__detail16_Hashtable_allocISaINS_10_Hash_nodeISt4pairIKjSt13unordered_mapINSt7__cxx1112basic_stringIcSt11char_traitsIcESaIcEEESA_St4hashISA_ESt8equal_toISA_ESaIS2_IKSA_SA_EEEELb0EEEEE16_M_allocate_nodeIJRKSt21piecewise_construct_tSt5tupleIJRS3_EESR_IJEEEEEPSK_DpOT_
FNDA:0,_ZNSt8__detail16_Hashtable_allocISaINS_10_Hash_nodeISt4pairIKNSt7__cxx1112basic_stringIcSt11char_traitsIcESaIcEEEN12WPEFramework10PluginHost7JSONRPC8ObserverEELb1EEEEE18_M_deallocate_nodeEPSF_
FNDA:0,_ZNSt8__detail16_Hashtable_allocISaINS_10_Hash_nodeISt4pairIKNSt7__cxx1112basic_stringIcSt11char_traitsIcESaIcEEES8_ELb1EEEEE18_M_deallocate_nodeEPSB_
FNDA:0,_ZNSt8__detail16_Hashtable_allocISaINS_10_Hash_nodeISt4pairIKjSt13unordered_mapINSt7__cxx1112basic_stringIcSt11char_traitsIcESaIcEEESA_St4hashISA_ESt8equal_toISA_ESaIS2_IKSA_SA_EEEELb0EEEEE18_M_deallocate_nodeEPSK_
FNDA:0,_ZNSt8__detail16_Hashtable_allocISaINS_10_Hash_nodeISt4pairIKNSt7__cxx1112basic_stringIcSt11char_traitsIcESaIcEEEN12WPEFramework10PluginHost7JSONRPC8ObserverEELb1EEEEE22_M_deallocate_node_ptrEPSF_
FNDA:0,_ZNSt8__detail16_Hashtable_allocISaINS_10_Hash_nodeISt4pairIKNSt7__cxx1112basic_stringIcSt11char_traitsIcESaIcEEES8_ELb1EEEEE22_M_deallocate_node_ptrEPSB_
FNDA:0,_ZNSt8__detail16_Hashtable_allocISaINS_10_Hash_nodeISt4pairIKjSt13unordered_mapINSt7__cxx1112basic_stringIcSt11char_traitsIcESaIcEEESA_St4hashISA_ESt8equal_toISA_ESaIS2_IKSA_SA_EEEELb0EEEEE22_M_deallocate_node_ptrEPSK_
FNDA:27,_ZNSt8__detail16_Hashtable_allocISaINS_10_Hash_nodeISt4pairIKNSt7__cxx1112basic_stringIcSt11char_traitsIcESaIcEEEN12WPEFramework10PluginHost7JSONRPC8ObserverEELb1EEEEE19_M_deallocate_nodesEPSF_
FNDA:0,_ZNSt8__detail16_Hashtable_allocISaINS_10_Hash_nodeISt4pairIKNSt7__cxx1112basic_stringIcSt11char_traitsIcESaIcEEES8_ELb1EEEEE19_M_deallocate_nodesEPSB_
FNDA:3,_ZNSt8__detail16_Hashtable_allocISaINS_10_Hash_nodeISt4pairIKjSt13unordered_mapINSt7__cxx1112basic_stringIcSt11char_traitsIcESaIcEEESA_St4hashISA_ESt8equal_toISA_ESaIS2_IKSA_SA_EEEELb0EEEEE19_M_deallocate_nodesEPSK_
FNDA:0,_ZNSt8__detail16_Hashtable_allocISaINS_10_Hash_nodeISt4pairIKNSt7__cxx1112basic_stringIcSt11char_traitsIcESaIcEEEN12WPEFramework10PluginHost7JSONRPC8ObserverEELb1EEEEE19_M_allocate_bucketsEm
FNDA:1,_ZNSt8__detail16_Hashtable_allocISaINS_10_Hash_nodeISt4pairIKNSt7__cxx1112basic_stringIcSt11char_traitsIcESaIcEEES8_ELb1EEEEE19_M_allocate_bucketsEm
FNDA:1,_ZNSt8__detail16_Hashtable_allocISaINS_10_Hash_nodeISt4pairIKjSt13unordered_mapINSt7__cxx1112basic_stringIcSt11char_traitsIcESaIcEEESA_St4hashISA_ESt8equal_toISA_ESaIS2_IKSA_SA_EEEELb0EEEEE19_M_allocate_bucketsEm
FNDA:0,_ZNSt8__detail16_Hashtable_allocISaINS_10_Hash_nodeISt4pairIKNSt7__cxx1112basic_stringIcSt11char_traitsIcESaIcEEEN12WPEFramework10PluginHost7JSONRPC8ObserverEELb1EEEEE21_M_deallocate_bucketsEPPNS_15_Hash_node_baseEm
FNDA:0,_ZNSt8__detail16_Hashtable_allocISaINS_10_Hash_nodeISt4pairIKNSt7__cxx1112basic_stringIcSt11char_traitsIcESaIcEEES8_ELb1EEEEE21_M_deallocate_bucketsEPPNS_15_Hash_node_baseEm
FNDA:0,_ZNSt8__detail16_Hashtable_allocISaINS_10_Hash_nodeISt4pairIKjSt13unordered_mapINSt7__cxx1112basic_stringIcSt11char_traitsIcESaIcEEESA_St4hashISA_ESt8equal_toISA_ESaIS2_IKSA_SA_EEEELb0EEEEE21_M_deallocate_bucketsEPPNS_15_Hash_node_baseEm
FNDA:2876,_ZNSt8__detail22_Hashtable_hash_traitsISt4hashINSt7__cxx1112basic_stringIcSt11char_traitsIcESaIcEEEEE22__small_size_thresholdEv
FNDA:3,_ZNSt8__detail22_Hashtable_hash_traitsISt4hashIjEE22__small_size_thresholdEv
FNDA:740,_ZNSt8__detail15_Hash_node_baseC2Ev
FNDA:0,_ZNKSt8__detail10_Hash_nodeISt4pairIKNSt7__cxx1112basic_stringIcSt11char_traitsIcESaIcEEEN12WPEFramework10PluginHost7JSONRPC8ObserverEELb1EE7_M_nextEv
FNDA:52,_ZNKSt8__detail10_Hash_nodeISt4pairIKNSt7__cxx1112basic_stringIcSt11char_traitsIcESaIcEEEN12WPEFramework4Core7JSONRPC7Handler5EntryEELb1EE7_M_nextEv
FNDA:1,_ZNKSt8__detail10_Hash_nodeISt4pairIKNSt7__cxx1112basic_stringIcSt11char_traitsIcESaIcEEES7_ELb1EE7_M_nextEv
FNDA:0,_ZNKSt8__detail10_Hash_nodeISt4pairIKjSt13unordered_mapINSt7__cxx1112basic_stringIcSt11char_traitsIcESaIcEEES9_St4hashIS9_ESt8equal_toIS9_ESaIS1_IKS9_S9_EEEELb0EE7_M_nextEv
FNDA:0,_ZNSt8__detail19_Node_iterator_baseISt4pairIKNSt7__cxx1112basic_stringIcSt11char_traitsIcESaIcEEEN12WPEFramework10PluginHost7JSONRPC8ObserverEELb1EEC2EPNS_10_Hash_nodeISD_Lb1EEE
FNDA:498,_ZNSt8__detail19_Node_iterator_baseISt4pairIKNSt7__cxx1112basic_stringIcSt11char_traitsIcESaIcEEEN12WPEFramework4Core7JSONRPC7Handler5EntryEELb1EEC2EPNS_10_Hash_nodeISE_Lb1EEE
FNDA:9,_ZNSt8__detail19_Node_iterator_baseISt4pairIKNSt7__cxx1112basic_stringIcSt11char_traitsIcESaIcEEES7_ELb1EEC2EPNS_10_Hash_nodeIS9_Lb1EEE
FNDA:7,_ZNSt8__detail19_Node_iterator_baseISt4pairIKjSt13unordered_mapINSt7__cxx1112basic_stringIcSt11char_traitsIcESaIcEEES9_St4hashIS9_ESt8equal_toIS9_ESaIS1_IKS9_S9_EEEELb0EEC2EPNS_10_Hash_nodeISI_Lb0EEE
FNDA:0,_ZNSt8__detail19_Node_iterator_baseISt4pairIKNSt7__cxx1112basic_stringIcSt11char_traitsIcESaIcEEEN12WPEFramework10PluginHost7JSONRPC8ObserverEELb1EE7_M_incrEv
FNDA:0,_ZNSt8__detail19_Node_iterator_baseISt4pairIKNSt7__cxx1112basic_stringIcSt11char_traitsIcESaIcEEEN12WPEFramework4Core7JSONRPC7Handler5EntryEELb1EE7_M_incrEv
FNDA:1,_ZNSt8__detail19_Node_iterator_baseISt4pairIKNSt7__cxx1112basic_stringIcSt11char_traitsIcESaIcEEES7_ELb1EE7_M_incrEv
FNDA:0,_ZNSt8__detail19_Node_iterator_baseISt4pairIKjSt13unordered_mapINSt7__cxx1112basic_stringIcSt11char_traitsIcESaIcEEES9_St4hashIS9_ESt8equal_toIS9_ESaIS1_IKS9_S9_EEEELb0EE7_M_incrEv
FNDA:0,_ZNSt8__detaileqERKNS_19_Node_iterator_baseISt4pairIKNSt7__cxx1112basic_stringIcSt11char_traitsIcESaIcEEEN12WPEFramework10PluginHost7JSONRPC8ObserverEELb1EEESG_
FNDA:2,_ZNSt8__detaileqERKNS_19_Node_iterator_baseISt4pairIKNSt7__cxx1112basic_stringIcSt11char_traitsIcESaIcEEES7_ELb1EEESC_
FNDA:3,_ZNSt8__detaileqERKNS_19_Node_iterator_baseISt4pairIKjSt13unordered_mapINSt7__cxx1112basic_stringIcSt11char_traitsIcESaIcEEES9_St4hashIS9_ESt8equal_toIS9_ESaIS1_IKS9_S9_EEEELb0EEESL_
FNDA:0,_ZNSt8__detailneERKNS_19_Node_iterator_baseISt4pairIKNSt7__cxx1112basic_stringIcSt11char_traitsIcESaIcEEEN12WPEFramework10PluginHost7JSONRPC8ObserverEELb1EEESG_
FNDA:270,_ZNSt8__detailneERKNS_19_Node_iterator_baseISt4pairIKNSt7__cxx1112basic_stringIcSt11char_traitsIcESaIcEEEN12WPEFramework4Core7JSONRPC7Handler5EntryEELb1EEESH_
FNDA:3,_ZNSt8__detailneERKNS_19_Node_iterator_baseISt4pairIKNSt7__cxx1112basic_stringIcSt11char_traitsIcESaIcEEES7_ELb1EEESC_
FNDA:0,_ZNSt8__detailneERKNS_19_Node_iterator_baseISt4pairIKjSt13unordered_mapINSt7__cxx1112basic_stringIcSt11char_traitsIcESaIcEEES9_St4hashIS9_ESt8equal_toIS9_ESaIS1_IKS9_S9_EEEELb0EEESL_
FNDA:0,_ZNSt8__detail14_Node_iteratorISt4pairIKNSt7__cxx1112basic_stringIcSt11char_traitsIcESaIcEEEN12WPEFramework10PluginHost7JSONRPC8ObserverEELb0ELb1EEC2EPNS_10_Hash_nodeISD_Lb1EEE
FNDA:323,_ZNSt8__detail14_Node_iteratorISt4pairIKNSt7__cxx1112basic_stringIcSt11char_traitsIcESaIcEEEN12WPEFramework4Core7JSONRPC7Handler5EntryEELb0ELb1EEC2EPNS_10_Hash_nodeISE_Lb1EEE
FNDA:9,_ZNSt8__detail14_Node_iteratorISt4pairIKNSt7__cxx1112basic_stringIcSt11char_traitsIcESaIcEEES7_ELb0ELb1EEC2EPNS_10_Hash_nodeIS9_Lb1EEE
FNDA:7,_ZNSt8__detail14_Node_iteratorISt4pairIKjSt13unordered_mapINSt7__cxx1112basic_stringIcSt11char_traitsIcESaIcEEES9_St4hashIS9_ESt8equal_toIS9_ESaIS1_IKS9_S9_EEEELb0ELb0EEC2EPNS_10_Hash_nodeISI_Lb0EEE
FNDA:0,_ZNKSt8__detail14_Node_iteratorISt4pairIKNSt7__cxx1112basic_stringIcSt11char_traitsIcESaIcEEEN12WPEFramework10PluginHost7JSONRPC8ObserverEELb0ELb1EEdeEv
FNDA:0,_ZNKSt8__detail14_Node_iteratorISt4pairIKNSt7__cxx1112basic_stringIcSt11char_traitsIcESaIcEEEN12WPEFramework10PluginHost7JSONRPC8ObserverEELb0ELb1EEptEv
FNDA:47,_ZNKSt8__detail14_Node_iteratorISt4pairIKNSt7__cxx1112basic_stringIcSt11char_traitsIcESaIcEEEN12WPEFramework4Core7JSONRPC7Handler5EntryEELb0ELb1EEptEv
FNDA:2,_ZNKSt8__detail14_Node_iteratorISt4pairIKNSt7__cxx1112basic_stringIcSt11char_traitsIcESaIcEEES7_ELb0ELb1EEptEv
FNDA:5,_ZNKSt8__detail14_Node_iteratorISt4pairIKjSt13unordered_mapINSt7__cxx1112basic_stringIcSt11char_traitsIcESaIcEEES9_St4hashIS9_ESt8equal_toIS9_ESaIS1_IKS9_S9_EEEELb0ELb0EEptEv
FNDA:0,_ZNSt8__detail14_Node_iteratorISt4pairIKNSt7__cxx1112basic_stringIcSt11char_traitsIcESaIcEEEN12WPEFramework10PluginHost7JSONRPC8ObserverEELb0ELb1EEppEv
FNDA:0,_ZNSt8__detail14_Node_iteratorISt4pairIKNSt7__cxx1112basic_stringIcSt11char_traitsIcESaIcEEEN12WPEFramework4Core7JSONRPC7Handler5EntryEELb0ELb1EEppEv
FNDA:1,_ZNSt8__detail14_Node_iteratorISt4pairIKNSt7__cxx1112basic_stringIcSt11char_traitsIcESaIcEEES7_ELb0ELb1EEppEv
FNDA:0,_ZNSt8__detail14_Node_iteratorISt4pairIKjSt13unordered_mapINSt7__cxx1112basic_stringIcSt11char_traitsIcESaIcEEES9_St4hashIS9_ESt8equal_toIS9_ESaIS1_IKS9_S9_EEEELb0ELb0EEppEv
FNDA:0,_ZNSt8__detail14_Node_iteratorISt4pairIKNSt7__cxx1112basic_stringIcSt11char_traitsIcESaIcEEEN12WPEFramework10PluginHost7JSONRPC8ObserverEELb0ELb1EEppEi
FNDA:149,_ZNSt8__detail20_Node_const_iteratorISt4pairIKNSt7__cxx1112basic_stringIcSt11char_traitsIcESaIcEEEN12WPEFramework4Core7JSONRPC7Handler5EntryEELb0ELb1EEC2EPNS_10_Hash_nodeISE_Lb1EEE
FNDA:0,_ZNSt8__detail20_Node_const_iteratorISt4pairIKNSt7__cxx1112basic_stringIcSt11char_traitsIcESaIcEEEN12WPEFramework10PluginHost7JSONRPC8ObserverEELb0ELb1EEC2ERKNS_14_Node_iteratorISD_Lb0ELb1EEE
FNDA:0,_ZNSt8__detail20_Node_const_iteratorISt4pairIKNSt7__cxx1112basic_stringIcSt11char_traitsIcESaIcEEEN12WPEFramework4Core7JSONRPC7Handler5EntryEELb0ELb1EEppEv
FNDA:1611,_ZNKSt8__detail18_Mod_range_hashingclEmm
FNDA:430,_ZNSt8__detail20_Prime_rehash_policyC2Ef
FNDA:284,_ZNKSt8__detail20_Prime_rehash_policy8_M_stateEv
FNDA:0,_ZNSt8__detail20_Prime_rehash_policy8_M_resetEm
FNDA:1,_ZNSt8__detail9_Map_baseINSt7__cxx1112basic_stringIcSt11char_traitsIcESaIcEEESt4pairIKS6_S6_ESaIS9_ENS_10_Select1stESt8equal_toIS6_ESt4hashIS6_ENS_18_Mod_range_hashingENS_20_Default_ranged_hashENS_20_Prime_rehash_policyENS_17_Hashtable_traitsILb1ELb0ELb1EEELb1EEixERS8_
FNDA:1,_ZNSt8__detail9_Map_baseIjSt4pairIKjSt13unordered_mapINSt7__cxx1112basic_stringIcSt11char_traitsIcESaIcEEES9_St4hashIS9_ESt8equal_toIS9_ESaIS1_IKS9_S9_EEEESaISI_ENS_10_Select1stESC_IjESA_IjENS_18_Mod_range_hashingENS_20_Default_ranged_hashENS_20_Prime_rehash_policyENS_17_Hashtable_traitsILb0ELb0ELb1EEELb1EEixERS2_
FNF:125
FNH:75
DA:112,124
DA:113,124
DA:297,2879
DA:298,2879
DA:313,740
DA:333,56
DA:338,124
DA:343,0
DA:348,124
DA:380,53
DA:381,53
DA:393,514
DA:394,514
DA:397,1
DA:398,1
DA:401,5
DA:403,5
DA:407,273
DA:409,273
DA:436,339
DA:437,339
DA:440,0
DA:441,0
DA:444,54
DA:445,108
DA:448,1
DA:450,1
DA:451,1
DA:455,0
DA:457,0
DA:458,0
DA:459,0
DA:483,149
DA:484,149
DA:486,0
DA:488,0
DA:499,0
DA:501,0
DA:502,0
DA:526,1611
DA:528,1611
DA:544,430
DA:545,430
DA:571,284
DA:572,284
DA:579,0
DA:580,0
DA:807,2
DA:812,2
DA:813,2
DA:814,2
DA:815,2
DA:816,0
DA:818,2
DA:821,2
DA:822,0
DA:825,2
DA:826,2
DA:827,2
DA:828,2
DA:1218,890
DA:1225,6471
DA:1226,6
DA:1301,30
DA:1306,31
DA:1310,31
DA:1331,59
DA:1332,59
DA:1335,0
DA:1341,0
DA:1342,0
DA:1346,26
DA:1350,26
DA:1353,1
DA:1354,1
DA:1362,1
DA:1363,1
DA:1375,31
DA:1683,2
DA:1684,2
DA:1692,0
DA:1693,0
DA:1701,30
DA:1708,124
DA:1715,248
DA:1732,2
DA:1734,2
DA:1760,124
DA:1940,30
DA:1950,6
DA:1951,6
DA:1987,2
DA:1990,2
DA:1991,2
DA:1994,2
DA:1995,4
DA:1998,2
DA:2000,0
DA:2002,0
DA:2003,0
DA:2009,0
DA:2011,0
DA:2012,0
DA:2013,0
DA:2017,0
DA:2020,0
DA:2021,0
DA:2022,0
DA:2023,0
DA:2027,30
DA:2029,30
DA:2031,0
DA:2032,0
DA:2033,0
DA:2035,30
DA:2039,2
DA:2042,2
DA:2044,2
DA:2045,2
DA:2046,2
DA:2047,4
DA:2052,0
DA:2057,0
DA:2058,0
DA:2060,0
LF:125
LH:85
end_of_record
TN:
SF:/usr/include/c++/13/bits/ios_base.h
FN:130,131,_ZStorSt13_Ios_OpenmodeS_
FNDA:2,_ZStorSt13_Ios_OpenmodeS_
FNF:1
FNH:1
DA:130,2
DA:131,2
LF:2
LH:2
end_of_record
TN:
SF:/usr/include/c++/13/bits/list.tcc
FN:150,160,_ZNSt7__cxx114listIN12WPEFramework4Core9ProxyTypeINS2_9IDispatchEEESaIS5_EE5eraseESt20_List_const_iteratorIS5_E
FN:150,160,_ZNSt7__cxx114listIN12WPEFramework4Core9TimerTypeINS2_10WorkerPool5TimerEE9TimedInfoIS5_EESaIS8_EE5eraseESt20_List_const_iteratorIS8_E
FN:150,160,_ZNSt7__cxx114listIPN12WPEFramework8Exchange20IAppGatewayResponder13INotificationESaIS5_EE5eraseESt20_List_const_iteratorIS5_E
FN:66,83,_ZNSt7__cxx1110_List_baseIN12WPEFramework4Core10ThreadPool8ExecutorESaIS4_EE8_M_clearEv
FN:66,83,_ZNSt7__cxx1110_List_baseIN12WPEFramework4Core14callstack_infoESaIS3_EE8_M_clearEv
FN:66,83,_ZNSt7__cxx1110_List_baseIN12WPEFramework4Core9ProxyTypeINS2_9IDispatchEEESaIS5_EE8_M_clearEv
FN:66,83,_ZNSt7__cxx1110_List_baseIN12WPEFramework4Core9TimerTypeINS2_10WorkerPool5TimerEE9TimedInfoIS5_EESaIS8_EE8_M_clearEv
FN:66,83,_ZNSt7__cxx1110_List_baseIPN12WPEFramework8Exchange20IAppGatewayResponder13INotificationESaIS5_EE8_M_clearEv
FN:66,83,_ZNSt7__cxx1110_List_baseISt4pairIPKcPN12WPEFramework4Core4JSON8IElementEESaIS9_EE8_M_clearEv
FN:89,96,_ZNSt7__cxx114listIN12WPEFramework4Core9TimerTypeINS2_10WorkerPool5TimerEE9TimedInfoIS5_EESaIS8_EE7emplaceIJS8_EEESt14_List_iteratorIS8_ESt20_List_const_iteratorIS8_EDpOT_
FNDA:2,_ZNSt7__cxx114listIN12WPEFramework4Core9ProxyTypeINS2_9IDispatchEEESaIS5_EE5eraseESt20_List_const_iteratorIS5_E
FNDA:0,_ZNSt7__cxx114listIN12WPEFramework4Core9TimerTypeINS2_10WorkerPool5TimerEE9TimedInfoIS5_EESaIS8_EE5eraseESt20_List_const_iteratorIS8_E
FNDA:1,_ZNSt7__cxx114listIPN12WPEFramework8Exchange20IAppGatewayResponder13INotificationESaIS5_EE5eraseESt20_List_const_iteratorIS5_E
FNDA:2,_ZNSt7__cxx1110_List_baseIN12WPEFramework4Core10ThreadPool8ExecutorESaIS4_EE8_M_clearEv
FNDA:0,_ZNSt7__cxx1110_List_baseIN12WPEFramework4Core14callstack_infoESaIS3_EE8_M_clearEv
FNDA:1,_ZNSt7__cxx1110_List_baseIN12WPEFramework4Core9ProxyTypeINS2_9IDispatchEEESaIS5_EE8_M_clearEv
FNDA:2,_ZNSt7__cxx1110_List_baseIN12WPEFramework4Core9TimerTypeINS2_10WorkerPool5TimerEE9TimedInfoIS5_EESaIS8_EE8_M_clearEv
FNDA:6,_ZNSt7__cxx1110_List_baseIPN12WPEFramework8Exchange20IAppGatewayResponder13INotificationESaIS5_EE8_M_clearEv
FNDA:846,_ZNSt7__cxx1110_List_baseISt4pairIPKcPN12WPEFramework4Core4JSON8IElementEESaIS9_EE8_M_clearEv
FNDA:0,_ZNSt7__cxx114listIN12WPEFramework4Core9TimerTypeINS2_10WorkerPool5TimerEE9TimedInfoIS5_EESaIS8_EE7emplaceIJS8_EEESt14_List_iteratorIS8_ESt20_List_const_iteratorIS8_EDpOT_
FNF:10
FNH:7
DA:66,857
DA:70,857
DA:71,2310
DA:73,1453
DA:74,1453
DA:75,1453
DA:77,1453
DA:81,1453
DA:83,857
DA:89,0
DA:92,0
DA:93,0
DA:94,0
DA:95,0
DA:150,3
DA:157,3
DA:158,3
DA:159,3
LF:18
LH:13
end_of_record
TN:
SF:/usr/include/c++/13/bits/move.h
FN:138,139,_ZSt9addressofINSt8__detail10_Hash_nodeISt4pairIKNSt7__cxx1112basic_stringIcSt11char_traitsIcESaIcEEEN12WPEFramework10PluginHost7JSONRPC8ObserverEELb1EEEEPT_RSG_
FN:138,139,_ZSt9addressofINSt8__detail10_Hash_nodeISt4pairIKNSt7__cxx1112basic_stringIcSt11char_traitsIcESaIcEEES8_ELb1EEEEPT_RSC_
FN:138,139,_ZSt9addressofINSt8__detail10_Hash_nodeISt4pairIKjSt13unordered_mapINSt7__cxx1112basic_stringIcSt11char_traitsIcESaIcEEESA_St4hashISA_ESt8equal_toISA_ESaIS2_IKSA_SA_EEEELb0EEEEPT_RSL_
FN:138,139,_ZSt9addressofIPNSt8__detail15_Hash_node_baseEEPT_RS3_
FN:51,52,_ZSt11__addressofINSt7__cxx1112basic_stringIcSt11char_traitsIcESaIcEEEEPT_RS6_
FN:51,52,_ZSt11__addressofINSt8__detail10_Hash_nodeISt4pairIKNSt7__cxx1112basic_stringIcSt11char_traitsIcESaIcEEEN12WPEFramework10PluginHost7JSONRPC8ObserverEELb1EEEEPT_RSG_
FN:51,52,_ZSt11__addressofINSt8__detail10_Hash_nodeISt4pairIKNSt7__cxx1112basic_stringIcSt11char_traitsIcESaIcEEES8_ELb1EEEEPT_RSC_
FN:51,52,_ZSt11__addressofINSt8__detail10_Hash_nodeISt4pairIKjSt13unordered_mapINSt7__cxx1112basic_stringIcSt11char_traitsIcESaIcEEESA_St4hashISA_ESt8equal_toISA_ESaIS2_IKSA_SA_EEEELb0EEEEPT_RSL_
FN:51,52,_ZSt11__addressofIPNSt8__detail15_Hash_node_baseEEPT_RS3_
FN:51,52,_ZSt11__addressofISaISt10_List_nodeIN12WPEFramework4Core10ThreadPool8ExecutorEEEEPT_RS7_
FN:51,52,_ZSt11__addressofISaISt10_List_nodeIN12WPEFramework4Core9ProxyTypeINS2_9IDispatchEEEEEEPT_RS8_
FN:51,52,_ZSt11__addressofISaISt10_List_nodeIN12WPEFramework4Core9TimerTypeINS2_10WorkerPool5TimerEE9TimedInfoIS5_EEEEEPT_RSB_
FN:51,52,_ZSt11__addressofISaISt10_List_nodeIPN12WPEFramework8Exchange20IAppGatewayResponder13INotificationEEEEPT_RS8_
FN:51,52,_ZSt11__addressofISaISt10_List_nodeISt4pairIPKcPN12WPEFramework4Core4JSON8IElementEEEEEPT_RSC_
FN:51,52,_ZSt11__addressofISt4pairIjNSt7__cxx1112basic_stringIcSt11char_traitsIcESaIcEEEEEPT_RS8_
FN:70,71,_ZSt7forwardIN12WPEFramework4Core9TimerTypeINS1_10WorkerPool5TimerEE9TimedInfoIS4_EEEOT_RNSt16remove_referenceIS8_E4typeE
FN:70,71,_ZSt7forwardINSt7__cxx1112basic_stringIcSt11char_traitsIcESaIcEEEEOT_RNSt16remove_referenceIS6_E4typeE
FN:70,71,_ZSt7forwardINSt8__detail14_Node_iteratorISt4pairIKNSt7__cxx1112basic_stringIcSt11char_traitsIcESaIcEEEN12WPEFramework10PluginHost7JSONRPC8ObserverEELb0ELb1EEEEOT_RNSt16remove_referenceISG_E4typeE
FN:70,71,_ZSt7forwardIRKN12WPEFramework4Core7JSONRPC7ContextEEOT_RNSt16remove_referenceIS6_E4typeE
FN:70,71,_ZSt7forwardIRKN12WPEFramework4Core9ProxyTypeINS1_9IDispatchEEEEOT_RNSt16remove_referenceIS7_E4typeE
FN:70,71,_ZSt7forwardIRKNSt7__cxx1112basic_stringIcSt11char_traitsIcESaIcEEEEOT_RNSt16remove_referenceIS8_E4typeE
FN:70,71,_ZSt7forwardIRKPN12WPEFramework8Exchange20IAppGatewayResponder13INotificationEEOT_RNSt16remove_referenceIS7_E4typeE
FN:70,71,_ZSt7forwardIRKSt21piecewise_construct_tEOT_RNSt16remove_referenceIS3_E4typeE
FN:70,71,_ZSt7forwardIRKSt4pairIKNSt7__cxx1112basic_stringIcSt11char_traitsIcESaIcEEEN12WPEFramework10PluginHost7JSONRPC8ObserverEEEOT_RNSt16remove_referenceISF_E4typeE
FN:70,71,_ZSt7forwardIRKSt4pairIKNSt7__cxx1112basic_stringIcSt11char_traitsIcESaIcEEEN12WPEFramework4Core7JSONRPC7Handler5EntryEEEOT_RNSt16remove_referenceISG_E4typeE
FN:70,71,_ZSt7forwardIRKSt4pairIKNSt7__cxx1112basic_stringIcSt11char_traitsIcESaIcEEES6_EEOT_RNSt16remove_referenceISB_E4typeE
FN:70,71,_ZSt7forwardIRKSt4pairIKjSt13unordered_mapINSt7__cxx1112basic_stringIcSt11char_traitsIcESaIcEEES8_St4hashIS8_ESt8equal_toIS8_ESaIS0_IKS8_S8_EEEEEOT_RNSt16remove_referenceISK_E4typeE
FN:70,71,_ZSt7forwardIRKjEOT_RNSt16remove_referenceIS2_E4typeE
FN:70,71,_ZSt7forwardIRN12WPEFramework4Core10ThreadPoolEEOT_RNSt16remove_referenceIS4_E4typeE
FN:70,71,_ZSt7forwardIRNSt7__cxx1112basic_stringIcSt11char_traitsIcESaIcEEEEOT_RNSt16remove_referenceIS7_E4typeE
FN:70,71,_ZSt7forwardIRNSt8__detail14_Node_iteratorISt4pairIKNSt7__cxx1112basic_stringIcSt11char_traitsIcESaIcEEEN12WPEFramework10PluginHost7JSONRPC8ObserverEELb0ELb1EEEEOT_RNSt16remove_referenceISH_E4typeE
FN:70,71,_ZSt7forwardIRPKcEOT_RNSt16remove_referenceIS3_E4typeE
FN:70,71,_ZSt7forwardIRPN12WPEFramework10PluginHost11IDispatcher9ICallbackEEOT_RNSt16remove_referenceIS6_E4typeE
FN:70,71,_ZSt7forwardIRPN12WPEFramework4Core10ThreadPool11IDispatcherEEOT_RNSt16remove_referenceIS6_E4typeE
FN:70,71,_ZSt7forwardIRPN12WPEFramework4Core4JSON8IElementEEOT_RNSt16remove_referenceIS6_E4typeE
FN:70,71,_ZSt7forwardIRSt4pairIKNSt7__cxx1112basic_stringIcSt11char_traitsIcESaIcEEEN12WPEFramework10PluginHost7JSONRPC8ObserverEEEOT_RNSt16remove_referenceISE_E4typeE
FN:70,71,_ZSt7forwardISt4pairIPKcPN12WPEFramework4Core4JSON8IElementEEEOT_RNSt16remove_referenceIS9_E4typeE
FN:70,71,_ZSt7forwardISt4pairIjNSt7__cxx1112basic_stringIcSt11char_traitsIcESaIcEEEEEOT_RNSt16remove_referenceIS8_E4typeE
FN:70,71,_ZSt7forwardISt5tupleIJEEEOT_RNSt16remove_referenceIS2_E4typeE
FN:70,71,_ZSt7forwardISt5tupleIJRKNSt7__cxx1112basic_stringIcSt11char_traitsIcESaIcEEEEEEOT_RNSt16remove_referenceISA_E4typeE
FN:70,71,_ZSt7forwardISt5tupleIJRKjEEEOT_RNSt16remove_referenceIS4_E4typeE
FN:70,71,_ZSt7forwardIbEOT_RNSt16remove_referenceIS0_E4typeE
FN:70,71,_ZSt7forwardIjEOT_RNSt16remove_referenceIS0_E4typeE
FN:97,98,_ZSt4moveIRN12WPEFramework4Core10WorkerPool5TimerEEONSt16remove_referenceIT_E4typeEOS6_
FN:97,98,_ZSt4moveIRN12WPEFramework4Core9ProxyTypeINS0_3Web12JSONBodyTypeINS1_7JSONRPC7MessageEEEEEEONSt16remove_referenceIT_E4typeEOSB_
FN:97,98,_ZSt4moveIRN12WPEFramework4Core9TimerTypeINS1_10WorkerPool5TimerEE9TimedInfoIS4_EEEONSt16remove_referenceIT_E4typeEOSA_
FN:97,98,_ZSt4moveIRNSt7__cxx1112basic_stringIcSt11char_traitsIcESaIcEEEEONSt16remove_referenceIT_E4typeEOS8_
FN:97,98,_ZSt4moveIRPN12WPEFramework10PluginHost11IDispatcher9ICallbackEEONSt16remove_referenceIT_E4typeEOS7_
FN:97,98,_ZSt4moveIRSaIcEEONSt16remove_referenceIT_E4typeEOS3_
FN:97,98,_ZSt4moveIRSt4pairIPKcPN12WPEFramework4Core4JSON8IElementEEEONSt16remove_referenceIT_E4typeEOSB_
FN:97,98,_ZSt4moveIRSt4pairIjNSt7__cxx1112basic_stringIcSt11char_traitsIcESaIcEEEEEONSt16remove_referenceIT_E4typeEOSA_
FN:97,98,_ZSt4moveIRZN12WPEFramework4Core4JSON6String11DeserializeEPKctRjRNS1_12OptionalTypeINS2_5ErrorEEEEUlhE_EONSt16remove_referenceIT_E4typeEOSE_
FNDA:0,_ZSt9addressofINSt8__detail10_Hash_nodeISt4pairIKNSt7__cxx1112basic_stringIcSt11char_traitsIcESaIcEEEN12WPEFramework10PluginHost7JSONRPC8ObserverEELb1EEEEPT_RSG_
FNDA:0,_ZSt9addressofINSt8__detail10_Hash_nodeISt4pairIKNSt7__cxx1112basic_stringIcSt11char_traitsIcESaIcEEES8_ELb1EEEEPT_RSC_
FNDA:0,_ZSt9addressofINSt8__detail10_Hash_nodeISt4pairIKjSt13unordered_mapINSt7__cxx1112basic_stringIcSt11char_traitsIcESaIcEEESA_St4hashISA_ESt8equal_toISA_ESaIS2_IKSA_SA_EEEELb0EEEEPT_RSL_
FNDA:16,_ZSt9addressofIPNSt8__detail15_Hash_node_baseEEPT_RS3_
FNDA:24,_ZSt11__addressofINSt7__cxx1112basic_stringIcSt11char_traitsIcESaIcEEEEPT_RS6_
FNDA:0,_ZSt11__addressofINSt8__detail10_Hash_nodeISt4pairIKNSt7__cxx1112basic_stringIcSt11char_traitsIcESaIcEEEN12WPEFramework10PluginHost7JSONRPC8ObserverEELb1EEEEPT_RSG_
FNDA:0,_ZSt11__addressofINSt8__detail10_Hash_nodeISt4pairIKNSt7__cxx1112basic_stringIcSt11char_traitsIcESaIcEEES8_ELb1EEEEPT_RSC_
FNDA:0,_ZSt11__addressofINSt8__detail10_Hash_nodeISt4pairIKjSt13unordered_mapINSt7__cxx1112basic_stringIcSt11char_traitsIcESaIcEEESA_St4hashISA_ESt8equal_toISA_ESaIS2_IKSA_SA_EEEELb0EEEEPT_RSL_
FNDA:16,_ZSt11__addressofIPNSt8__detail15_Hash_node_baseEEPT_RS3_
FNDA:2,_ZSt11__addressofISaISt10_List_nodeIN12WPEFramework4Core10ThreadPool8ExecutorEEEEPT_RS7_
FNDA:2,_ZSt11__addressofISaISt10_List_nodeIN12WPEFramework4Core9ProxyTypeINS2_9IDispatchEEEEEEPT_RS8_
FNDA:0,_ZSt11__addressofISaISt10_List_nodeIN12WPEFramework4Core9TimerTypeINS2_10WorkerPool5TimerEE9TimedInfoIS5_EEEEEPT_RSB_
FNDA:1,_ZSt11__addressofISaISt10_List_nodeIPN12WPEFramework8Exchange20IAppGatewayResponder13INotificationEEEEPT_RS8_
FNDA:224,_ZSt11__addressofISaISt10_List_nodeISt4pairIPKcPN12WPEFramework4Core4JSON8IElementEEEEEPT_RSC_
FNDA:0,_ZSt11__addressofISt4pairIjNSt7__cxx1112basic_stringIcSt11char_traitsIcESaIcEEEEEPT_RS8_
FNDA:0,_ZSt7forwardIN12WPEFramework4Core9TimerTypeINS1_10WorkerPool5TimerEE9TimedInfoIS4_EEEOT_RNSt16remove_referenceIS8_E4typeE
FNDA:56,_ZSt7forwardINSt7__cxx1112basic_stringIcSt11char_traitsIcESaIcEEEEOT_RNSt16remove_referenceIS6_E4typeE
FNDA:0,_ZSt7forwardINSt8__detail14_Node_iteratorISt4pairIKNSt7__cxx1112basic_stringIcSt11char_traitsIcESaIcEEEN12WPEFramework10PluginHost7JSONRPC8ObserverEELb0ELb1EEEEOT_RNSt16remove_referenceISG_E4typeE
FNDA:84,_ZSt7forwardIRKN12WPEFramework4Core7JSONRPC7ContextEEOT_RNSt16remove_referenceIS6_E4typeE
FNDA:8,_ZSt7forwardIRKN12WPEFramework4Core9ProxyTypeINS1_9IDispatchEEEEOT_RNSt16remove_referenceIS7_E4typeE
FNDA:508,_ZSt7forwardIRKNSt7__cxx1112basic_stringIcSt11char_traitsIcESaIcEEEEOT_RNSt16remove_referenceIS8_E4typeE
FNDA:4,_ZSt7forwardIRKPN12WPEFramework8Exchange20IAppGatewayResponder13INotificationEEOT_RNSt16remove_referenceIS7_E4typeE
FNDA:1396,_ZSt7forwardIRKSt21piecewise_construct_tEOT_RNSt16remove_referenceIS3_E4typeE
FNDA:0,_ZSt7forwardIRKSt4pairIKNSt7__cxx1112basic_stringIcSt11char_traitsIcESaIcEEEN12WPEFramework10PluginHost7JSONRPC8ObserverEEEOT_RNSt16remove_referenceISF_E4typeE
FNDA:120,_ZSt7forwardIRKSt4pairIKNSt7__cxx1112basic_stringIcSt11char_traitsIcESaIcEEEN12WPEFramework4Core7JSONRPC7Handler5EntryEEEOT_RNSt16remove_referenceISG_E4typeE
FNDA:2,_ZSt7forwardIRKSt4pairIKNSt7__cxx1112basic_stringIcSt11char_traitsIcESaIcEEES6_EEOT_RNSt16remove_referenceISB_E4typeE
FNDA:2,_ZSt7forwardIRKSt4pairIKjSt13unordered_mapINSt7__cxx1112basic_stringIcSt11char_traitsIcESaIcEEES8_St4hashIS8_ESt8equal_toIS8_ESaIS0_IKS8_S8_EEEEEOT_RNSt16remove_referenceISK_E4typeE
FNDA:11,_ZSt7forwardIRKjEOT_RNSt16remove_referenceIS2_E4typeE
FNDA:10,_ZSt7forwardIRN12WPEFramework4Core10ThreadPoolEEOT_RNSt16remove_referenceIS4_E4typeE
FNDA:84,_ZSt7forwardIRNSt7__cxx1112basic_stringIcSt11char_traitsIcESaIcEEEEOT_RNSt16remove_referenceIS7_E4typeE
FNDA:0,_ZSt7forwardIRNSt8__detail14_Node_iteratorISt4pairIKNSt7__cxx1112basic_stringIcSt11char_traitsIcESaIcEEEN12WPEFramework10PluginHost7JSONRPC8ObserverEELb0ELb1EEEEOT_RNSt16remove_referenceISH_E4typeE
FNDA:234,_ZSt7forwardIRPKcEOT_RNSt16remove_referenceIS3_E4typeE
FNDA:0,_ZSt7forwardIRPN12WPEFramework10PluginHost11IDispatcher9ICallbackEEOT_RNSt16remove_referenceIS6_E4typeE
FNDA:10,_ZSt7forwardIRPN12WPEFramework4Core10ThreadPool11IDispatcherEEOT_RNSt16remove_referenceIS6_E4typeE
FNDA:224,_ZSt7forwardIRPN12WPEFramework4Core4JSON8IElementEEOT_RNSt16remove_referenceIS6_E4typeE
FNDA:0,_ZSt7forwardIRSt4pairIKNSt7__cxx1112basic_stringIcSt11char_traitsIcESaIcEEEN12WPEFramework10PluginHost7JSONRPC8ObserverEEEOT_RNSt16remove_referenceISE_E4typeE
FNDA:896,_ZSt7forwardISt4pairIPKcPN12WPEFramework4Core4JSON8IElementEEEOT_RNSt16remove_referenceIS9_E4typeE
FNDA:0,_ZSt7forwardISt4pairIjNSt7__cxx1112basic_stringIcSt11char_traitsIcESaIcEEEEEOT_RNSt16remove_referenceIS8_E4typeE
FNDA:1032,_ZSt7forwardISt5tupleIJEEEOT_RNSt16remove_referenceIS2_E4typeE
FNDA:1028,_ZSt7forwardISt5tupleIJRKNSt7__cxx1112basic_stringIcSt11char_traitsIcESaIcEEEEEEOT_RNSt16remove_referenceISA_E4typeE
FNDA:4,_ZSt7forwardISt5tupleIJRKjEEEOT_RNSt16remove_referenceIS4_E4typeE
FNDA:52,_ZSt7forwardIbEOT_RNSt16remove_referenceIS0_E4typeE
FNDA:0,_ZSt7forwardIjEOT_RNSt16remove_referenceIS0_E4typeE
FNDA:0,_ZSt4moveIRN12WPEFramework4Core10WorkerPool5TimerEEONSt16remove_referenceIT_E4typeEOS6_
FNDA:0,_ZSt4moveIRN12WPEFramework4Core9ProxyTypeINS0_3Web12JSONBodyTypeINS1_7JSONRPC7MessageEEEEEEONSt16remove_referenceIT_E4typeEOSB_
FNDA:0,_ZSt4moveIRN12WPEFramework4Core9TimerTypeINS1_10WorkerPool5TimerEE9TimedInfoIS4_EEEONSt16remove_referenceIT_E4typeEOSA_
FNDA:1797,_ZSt4moveIRNSt7__cxx1112basic_stringIcSt11char_traitsIcESaIcEEEEONSt16remove_referenceIT_E4typeEOS8_
FNDA:0,_ZSt4moveIRPN12WPEFramework10PluginHost11IDispatcher9ICallbackEEONSt16remove_referenceIT_E4typeEOS7_
FNDA:0,_ZSt4moveIRSaIcEEONSt16remove_referenceIT_E4typeEOS3_
FNDA:224,_ZSt4moveIRSt4pairIPKcPN12WPEFramework4Core4JSON8IElementEEEONSt16remove_referenceIT_E4typeEOSB_
FNDA:0,_ZSt4moveIRSt4pairIjNSt7__cxx1112basic_stringIcSt11char_traitsIcESaIcEEEEEONSt16remove_referenceIT_E4typeEOSA_
FNDA:1310,_ZSt4moveIRZN12WPEFramework4Core4JSON6String11DeserializeEPKctRjRNS1_12OptionalTypeINS2_5ErrorEEEEUlhE_EONSt16remove_referenceIT_E4typeEOSE_
FNF:52
FNH:30
DA:51,269
DA:52,269
DA:70,5765
DA:71,5765
DA:97,3331
DA:98,3331
DA:138,16
DA:139,16
LF:8
LH:8
end_of_record
TN:
SF:/usr/include/c++/13/bits/new_allocator.h
FN:104,104,_ZNSt15__new_allocatorINSt7__cxx1112basic_stringIcSt11char_traitsIcESaIcEEEED2Ev
FN:104,104,_ZNSt15__new_allocatorINSt8__detail10_Hash_nodeISt4pairIKNSt7__cxx1112basic_stringIcSt11char_traitsIcESaIcEEES8_ELb1EEEED2Ev
FN:104,104,_ZNSt15__new_allocatorINSt8__detail10_Hash_nodeISt4pairIKjSt13unordered_mapINSt7__cxx1112basic_stringIcSt11char_traitsIcESaIcEEESA_St4hashISA_ESt8equal_toISA_ESaIS2_IKSA_SA_EEEELb0EEEED2Ev
FN:104,104,_ZNSt15__new_allocatorIPN12WPEFramework10PluginHost11IDispatcher9ICallbackEED2Ev
FN:104,104,_ZNSt15__new_allocatorIPNSt8__detail15_Hash_node_baseEED2Ev
FN:104,104,_ZNSt15__new_allocatorISt10_List_nodeIN12WPEFramework4Core10ThreadPool8ExecutorEEED2Ev
FN:104,104,_ZNSt15__new_allocatorISt10_List_nodeIN12WPEFramework4Core14callstack_infoEEED2Ev
FN:104,104,_ZNSt15__new_allocatorISt10_List_nodeIN12WPEFramework4Core9ProxyTypeINS2_9IDispatchEEEEED2Ev
FN:104,104,_ZNSt15__new_allocatorISt10_List_nodeIN12WPEFramework4Core9TimerTypeINS2_10WorkerPool5TimerEE9TimedInfoIS5_EEEED2Ev
FN:104,104,_ZNSt15__new_allocatorISt10_List_nodeIPN12WPEFramework8Exchange20IAppGatewayResponder13INotificationEEED2Ev
FN:104,104,_ZNSt15__new_allocatorISt10_List_nodeISt4pairIPKcPN12WPEFramework4Core4JSON8IElementEEEED2Ev
FN:104,104,_ZNSt15__new_allocatorISt4pairIjNSt7__cxx1112basic_stringIcSt11char_traitsIcESaIcEEEEED2Ev
FN:104,104,_ZNSt15__new_allocatorIcED2Ev
FN:126,152,_ZNSt15__new_allocatorINSt7__cxx1112basic_stringIcSt11char_traitsIcESaIcEEEE8allocateEmPKv
FN:126,152,_ZNSt15__new_allocatorINSt8__detail10_Hash_nodeISt4pairIKNSt7__cxx1112basic_stringIcSt11char_traitsIcESaIcEEEN12WPEFramework10PluginHost7JSONRPC8ObserverEELb1EEEE8allocateEmPKv
FN:126,152,_ZNSt15__new_allocatorINSt8__detail10_Hash_nodeISt4pairIKNSt7__cxx1112basic_stringIcSt11char_traitsIcESaIcEEES8_ELb1EEEE8allocateEmPKv
FN:126,152,_ZNSt15__new_allocatorINSt8__detail10_Hash_nodeISt4pairIKjSt13unordered_mapINSt7__cxx1112basic_stringIcSt11char_traitsIcESaIcEEESA_St4hashISA_ESt8equal_toISA_ESaIS2_IKSA_SA_EEEELb0EEEE8allocateEmPKv
FN:126,152,_ZNSt15__new_allocatorIPN12WPEFramework10PluginHost11IDispatcher9ICallbackEE8allocateEmPKv
FN:126,152,_ZNSt15__new_allocatorIPNSt8__detail15_Hash_node_baseEE8allocateEmPKv
FN:126,152,_ZNSt15__new_allocatorISt10_List_nodeIN12WPEFramework4Core10ThreadPool8ExecutorEEE8allocateEmPKv
FN:126,152,_ZNSt15__new_allocatorISt10_List_nodeIN12WPEFramework4Core9ProxyTypeINS2_9IDispatchEEEEE8allocateEmPKv
FN:126,152,_ZNSt15__new_allocatorISt10_List_nodeIN12WPEFramework4Core9TimerTypeINS2_10WorkerPool5TimerEE9TimedInfoIS5_EEEE8allocateEmPKv
FN:126,152,_ZNSt15__new_allocatorISt10_List_nodeIPN12WPEFramework8Exchange20IAppGatewayResponder13INotificationEEE8allocateEmPKv
FN:126,152,_ZNSt15__new_allocatorISt10_List_nodeISt4pairIPKcPN12WPEFramework4Core4JSON8IElementEEEE8allocateEmPKv
FN:126,152,_ZNSt15__new_allocatorISt4pairIjNSt7__cxx1112basic_stringIcSt11char_traitsIcESaIcEEEEE8allocateEmPKv
FN:156,173,_ZNSt15__new_allocatorINSt7__cxx1112basic_stringIcSt11char_traitsIcESaIcEEEE10deallocateEPS5_m
FN:156,173,_ZNSt15__new_allocatorINSt8__detail10_Hash_nodeISt4pairIKNSt7__cxx1112basic_stringIcSt11char_traitsIcESaIcEEEN12WPEFramework10PluginHost7JSONRPC8ObserverEELb1EEEE10deallocateEPSF_m
FN:156,173,_ZNSt15__new_allocatorINSt8__detail10_Hash_nodeISt4pairIKNSt7__cxx1112basic_stringIcSt11char_traitsIcESaIcEEES8_ELb1EEEE10deallocateEPSB_m
FN:156,173,_ZNSt15__new_allocatorINSt8__detail10_Hash_nodeISt4pairIKjSt13unordered_mapINSt7__cxx1112basic_stringIcSt11char_traitsIcESaIcEEESA_St4hashISA_ESt8equal_toISA_ESaIS2_IKSA_SA_EEEELb0EEEE10deallocateEPSK_m
FN:156,173,_ZNSt15__new_allocatorIPN12WPEFramework10PluginHost11IDispatcher9ICallbackEE10deallocateEPS4_m
FN:156,173,_ZNSt15__new_allocatorIPNSt8__detail15_Hash_node_baseEE10deallocateEPS2_m
FN:156,173,_ZNSt15__new_allocatorISt10_List_nodeIN12WPEFramework4Core10ThreadPool8ExecutorEEE10deallocateEPS5_m
FN:156,173,_ZNSt15__new_allocatorISt10_List_nodeIN12WPEFramework4Core14callstack_infoEEE10deallocateEPS4_m
FN:156,173,_ZNSt15__new_allocatorISt10_List_nodeIN12WPEFramework4Core9ProxyTypeINS2_9IDispatchEEEEE10deallocateEPS6_m
FN:156,173,_ZNSt15__new_allocatorISt10_List_nodeIN12WPEFramework4Core9TimerTypeINS2_10WorkerPool5TimerEE9TimedInfoIS5_EEEE10deallocateEPS9_m
FN:156,173,_ZNSt15__new_allocatorISt10_List_nodeIPN12WPEFramework8Exchange20IAppGatewayResponder13INotificationEEE10deallocateEPS6_m
FN:156,173,_ZNSt15__new_allocatorISt10_List_nodeISt4pairIPKcPN12WPEFramework4Core4JSON8IElementEEEE10deallocateEPSA_m
FN:156,173,_ZNSt15__new_allocatorISt4pairIjNSt7__cxx1112basic_stringIcSt11char_traitsIcESaIcEEEEE10deallocateEPS7_m
FNDA:31,_ZNSt15__new_allocatorINSt7__cxx1112basic_stringIcSt11char_traitsIcESaIcEEEED2Ev
FNDA:0,_ZNSt15__new_allocatorINSt8__detail10_Hash_nodeISt4pairIKNSt7__cxx1112basic_stringIcSt11char_traitsIcESaIcEEES8_ELb1EEEED2Ev
FNDA:3,_ZNSt15__new_allocatorINSt8__detail10_Hash_nodeISt4pairIKjSt13unordered_mapINSt7__cxx1112basic_stringIcSt11char_traitsIcESaIcEEESA_St4hashISA_ESt8equal_toISA_ESaIS2_IKSA_SA_EEEELb0EEEED2Ev
FNDA:0,_ZNSt15__new_allocatorIPN12WPEFramework10PluginHost11IDispatcher9ICallbackEED2Ev
FNDA:60,_ZNSt15__new_allocatorIPNSt8__detail15_Hash_node_baseEED2Ev
FNDA:1,_ZNSt15__new_allocatorISt10_List_nodeIN12WPEFramework4Core10ThreadPool8ExecutorEEED2Ev
FNDA:0,_ZNSt15__new_allocatorISt10_List_nodeIN12WPEFramework4Core14callstack_infoEEED2Ev
FNDA:1,_ZNSt15__new_allocatorISt10_List_nodeIN12WPEFramework4Core9ProxyTypeINS2_9IDispatchEEEEED2Ev
FNDA:1,_ZNSt15__new_allocatorISt10_List_nodeIN12WPEFramework4Core9TimerTypeINS2_10WorkerPool5TimerEE9TimedInfoIS5_EEEED2Ev
FNDA:3,_ZNSt15__new_allocatorISt10_List_nodeIPN12WPEFramework8Exchange20IAppGatewayResponder13INotificationEEED2Ev
FNDA:448,_ZNSt15__new_allocatorISt10_List_nodeISt4pairIPKcPN12WPEFramework4Core4JSON8IElementEEEED2Ev
FNDA:0,_ZNSt15__new_allocatorISt4pairIjNSt7__cxx1112basic_stringIcSt11char_traitsIcESaIcEEEEED2Ev
FNDA:5557,_ZNSt15__new_allocatorIcED2Ev
FNDA:14,_ZNSt15__new_allocatorINSt7__cxx1112basic_stringIcSt11char_traitsIcESaIcEEEE8allocateEmPKv
FNDA:0,_ZNSt15__new_allocatorINSt8__detail10_Hash_nodeISt4pairIKNSt7__cxx1112basic_stringIcSt11char_traitsIcESaIcEEEN12WPEFramework10PluginHost7JSONRPC8ObserverEELb1EEEE8allocateEmPKv
FNDA:1,_ZNSt15__new_allocatorINSt8__detail10_Hash_nodeISt4pairIKNSt7__cxx1112basic_stringIcSt11char_traitsIcESaIcEEES8_ELb1EEEE8allocateEmPKv
FNDA:1,_ZNSt15__new_allocatorINSt8__detail10_Hash_nodeISt4pairIKjSt13unordered_mapINSt7__cxx1112basic_stringIcSt11char_traitsIcESaIcEEESA_St4hashISA_ESt8equal_toISA_ESaIS2_IKSA_SA_EEEELb0EEEE8allocateEmPKv
FNDA:0,_ZNSt15__new_allocatorIPN12WPEFramework10PluginHost11IDispatcher9ICallbackEE8allocateEmPKv
FNDA:44,_ZNSt15__new_allocatorIPNSt8__detail15_Hash_node_baseEE8allocateEmPKv
FNDA:2,_ZNSt15__new_allocatorISt10_List_nodeIN12WPEFramework4Core10ThreadPool8ExecutorEEE8allocateEmPKv
FNDA:2,_ZNSt15__new_allocatorISt10_List_nodeIN12WPEFramework4Core9ProxyTypeINS2_9IDispatchEEEEE8allocateEmPKv
FNDA:0,_ZNSt15__new_allocatorISt10_List_nodeIN12WPEFramework4Core9TimerTypeINS2_10WorkerPool5TimerEE9TimedInfoIS5_EEEE8allocateEmPKv
FNDA:1,_ZNSt15__new_allocatorISt10_List_nodeIPN12WPEFramework8Exchange20IAppGatewayResponder13INotificationEEE8allocateEmPKv
FNDA:224,_ZNSt15__new_allocatorISt10_List_nodeISt4pairIPKcPN12WPEFramework4Core4JSON8IElementEEEE8allocateEmPKv
FNDA:0,_ZNSt15__new_allocatorISt4pairIjNSt7__cxx1112basic_stringIcSt11char_traitsIcESaIcEEEEE8allocateEmPKv
FNDA:14,_ZNSt15__new_allocatorINSt7__cxx1112basic_stringIcSt11char_traitsIcESaIcEEEE10deallocateEPS5_m
FNDA:0,_ZNSt15__new_allocatorINSt8__detail10_Hash_nodeISt4pairIKNSt7__cxx1112basic_stringIcSt11char_traitsIcESaIcEEEN12WPEFramework10PluginHost7JSONRPC8ObserverEELb1EEEE10deallocateEPSF_m
FNDA:0,_ZNSt15__new_allocatorINSt8__detail10_Hash_nodeISt4pairIKNSt7__cxx1112basic_stringIcSt11char_traitsIcESaIcEEES8_ELb1EEEE10deallocateEPSB_m
FNDA:0,_ZNSt15__new_allocatorINSt8__detail10_Hash_nodeISt4pairIKjSt13unordered_mapINSt7__cxx1112basic_stringIcSt11char_traitsIcESaIcEEESA_St4hashISA_ESt8equal_toISA_ESaIS2_IKSA_SA_EEEELb0EEEE10deallocateEPSK_m
FNDA:0,_ZNSt15__new_allocatorIPN12WPEFramework10PluginHost11IDispatcher9ICallbackEE10deallocateEPS4_m
FNDA:16,_ZNSt15__new_allocatorIPNSt8__detail15_Hash_node_baseEE10deallocateEPS2_m
FNDA:2,_ZNSt15__new_allocatorISt10_List_nodeIN12WPEFramework4Core10ThreadPool8ExecutorEEE10deallocateEPS5_m
FNDA:0,_ZNSt15__new_allocatorISt10_List_nodeIN12WPEFramework4Core14callstack_infoEEE10deallocateEPS4_m
FNDA:2,_ZNSt15__new_allocatorISt10_List_nodeIN12WPEFramework4Core9ProxyTypeINS2_9IDispatchEEEEE10deallocateEPS6_m
FNDA:0,_ZNSt15__new_allocatorISt10_List_nodeIN12WPEFramework4Core9TimerTypeINS2_10WorkerPool5TimerEE9TimedInfoIS5_EEEE10deallocateEPS9_m
FNDA:1,_ZNSt15__new_allocatorISt10_List_nodeIPN12WPEFramework8Exchange20IAppGatewayResponder13INotificationEEE10deallocateEPS6_m
FNDA:1451,_ZNSt15__new_allocatorISt10_List_nodeISt4pairIPKcPN12WPEFramework4Core4JSON8IElementEEEE10deallocateEPSA_m
FNDA:0,_ZNSt15__new_allocatorISt4pairIjNSt7__cxx1112basic_stringIcSt11char_traitsIcESaIcEEEEE10deallocateEPS7_m
FNF:38
FNH:23
DA:88,2512
DA:92,89
DA:104,6105
DA:126,289
DA:134,289
DA:138,0
DA:139,0
DA:140,0
DA:151,289
DA:156,1486
DA:172,1486
DA:183,14
DA:191,232
DA:198,1456
DA:233,303
LF:15
LH:12
end_of_record
TN:
SF:/usr/include/c++/13/bits/predefined_ops.h
FN:262,264,_ZN9__gnu_cxx5__ops16_Iter_equals_valIKN12WPEFramework4Core9ProxyTypeINS3_9IDispatchEEEEC2ERS7_
FN:262,264,_ZN9__gnu_cxx5__ops16_Iter_equals_valIKPKN12WPEFramework10PluginHost11IDispatcher9ICallbackEEC2ERS8_
FN:262,264,_ZN9__gnu_cxx5__ops16_Iter_equals_valIKPN12WPEFramework10PluginHost11IDispatcher9ICallbackEEC2ERS7_
FN:262,264,_ZN9__gnu_cxx5__ops16_Iter_equals_valIKPN12WPEFramework8Exchange20IAppGatewayResponder13INotificationEEC2ERS7_
FN:262,264,_ZN9__gnu_cxx5__ops16_Iter_equals_valIKhEC2ERS2_
FN:269,270,_ZN9__gnu_cxx5__ops16_Iter_equals_valIKN12WPEFramework4Core9ProxyTypeINS3_9IDispatchEEEEclISt14_List_iteratorIS6_EEEbT_
FN:269,270,_ZN9__gnu_cxx5__ops16_Iter_equals_valIKPKN12WPEFramework10PluginHost11IDispatcher9ICallbackEEclINS_17__normal_iteratorIPPS5_St6vectorISC_SaISC_EEEEEEbT_
FN:269,270,_ZN9__gnu_cxx5__ops16_Iter_equals_valIKPN12WPEFramework10PluginHost11IDispatcher9ICallbackEEclINS_17__normal_iteratorIPS6_St6vectorIS6_SaIS6_EEEEEEbT_
FN:269,270,_ZN9__gnu_cxx5__ops16_Iter_equals_valIKPN12WPEFramework8Exchange20IAppGatewayResponder13INotificationEEclISt14_List_iteratorIS6_EEEbT_
FN:269,270,_ZN9__gnu_cxx5__ops16_Iter_equals_valIKhEclINS_17__normal_iteratorIPS2_St6vectorIhSaIhEEEEEEbT_
FN:276,277,_ZN9__gnu_cxx5__ops17__iter_equals_valIKN12WPEFramework4Core9ProxyTypeINS3_9IDispatchEEEEENS0_16_Iter_equals_valIT_EERS9_
FN:276,277,_ZN9__gnu_cxx5__ops17__iter_equals_valIKPKN12WPEFramework10PluginHost11IDispatcher9ICallbackEEENS0_16_Iter_equals_valIT_EERSA_
FN:276,277,_ZN9__gnu_cxx5__ops17__iter_equals_valIKPN12WPEFramework10PluginHost11IDispatcher9ICallbackEEENS0_16_Iter_equals_valIT_EERS9_
FN:276,277,_ZN9__gnu_cxx5__ops17__iter_equals_valIKPN12WPEFramework8Exchange20IAppGatewayResponder13INotificationEEENS0_16_Iter_equals_valIT_EERS9_
FN:276,277,_ZN9__gnu_cxx5__ops17__iter_equals_valIKhEENS0_16_Iter_equals_valIT_EERS4_
FN:310,312,_ZN9__gnu_cxx5__ops10_Iter_predIZN12WPEFramework4Core4JSON6String11DeserializeEPKctRjRNS3_12OptionalTypeINS4_5ErrorEEEEUlhE_EC2ESD_
FN:317,318,_ZN9__gnu_cxx5__ops10_Iter_predIZN12WPEFramework4Core4JSON6String11DeserializeEPKctRjRNS3_12OptionalTypeINS4_5ErrorEEEEUlhE_EclISt16reverse_iteratorINS_17__normal_iteratorIPcNSt7__cxx1112basic_stringIcSt11char_traitsIcESaIcEEEEEEEEbT_
FN:324,325,_ZN9__gnu_cxx5__ops11__pred_iterIZN12WPEFramework4Core4JSON6String11DeserializeEPKctRjRNS3_12OptionalTypeINS4_5ErrorEEEEUlhE_EENS0_10_Iter_predIT_EESF_
FNDA:0,_ZN9__gnu_cxx5__ops16_Iter_equals_valIKN12WPEFramework4Core9ProxyTypeINS3_9IDispatchEEEEC2ERS7_
FNDA:0,_ZN9__gnu_cxx5__ops16_Iter_equals_valIKPKN12WPEFramework10PluginHost11IDispatcher9ICallbackEEC2ERS8_
FNDA:0,_ZN9__gnu_cxx5__ops16_Iter_equals_valIKPN12WPEFramework10PluginHost11IDispatcher9ICallbackEEC2ERS7_
FNDA:2,_ZN9__gnu_cxx5__ops16_Iter_equals_valIKPN12WPEFramework8Exchange20IAppGatewayResponder13INotificationEEC2ERS7_
FNDA:0,_ZN9__gnu_cxx5__ops16_Iter_equals_valIKhEC2ERS2_
FNDA:0,_ZN9__gnu_cxx5__ops16_Iter_equals_valIKN12WPEFramework4Core9ProxyTypeINS3_9IDispatchEEEEclISt14_List_iteratorIS6_EEEbT_
FNDA:0,_ZN9__gnu_cxx5__ops16_Iter_equals_valIKPKN12WPEFramework10PluginHost11IDispatcher9ICallbackEEclINS_17__normal_iteratorIPPS5_St6vectorISC_SaISC_EEEEEEbT_
FNDA:0,_ZN9__gnu_cxx5__ops16_Iter_equals_valIKPN12WPEFramework10PluginHost11IDispatcher9ICallbackEEclINS_17__normal_iteratorIPS6_St6vectorIS6_SaIS6_EEEEEEbT_
FNDA:1,_ZN9__gnu_cxx5__ops16_Iter_equals_valIKPN12WPEFramework8Exchange20IAppGatewayResponder13INotificationEEclISt14_List_iteratorIS6_EEEbT_
FNDA:0,_ZN9__gnu_cxx5__ops16_Iter_equals_valIKhEclINS_17__normal_iteratorIPS2_St6vectorIhSaIhEEEEEEbT_
FNDA:0,_ZN9__gnu_cxx5__ops17__iter_equals_valIKN12WPEFramework4Core9ProxyTypeINS3_9IDispatchEEEEENS0_16_Iter_equals_valIT_EERS9_
FNDA:0,_ZN9__gnu_cxx5__ops17__iter_equals_valIKPKN12WPEFramework10PluginHost11IDispatcher9ICallbackEEENS0_16_Iter_equals_valIT_EERSA_
FNDA:0,_ZN9__gnu_cxx5__ops17__iter_equals_valIKPN12WPEFramework10PluginHost11IDispatcher9ICallbackEEENS0_16_Iter_equals_valIT_EERS9_
FNDA:2,_ZN9__gnu_cxx5__ops17__iter_equals_valIKPN12WPEFramework8Exchange20IAppGatewayResponder13INotificationEEENS0_16_Iter_equals_valIT_EERS9_
FNDA:0,_ZN9__gnu_cxx5__ops17__iter_equals_valIKhEENS0_16_Iter_equals_valIT_EERS4_
FNDA:655,_ZN9__gnu_cxx5__ops10_Iter_predIZN12WPEFramework4Core4JSON6String11DeserializeEPKctRjRNS3_12OptionalTypeINS4_5ErrorEEEEUlhE_EC2ESD_
FNDA:655,_ZN9__gnu_cxx5__ops10_Iter_predIZN12WPEFramework4Core4JSON6String11DeserializeEPKctRjRNS3_12OptionalTypeINS4_5ErrorEEEEUlhE_EclISt16reverse_iteratorINS_17__normal_iteratorIPcNSt7__cxx1112basic_stringIcSt11char_traitsIcESaIcEEEEEEEEbT_
FNDA:655,_ZN9__gnu_cxx5__ops11__pred_iterIZN12WPEFramework4Core4JSON6String11DeserializeEPKctRjRNS3_12OptionalTypeINS4_5ErrorEEEEUlhE_EENS0_10_Iter_predIT_EESF_
FNF:18
FNH:6
DA:262,2
DA:263,2
DA:264,2
DA:269,1
DA:270,1
DA:276,2
DA:277,2
DA:310,655
DA:311,655
DA:312,655
DA:317,655
DA:318,655
DA:324,655
DA:325,655
LF:14
LH:14
end_of_record
TN:
SF:/usr/include/c++/13/bits/ptr_traits.h
FN:141,142,_ZNSt19__ptr_traits_ptr_toIPNSt8__detail10_Hash_nodeISt4pairIKNSt7__cxx1112basic_stringIcSt11char_traitsIcESaIcEEEN12WPEFramework10PluginHost7JSONRPC8ObserverEELb1EEESF_Lb0EE10pointer_toERSF_
FN:141,142,_ZNSt19__ptr_traits_ptr_toIPNSt8__detail10_Hash_nodeISt4pairIKNSt7__cxx1112basic_stringIcSt11char_traitsIcESaIcEEES8_ELb1EEESB_Lb0EE10pointer_toERSB_
FN:141,142,_ZNSt19__ptr_traits_ptr_toIPNSt8__detail10_Hash_nodeISt4pairIKjSt13unordered_mapINSt7__cxx1112basic_stringIcSt11char_traitsIcESaIcEEESA_St4hashISA_ESt8equal_toISA_ESaIS2_IKSA_SA_EEEELb0EEESK_Lb0EE10pointer_toERSK_
FN:141,142,_ZNSt19__ptr_traits_ptr_toIPPNSt8__detail15_Hash_node_baseES2_Lb0EE10pointer_toERS2_
FN:212,216,_ZSt12__to_addressINSt8__detail10_Hash_nodeISt4pairIKNSt7__cxx1112basic_stringIcSt11char_traitsIcESaIcEEEN12WPEFramework10PluginHost7JSONRPC8ObserverEELb1EEEEPT_SH_
FN:212,216,_ZSt12__to_addressINSt8__detail10_Hash_nodeISt4pairIKNSt7__cxx1112basic_stringIcSt11char_traitsIcESaIcEEES8_ELb1EEEEPT_SD_
FN:212,216,_ZSt12__to_addressINSt8__detail10_Hash_nodeISt4pairIKjSt13unordered_mapINSt7__cxx1112basic_stringIcSt11char_traitsIcESaIcEEESA_St4hashISA_ESt8equal_toISA_ESaIS2_IKSA_SA_EEEELb0EEEEPT_SM_
FN:212,216,_ZSt12__to_addressIPNSt8__detail15_Hash_node_baseEEPT_S4_
FNDA:0,_ZNSt19__ptr_traits_ptr_toIPNSt8__detail10_Hash_nodeISt4pairIKNSt7__cxx1112basic_stringIcSt11char_traitsIcESaIcEEEN12WPEFramework10PluginHost7JSONRPC8ObserverEELb1EEESF_Lb0EE10pointer_toERSF_
FNDA:0,_ZNSt19__ptr_traits_ptr_toIPNSt8__detail10_Hash_nodeISt4pairIKNSt7__cxx1112basic_stringIcSt11char_traitsIcESaIcEEES8_ELb1EEESB_Lb0EE10pointer_toERSB_
FNDA:0,_ZNSt19__ptr_traits_ptr_toIPNSt8__detail10_Hash_nodeISt4pairIKjSt13unordered_mapINSt7__cxx1112basic_stringIcSt11char_traitsIcESaIcEEESA_St4hashISA_ESt8equal_toISA_ESaIS2_IKSA_SA_EEEELb0EEESK_Lb0EE10pointer_toERSK_
FNDA:16,_ZNSt19__ptr_traits_ptr_toIPPNSt8__detail15_Hash_node_baseES2_Lb0EE10pointer_toERS2_
FNDA:0,_ZSt12__to_addressINSt8__detail10_Hash_nodeISt4pairIKNSt7__cxx1112basic_stringIcSt11char_traitsIcESaIcEEEN12WPEFramework10PluginHost7JSONRPC8ObserverEELb1EEEEPT_SH_
FNDA:1,_ZSt12__to_addressINSt8__detail10_Hash_nodeISt4pairIKNSt7__cxx1112basic_stringIcSt11char_traitsIcESaIcEEES8_ELb1EEEEPT_SD_
FNDA:1,_ZSt12__to_addressINSt8__detail10_Hash_nodeISt4pairIKjSt13unordered_mapINSt7__cxx1112basic_stringIcSt11char_traitsIcESaIcEEESA_St4hashISA_ESt8equal_toISA_ESaIS2_IKSA_SA_EEEELb0EEEEPT_SM_
FNDA:44,_ZSt12__to_addressIPNSt8__detail15_Hash_node_baseEEPT_S4_
FNF:8
FNH:4
DA:141,16
DA:142,16
DA:212,46
DA:215,46
LF:4
LH:4
end_of_record
TN:
SF:/usr/include/c++/13/bits/std_function.h
FN:239,239,_ZNSt14_Function_baseC2Ev
FN:241,245,_ZNSt14_Function_baseD2Ev
FN:247,247,_ZNKSt14_Function_base8_M_emptyEv
FN:368,369,_ZNSt8functionIFbRKNSt7__cxx1112basic_stringIcSt11char_traitsIcESaIcEEEEEC2Ev
FN:573,574,_ZNKSt8functionIFN12WPEFramework10PluginHost7JSONRPC14classificationERKNSt7__cxx1112basic_stringIcSt11char_traitsIcESaIcEEESB_SB_EEcvbEv
FN:573,574,_ZNKSt8functionIFbRKNSt7__cxx1112basic_stringIcSt11char_traitsIcESaIcEEEEEcvbEv
FN:587,592,_ZNKSt8functionIFN12WPEFramework10PluginHost7JSONRPC14classificationERKNSt7__cxx1112basic_stringIcSt11char_traitsIcESaIcEEESB_SB_EEclESB_SB_SB_
FN:587,592,_ZNKSt8functionIFbRKNSt7__cxx1112basic_stringIcSt11char_traitsIcESaIcEEEEEclES7_
FN:587,592,_ZNKSt8functionIFiRKN12WPEFramework4Core7JSONRPC7ContextERKNSt7__cxx1112basic_stringIcSt11char_traitsIcESaIcEEESD_jRSB_EEclES5_SD_SD_jSE_
FN:587,592,_ZNKSt8functionIFjRKN12WPEFramework4Core7JSONRPC7ContextERKNSt7__cxx1112basic_stringIcSt11char_traitsIcESaIcEEESD_RSB_EEclES5_SD_SD_SE_
FN:587,592,_ZNKSt8functionIFvRKN12WPEFramework4Core7JSONRPC7ContextERKNSt7__cxx1112basic_stringIcSt11char_traitsIcESaIcEEEEEclES5_SD_
FN:755,756,_ZStneIN12WPEFramework10PluginHost7JSONRPC14classificationEJRKNSt7__cxx1112basic_stringIcSt11char_traitsIcESaIcEEESB_SB_EEbRKSt8functionIFT_DpT0_EEDn
FNDA:234,_ZNSt14_Function_baseC2Ev
FNDA:182,_ZNSt14_Function_baseD2Ev
FNDA:203,_ZNKSt14_Function_base8_M_emptyEv
FNDA:0,_ZNSt8functionIFbRKNSt7__cxx1112basic_stringIcSt11char_traitsIcESaIcEEEEEC2Ev
FNDA:0,_ZNKSt8functionIFN12WPEFramework10PluginHost7JSONRPC14classificationERKNSt7__cxx1112basic_stringIcSt11char_traitsIcESaIcEEESB_SB_EEcvbEv
FNDA:0,_ZNKSt8functionIFbRKNSt7__cxx1112basic_stringIcSt11char_traitsIcESaIcEEEEEcvbEv
FNDA:0,_ZNKSt8functionIFN12WPEFramework10PluginHost7JSONRPC14classificationERKNSt7__cxx1112basic_stringIcSt11char_traitsIcESaIcEEESB_SB_EEclESB_SB_SB_
FNDA:0,_ZNKSt8functionIFbRKNSt7__cxx1112basic_stringIcSt11char_traitsIcESaIcEEEEEclES7_
FNDA:0,_ZNKSt8functionIFiRKN12WPEFramework4Core7JSONRPC7ContextERKNSt7__cxx1112basic_stringIcSt11char_traitsIcESaIcEEESD_jRSB_EEclES5_SD_SD_jSE_
FNDA:21,_ZNKSt8functionIFjRKN12WPEFramework4Core7JSONRPC7ContextERKNSt7__cxx1112basic_stringIcSt11char_traitsIcESaIcEEESD_RSB_EEclES5_SD_SD_SE_
FNDA:0,_ZNKSt8functionIFvRKN12WPEFramework4Core7JSONRPC7ContextERKNSt7__cxx1112basic_stringIcSt11char_traitsIcESaIcEEEEEclES5_SD_
FNDA:0,_ZStneIN12WPEFramework10PluginHost7JSONRPC14classificationEJRKNSt7__cxx1112basic_stringIcSt11char_traitsIcESaIcEEESB_SB_EEbRKSt8functionIFT_DpT0_EEDn
FNF:12
FNH:4
DA:239,234
DA:241,182
DA:243,182
DA:244,130
DA:245,182
DA:247,203
DA:368,0
DA:369,0
DA:573,0
DA:574,0
DA:587,21
DA:589,21
DA:590,0
DA:591,21
DA:755,0
DA:756,0
LF:16
LH:9
end_of_record
TN:
SF:/usr/include/c++/13/bits/std_mutex.h
FN:104,104,_ZNSt5mutexC2Ev
FN:111,118,_ZNSt5mutex4lockEv
FN:129,133,_ZNSt5mutex6unlockEv
FN:248,249,_ZNSt10lock_guardISt5mutexEC2ERS0_
FN:254,255,_ZNSt10lock_guardISt5mutexED2Ev
FN:67,67,_ZNSt12__mutex_baseC2Ev
FNDA:33,_ZNSt5mutexC2Ev
FNDA:18,_ZNSt5mutex4lockEv
FNDA:18,_ZNSt5mutex6unlockEv
FNDA:18,_ZNSt10lock_guardISt5mutexEC2ERS0_
FNDA:18,_ZNSt10lock_guardISt5mutexED2Ev
FNDA:33,_ZNSt12__mutex_baseC2Ev
FNF:6
FNH:6
DA:67,33
DA:104,33
DA:111,18
DA:113,18
DA:116,18
DA:117,0
DA:118,18
DA:129,18
DA:132,18
DA:133,18
DA:248,18
DA:249,18
DA:254,18
DA:255,18
LF:14
LH:13
end_of_record
TN:
SF:/usr/include/c++/13/bits/std_thread.h
FN:363,368,_ZNSt11this_thread5yieldEv
FNDA:12,_ZNSt11this_thread5yieldEv
FNF:1
FNH:1
DA:363,12
DA:366,12
DA:368,12
LF:3
LH:3
end_of_record
TN:
SF:/usr/include/c++/13/bits/stl_algo.h
FN:3889,3899,_ZSt4findIN9__gnu_cxx17__normal_iteratorIPKhSt6vectorIhSaIhEEEEhET_S8_S8_RKT0_
FN:3889,3899,_ZSt4findIN9__gnu_cxx17__normal_iteratorIPPN12WPEFramework10PluginHost11IDispatcher9ICallbackESt6vectorIS6_SaIS6_EEEEPKS5_ET_SE_SE_RKT0_
FN:3889,3899,_ZSt4findIN9__gnu_cxx17__normal_iteratorIPPN12WPEFramework10PluginHost11IDispatcher9ICallbackESt6vectorIS6_SaIS6_EEEES6_ET_SC_SC_RKT0_
FN:3889,3899,_ZSt4findISt14_List_iteratorIN12WPEFramework4Core9ProxyTypeINS2_9IDispatchEEEES5_ET_S7_S7_RKT0_
FN:3889,3899,_ZSt4findISt14_List_iteratorIPN12WPEFramework8Exchange20IAppGatewayResponder13INotificationEES5_ET_S7_S7_RKT0_
FN:3914,3925,_ZSt7find_ifISt16reverse_iteratorIN9__gnu_cxx17__normal_iteratorIPcNSt7__cxx1112basic_stringIcSt11char_traitsIcESaIcEEEEEEZN12WPEFramework4Core4JSON6String11DeserializeEPKctRjRNSD_12OptionalTypeINSE_5ErrorEEEEUlhE_ET_SO_SO_T0_
FN:4298,4311,_ZSt9transformIN9__gnu_cxx17__normal_iteratorIPcNSt7__cxx1112basic_stringIcSt11char_traitsIcESaIcEEEEES9_ZN11StringUtils7toLowerERKS8_EUlhE_ET0_T_SF_SE_T1_
FNDA:0,_ZSt4findIN9__gnu_cxx17__normal_iteratorIPKhSt6vectorIhSaIhEEEEhET_S8_S8_RKT0_
FNDA:0,_ZSt4findIN9__gnu_cxx17__normal_iteratorIPPN12WPEFramework10PluginHost11IDispatcher9ICallbackESt6vectorIS6_SaIS6_EEEEPKS5_ET_SE_SE_RKT0_
FNDA:0,_ZSt4findIN9__gnu_cxx17__normal_iteratorIPPN12WPEFramework10PluginHost11IDispatcher9ICallbackESt6vectorIS6_SaIS6_EEEES6_ET_SC_SC_RKT0_
FNDA:0,_ZSt4findISt14_List_iteratorIN12WPEFramework4Core9ProxyTypeINS2_9IDispatchEEEES5_ET_S7_S7_RKT0_
FNDA:2,_ZSt4findISt14_List_iteratorIPN12WPEFramework8Exchange20IAppGatewayResponder13INotificationEES5_ET_S7_S7_RKT0_
FNDA:655,_ZSt7find_ifISt16reverse_iteratorIN9__gnu_cxx17__normal_iteratorIPcNSt7__cxx1112basic_stringIcSt11char_traitsIcESaIcEEEEEEZN12WPEFramework4Core4JSON6String11DeserializeEPKctRjRNSD_12OptionalTypeINSE_5ErrorEEEEUlhE_ET_SO_SO_T0_
FNDA:402,_ZSt9transformIN9__gnu_cxx17__normal_iteratorIPcNSt7__cxx1112basic_stringIcSt11char_traitsIcESaIcEEEEES9_ZN11StringUtils7toLowerERKS8_EUlhE_ET0_T_SF_SE_T1_
FNF:7
FNH:3
DA:3889,2
DA:3897,2
DA:3898,2
DA:3914,655
DA:3924,655
DA:4298,402
DA:4308,10902
DA:4309,10500
DA:4310,402
LF:9
LH:9
end_of_record
TN:
SF:/usr/include/c++/13/bits/stl_algobase.h
FN:2052,2058,_ZSt9__find_ifISt14_List_iteratorIN12WPEFramework4Core9ProxyTypeINS2_9IDispatchEEEEN9__gnu_cxx5__ops16_Iter_equals_valIKS5_EEET_SC_SC_T0_St18input_iterator_tag
FN:2052,2058,_ZSt9__find_ifISt14_List_iteratorIPN12WPEFramework8Exchange20IAppGatewayResponder13INotificationEEN9__gnu_cxx5__ops16_Iter_equals_valIKS5_EEET_SC_SC_T0_St18input_iterator_tag
FN:2064,2110,_ZSt9__find_ifIN9__gnu_cxx17__normal_iteratorIPKhSt6vectorIhSaIhEEEENS0_5__ops16_Iter_equals_valIS2_EEET_SB_SB_T0_St26random_access_iterator_tag
FN:2064,2110,_ZSt9__find_ifIN9__gnu_cxx17__normal_iteratorIPPN12WPEFramework10PluginHost11IDispatcher9ICallbackESt6vectorIS6_SaIS6_EEEENS0_5__ops16_Iter_equals_valIKPKS5_EEET_SI_SI_T0_St26random_access_iterator_tag
FN:2064,2110,_ZSt9__find_ifIN9__gnu_cxx17__normal_iteratorIPPN12WPEFramework10PluginHost11IDispatcher9ICallbackESt6vectorIS6_SaIS6_EEEENS0_5__ops16_Iter_equals_valIKS6_EEET_SG_SG_T0_St26random_access_iterator_tag
FN:2064,2110,_ZSt9__find_ifISt16reverse_iteratorIN9__gnu_cxx17__normal_iteratorIPcNSt7__cxx1112basic_stringIcSt11char_traitsIcESaIcEEEEEENS1_5__ops10_Iter_predIZN12WPEFramework4Core4JSON6String11DeserializeEPKctRjRNSF_12OptionalTypeINSG_5ErrorEEEEUlhE_EEET_SR_SR_T0_St26random_access_iterator_tag
FN:2115,2119,_ZSt9__find_ifIN9__gnu_cxx17__normal_iteratorIPKhSt6vectorIhSaIhEEEENS0_5__ops16_Iter_equals_valIS2_EEET_SB_SB_T0_
FN:2115,2119,_ZSt9__find_ifIN9__gnu_cxx17__normal_iteratorIPPN12WPEFramework10PluginHost11IDispatcher9ICallbackESt6vectorIS6_SaIS6_EEEENS0_5__ops16_Iter_equals_valIKPKS5_EEET_SI_SI_T0_
FN:2115,2119,_ZSt9__find_ifIN9__gnu_cxx17__normal_iteratorIPPN12WPEFramework10PluginHost11IDispatcher9ICallbackESt6vectorIS6_SaIS6_EEEENS0_5__ops16_Iter_equals_valIKS6_EEET_SG_SG_T0_
FN:2115,2119,_ZSt9__find_ifISt14_List_iteratorIN12WPEFramework4Core9ProxyTypeINS2_9IDispatchEEEEN9__gnu_cxx5__ops16_Iter_equals_valIKS5_EEET_SC_SC_T0_
FN:2115,2119,_ZSt9__find_ifISt14_List_iteratorIPN12WPEFramework8Exchange20IAppGatewayResponder13INotificationEEN9__gnu_cxx5__ops16_Iter_equals_valIKS5_EEET_SC_SC_T0_
FN:2115,2119,_ZSt9__find_ifISt16reverse_iteratorIN9__gnu_cxx17__normal_iteratorIPcNSt7__cxx1112basic_stringIcSt11char_traitsIcESaIcEEEEEENS1_5__ops10_Iter_predIZN12WPEFramework4Core4JSON6String11DeserializeEPKctRjRNSF_12OptionalTypeINSG_5ErrorEEEEUlhE_EEET_SR_SR_T0_
FN:233,241,_ZSt3minIjERKT_S2_S2_
FN:233,241,_ZSt3minImERKT_S2_S2_
FN:233,241,_ZSt3minItERKT_S2_S2_
FN:257,265,_ZSt3maxImERKT_S2_S2_
FN:316,318,_ZSt12__niter_baseIPNSt7__cxx1112basic_stringIcSt11char_traitsIcESaIcEEEET_S7_
FN:316,318,_ZSt12__niter_baseIPPN12WPEFramework10PluginHost11IDispatcher9ICallbackEET_S6_
FN:316,318,_ZSt12__niter_baseIPSt4pairIjNSt7__cxx1112basic_stringIcSt11char_traitsIcESaIcEEEEET_S9_
FN:331,332,_ZSt12__niter_wrapIN9__gnu_cxx17__normal_iteratorIPPN12WPEFramework10PluginHost11IDispatcher9ICallbackESt6vectorIS6_SaIS6_EEEES7_ET_SC_T0_
FN:331,332,_ZSt12__niter_wrapIN9__gnu_cxx17__normal_iteratorIPSt4pairIjNSt7__cxx1112basic_stringIcSt11char_traitsIcESaIcEEEESt6vectorIS9_SaIS9_EEEESA_ET_SF_T0_
FN:408,418,_ZNSt11__copy_moveILb1ELb0ESt26random_access_iterator_tagE8__copy_mIPSt4pairIjNSt7__cxx1112basic_stringIcSt11char_traitsIcESaIcEEEESB_EET0_T_SD_SC_
FN:422,423,_ZNSt11__copy_moveILb1ELb0ESt26random_access_iterator_tagE12__assign_oneIPN12WPEFramework10PluginHost11IDispatcher9ICallbackES7_EEvPT_PT0_
FN:433,442,_ZNSt11__copy_moveILb1ELb1ESt26random_access_iterator_tagE8__copy_mIPN12WPEFramework10PluginHost11IDispatcher9ICallbackES7_EEPT0_PT_SB_S9_
FN:497,507,_ZSt14__copy_move_a2ILb1EPPN12WPEFramework10PluginHost11IDispatcher9ICallbackES5_ET1_T0_S7_S6_
FN:497,507,_ZSt14__copy_move_a2ILb1EPSt4pairIjNSt7__cxx1112basic_stringIcSt11char_traitsIcESaIcEEEES8_ET1_T0_SA_S9_
FN:532,533,_ZSt14__copy_move_a1ILb1EPPN12WPEFramework10PluginHost11IDispatcher9ICallbackES5_ET1_T0_S7_S6_
FN:532,533,_ZSt14__copy_move_a1ILb1EPSt4pairIjNSt7__cxx1112basic_stringIcSt11char_traitsIcESaIcEEEES8_ET1_T0_SA_S9_
FN:538,544,_ZSt13__copy_move_aILb1EN9__gnu_cxx17__normal_iteratorIPPN12WPEFramework10PluginHost11IDispatcher9ICallbackESt6vectorIS6_SaIS6_EEEESB_ET1_T0_SD_SC_
FN:538,544,_ZSt13__copy_move_aILb1EN9__gnu_cxx17__normal_iteratorIPSt4pairIjNSt7__cxx1112basic_stringIcSt11char_traitsIcESaIcEEEESt6vectorIS9_SaIS9_EEEESE_ET1_T0_SG_SF_
FN:657,667,_ZSt4moveIN9__gnu_cxx17__normal_iteratorIPPN12WPEFramework10PluginHost11IDispatcher9ICallbackESt6vectorIS6_SaIS6_EEEESB_ET0_T_SD_SC_
FN:657,667,_ZSt4moveIN9__gnu_cxx17__normal_iteratorIPSt4pairIjNSt7__cxx1112basic_stringIcSt11char_traitsIcESaIcEEEESt6vectorIS9_SaIS9_EEEESE_ET0_T_SG_SF_
FNDA:0,_ZSt9__find_ifISt14_List_iteratorIN12WPEFramework4Core9ProxyTypeINS2_9IDispatchEEEEN9__gnu_cxx5__ops16_Iter_equals_valIKS5_EEET_SC_SC_T0_St18input_iterator_tag
FNDA:2,_ZSt9__find_ifISt14_List_iteratorIPN12WPEFramework8Exchange20IAppGatewayResponder13INotificationEEN9__gnu_cxx5__ops16_Iter_equals_valIKS5_EEET_SC_SC_T0_St18input_iterator_tag
FNDA:0,_ZSt9__find_ifIN9__gnu_cxx17__normal_iteratorIPKhSt6vectorIhSaIhEEEENS0_5__ops16_Iter_equals_valIS2_EEET_SB_SB_T0_St26random_access_iterator_tag
FNDA:0,_ZSt9__find_ifIN9__gnu_cxx17__normal_iteratorIPPN12WPEFramework10PluginHost11IDispatcher9ICallbackESt6vectorIS6_SaIS6_EEEENS0_5__ops16_Iter_equals_valIKPKS5_EEET_SI_SI_T0_St26random_access_iterator_tag
FNDA:0,_ZSt9__find_ifIN9__gnu_cxx17__normal_iteratorIPPN12WPEFramework10PluginHost11IDispatcher9ICallbackESt6vectorIS6_SaIS6_EEEENS0_5__ops16_Iter_equals_valIKS6_EEET_SG_SG_T0_St26random_access_iterator_tag
FNDA:655,_ZSt9__find_ifISt16reverse_iteratorIN9__gnu_cxx17__normal_iteratorIPcNSt7__cxx1112basic_stringIcSt11char_traitsIcESaIcEEEEEENS1_5__ops10_Iter_predIZN12WPEFramework4Core4JSON6String11DeserializeEPKctRjRNSF_12OptionalTypeINSG_5ErrorEEEEUlhE_EEET_SR_SR_T0_St26random_access_iterator_tag
FNDA:0,_ZSt9__find_ifIN9__gnu_cxx17__normal_iteratorIPKhSt6vectorIhSaIhEEEENS0_5__ops16_Iter_equals_valIS2_EEET_SB_SB_T0_
FNDA:0,_ZSt9__find_ifIN9__gnu_cxx17__normal_iteratorIPPN12WPEFramework10PluginHost11IDispatcher9ICallbackESt6vectorIS6_SaIS6_EEEENS0_5__ops16_Iter_equals_valIKPKS5_EEET_SI_SI_T0_
FNDA:0,_ZSt9__find_ifIN9__gnu_cxx17__normal_iteratorIPPN12WPEFramework10PluginHost11IDispatcher9ICallbackESt6vectorIS6_SaIS6_EEEENS0_5__ops16_Iter_equals_valIKS6_EEET_SG_SG_T0_
FNDA:0,_ZSt9__find_ifISt14_List_iteratorIN12WPEFramework4Core9ProxyTypeINS2_9IDispatchEEEEN9__gnu_cxx5__ops16_Iter_equals_valIKS5_EEET_SC_SC_T0_
FNDA:2,_ZSt9__find_ifISt14_List_iteratorIPN12WPEFramework8Exchange20IAppGatewayResponder13INotificationEEN9__gnu_cxx5__ops16_Iter_equals_valIKS5_EEET_SC_SC_T0_
FNDA:655,_ZSt9__find_ifISt16reverse_iteratorIN9__gnu_cxx17__normal_iteratorIPcNSt7__cxx1112basic_stringIcSt11char_traitsIcESaIcEEEEEENS1_5__ops10_Iter_predIZN12WPEFramework4Core4JSON6String11DeserializeEPKctRjRNSF_12OptionalTypeINSG_5ErrorEEEEUlhE_EEET_SR_SR_T0_
FNDA:422,_ZSt3minIjERKT_S2_S2_
FNDA:21,_ZSt3minImERKT_S2_S2_
FNDA:0,_ZSt3minItERKT_S2_S2_
FNDA:4,_ZSt3maxImERKT_S2_S2_
FNDA:24,_ZSt12__niter_baseIPNSt7__cxx1112basic_stringIcSt11char_traitsIcESaIcEEEET_S7_
FNDA:0,_ZSt12__niter_baseIPPN12WPEFramework10PluginHost11IDispatcher9ICallbackEET_S6_
FNDA:0,_ZSt12__niter_baseIPSt4pairIjNSt7__cxx1112basic_stringIcSt11char_traitsIcESaIcEEEEET_S9_
FNDA:0,_ZSt12__niter_wrapIN9__gnu_cxx17__normal_iteratorIPPN12WPEFramework10PluginHost11IDispatcher9ICallbackESt6vectorIS6_SaIS6_EEEES7_ET_SC_T0_
FNDA:0,_ZSt12__niter_wrapIN9__gnu_cxx17__normal_iteratorIPSt4pairIjNSt7__cxx1112basic_stringIcSt11char_traitsIcESaIcEEEESt6vectorIS9_SaIS9_EEEESA_ET_SF_T0_
FNDA:0,_ZNSt11__copy_moveILb1ELb0ESt26random_access_iterator_tagE8__copy_mIPSt4pairIjNSt7__cxx1112basic_stringIcSt11char_traitsIcESaIcEEEESB_EET0_T_SD_SC_
FNDA:0,_ZNSt11__copy_moveILb1ELb0ESt26random_access_iterator_tagE12__assign_oneIPN12WPEFramework10PluginHost11IDispatcher9ICallbackES7_EEvPT_PT0_
FNDA:0,_ZNSt11__copy_moveILb1ELb1ESt26random_access_iterator_tagE8__copy_mIPN12WPEFramework10PluginHost11IDispatcher9ICallbackES7_EEPT0_PT_SB_S9_
FNDA:0,_ZSt14__copy_move_a2ILb1EPPN12WPEFramework10PluginHost11IDispatcher9ICallbackES5_ET1_T0_S7_S6_
FNDA:0,_ZSt14__copy_move_a2ILb1EPSt4pairIjNSt7__cxx1112basic_stringIcSt11char_traitsIcESaIcEEEES8_ET1_T0_SA_S9_
FNDA:0,_ZSt14__copy_move_a1ILb1EPPN12WPEFramework10PluginHost11IDispatcher9ICallbackES5_ET1_T0_S7_S6_
FNDA:0,_ZSt14__copy_move_a1ILb1EPSt4pairIjNSt7__cxx1112basic_stringIcSt11char_traitsIcESaIcEEEES8_ET1_T0_SA_S9_
FNDA:0,_ZSt13__copy_move_aILb1EN9__gnu_cxx17__normal_iteratorIPPN12WPEFramework10PluginHost11IDispatcher9ICallbackESt6vectorIS6_SaIS6_EEEESB_ET1_T0_SD_SC_
FNDA:0,_ZSt13__copy_move_aILb1EN9__gnu_cxx17__normal_iteratorIPSt4pairIjNSt7__cxx1112basic_stringIcSt11char_traitsIcESaIcEEEESt6vectorIS9_SaIS9_EEEESE_ET1_T0_SG_SF_
FNDA:0,_ZSt4moveIN9__gnu_cxx17__normal_iteratorIPPN12WPEFramework10PluginHost11IDispatcher9ICallbackESt6vectorIS6_SaIS6_EEEESB_ET0_T_SD_SC_
FNDA:0,_ZSt4moveIN9__gnu_cxx17__normal_iteratorIPSt4pairIjNSt7__cxx1112basic_stringIcSt11char_traitsIcESaIcEEEESt6vectorIS9_SaIS9_EEEESE_ET0_T_SG_SF_
FNF:32
FNH:8
DA:233,443
DA:238,443
DA:239,4
DA:240,439
DA:257,4
DA:262,4
DA:263,4
DA:264,0
DA:316,24
DA:318,24
DA:331,0
DA:332,0
DA:408,0
DA:411,0
DA:413,0
DA:414,0
DA:415,0
DA:417,0
DA:422,0
DA:423,0
DA:433,0
DA:435,0
DA:436,0
DA:437,0
DA:438,0
DA:440,0
DA:441,0
DA:497,0
DA:506,0
DA:532,0
DA:533,0
DA:538,0
DA:540,0
DA:543,0
DA:657,0
DA:665,0
DA:666,0
DA:2052,2
DA:2055,2
DA:2056,0
DA:2057,2
DA:2064,655
DA:2068,655
DA:2070,655
DA:2072,635
DA:2073,635
DA:2074,0
DA:2076,0
DA:2077,0
DA:2078,0
DA:2080,0
DA:2081,0
DA:2082,0
DA:2084,0
DA:2085,0
DA:2086,0
DA:2089,20
DA:2091,0
DA:2092,0
DA:2093,0
DA:2094,0
DA:2096,20
DA:2097,20
DA:2098,20
DA:2099,0
DA:2101,0
DA:2102,0
DA:2103,0
DA:2104,0
DA:2106,0
DA:2108,0
DA:2115,657
DA:2117,657
DA:2118,1312
LF:74
LH:24
end_of_record
TN:
SF:/usr/include/c++/13/bits/stl_construct.h
FN:109,120,_ZSt10_ConstructINSt7__cxx1112basic_stringIcSt11char_traitsIcESaIcEEEJRKS5_EEvPT_DpOT0_
FN:146,153,_ZSt8_DestroyINSt7__cxx1112basic_stringIcSt11char_traitsIcESaIcEEEEvPT_
FN:146,153,_ZSt8_DestroyISt4pairIjNSt7__cxx1112basic_stringIcSt11char_traitsIcESaIcEEEEEvPT_
FN:160,164,_ZNSt12_Destroy_auxILb0EE9__destroyIPNSt7__cxx1112basic_stringIcSt11char_traitsIcESaIcEEEEEvT_S9_
FN:160,164,_ZNSt12_Destroy_auxILb0EE9__destroyIPSt4pairIjNSt7__cxx1112basic_stringIcSt11char_traitsIcESaIcEEEEEEvT_SB_
FN:172,172,_ZNSt12_Destroy_auxILb1EE9__destroyIPPN12WPEFramework10PluginHost11IDispatcher9ICallbackEEEvT_S8_
FN:182,197,_ZSt8_DestroyIPNSt7__cxx1112basic_stringIcSt11char_traitsIcESaIcEEEEvT_S7_
FN:182,197,_ZSt8_DestroyIPPN12WPEFramework10PluginHost11IDispatcher9ICallbackEEvT_S6_
FN:182,197,_ZSt8_DestroyIPSt4pairIjNSt7__cxx1112basic_stringIcSt11char_traitsIcESaIcEEEEEvT_S9_
FNDA:10,_ZSt10_ConstructINSt7__cxx1112basic_stringIcSt11char_traitsIcESaIcEEEJRKS5_EEvPT_DpOT0_
FNDA:14,_ZSt8_DestroyINSt7__cxx1112basic_stringIcSt11char_traitsIcESaIcEEEEvPT_
FNDA:0,_ZSt8_DestroyISt4pairIjNSt7__cxx1112basic_stringIcSt11char_traitsIcESaIcEEEEEvPT_
FNDA:15,_ZNSt12_Destroy_auxILb0EE9__destroyIPNSt7__cxx1112basic_stringIcSt11char_traitsIcESaIcEEEEEvT_S9_
FNDA:0,_ZNSt12_Destroy_auxILb0EE9__destroyIPSt4pairIjNSt7__cxx1112basic_stringIcSt11char_traitsIcESaIcEEEEEEvT_SB_
FNDA:0,_ZNSt12_Destroy_auxILb1EE9__destroyIPPN12WPEFramework10PluginHost11IDispatcher9ICallbackEEEvT_S8_
FNDA:15,_ZSt8_DestroyIPNSt7__cxx1112basic_stringIcSt11char_traitsIcESaIcEEEEvT_S7_
FNDA:0,_ZSt8_DestroyIPPN12WPEFramework10PluginHost11IDispatcher9ICallbackEEvT_S6_
FNDA:0,_ZSt8_DestroyIPSt4pairIjNSt7__cxx1112basic_stringIcSt11char_traitsIcESaIcEEEEEvT_S9_
FNF:9
FNH:4
DA:109,10
DA:119,10
DA:120,10
DA:146,14
DA:151,14
DA:153,14
DA:160,15
DA:162,29
DA:163,14
DA:164,15
DA:172,0
DA:182,15
DA:196,15
DA:197,15
LF:14
LH:13
end_of_record
TN:
SF:/usr/include/c++/13/bits/stl_function.h
FN:377,378,_ZNKSt8equal_toINSt7__cxx1112basic_stringIcSt11char_traitsIcESaIcEEEEclERKS5_S8_
FN:377,378,_ZNKSt8equal_toIjEclERKjS2_
FNDA:5747,_ZNKSt8equal_toINSt7__cxx1112basic_stringIcSt11char_traitsIcESaIcEEEEclERKS5_S8_
FNDA:2,_ZNKSt8equal_toIjEclERKjS2_
FNF:2
FNH:2
DA:377,5749
DA:378,5749
LF:2
LH:2
end_of_record
TN:
SF:/usr/include/c++/13/bits/stl_iterator.h
FN:1076,1077,_ZN9__gnu_cxx17__normal_iteratorIPKNSt7__cxx1112basic_stringIcSt11char_traitsIcESaIcEEESt6vectorIS6_SaIS6_EEEC2ERKS8_
FN:1076,1077,_ZN9__gnu_cxx17__normal_iteratorIPKPN12WPEFramework10PluginHost11IDispatcher9ICallbackESt6vectorIS5_SaIS5_EEEC2ERKS7_
FN:1076,1077,_ZN9__gnu_cxx17__normal_iteratorIPKSt4pairIjNSt7__cxx1112basic_stringIcSt11char_traitsIcESaIcEEEESt6vectorIS8_SaIS8_EEEC2ERKSA_
FN:1076,1077,_ZN9__gnu_cxx17__normal_iteratorIPKhSt6vectorIhSaIhEEEC2ERKS2_
FN:1076,1077,_ZN9__gnu_cxx17__normal_iteratorIPNSt7__cxx1112basic_stringIcSt11char_traitsIcESaIcEEESt6vectorIS6_SaIS6_EEEC2ERKS7_
FN:1076,1077,_ZN9__gnu_cxx17__normal_iteratorIPPN12WPEFramework10PluginHost11IDispatcher9ICallbackESt6vectorIS5_SaIS5_EEEC2ERKS6_
FN:1076,1077,_ZN9__gnu_cxx17__normal_iteratorIPSt4pairIjNSt7__cxx1112basic_stringIcSt11char_traitsIcESaIcEEEESt6vectorIS8_SaIS8_EEEC2ERKS9_
FN:1083,1094,_ZN9__gnu_cxx17__normal_iteratorIPKPN12WPEFramework10PluginHost11IDispatcher9ICallbackESt6vectorIS5_SaIS5_EEEC2IPS5_vEERKNS0_IT_SA_EE
FN:1083,1094,_ZN9__gnu_cxx17__normal_iteratorIPKSt4pairIjNSt7__cxx1112basic_stringIcSt11char_traitsIcESaIcEEEESt6vectorIS8_SaIS8_EEEC2IPS8_vEERKNS0_IT_SD_EE
FN:1083,1094,_ZN9__gnu_cxx17__normal_iteratorIPKcNSt7__cxx1112basic_stringIcSt11char_traitsIcESaIcEEEEC2IPcvEERKNS0_IT_S8_EE
FN:1099,1100,_ZNK9__gnu_cxx17__normal_iteratorIPKNSt7__cxx1112basic_stringIcSt11char_traitsIcESaIcEEESt6vectorIS6_SaIS6_EEEdeEv
FN:1099,1100,_ZNK9__gnu_cxx17__normal_iteratorIPKhSt6vectorIhSaIhEEEdeEv
FN:1099,1100,_ZNK9__gnu_cxx17__normal_iteratorIPNSt7__cxx1112basic_stringIcSt11char_traitsIcESaIcEEESt6vectorIS6_SaIS6_EEEdeEv
FN:1099,1100,_ZNK9__gnu_cxx17__normal_iteratorIPPN12WPEFramework10PluginHost11IDispatcher9ICallbackESt6vectorIS5_SaIS5_EEEdeEv
FN:1099,1100,_ZNK9__gnu_cxx17__normal_iteratorIPSt4pairIjNSt7__cxx1112basic_stringIcSt11char_traitsIcESaIcEEEESt6vectorIS8_SaIS8_EEEdeEv
FN:1099,1100,_ZNK9__gnu_cxx17__normal_iteratorIPcNSt7__cxx1112basic_stringIcSt11char_traitsIcESaIcEEEEdeEv
FN:1104,1105,_ZNK9__gnu_cxx17__normal_iteratorIPSt4pairIjNSt7__cxx1112basic_stringIcSt11char_traitsIcESaIcEEEESt6vectorIS8_SaIS8_EEEptEv
FN:1109,1113,_ZN9__gnu_cxx17__normal_iteratorIPKNSt7__cxx1112basic_stringIcSt11char_traitsIcESaIcEEESt6vectorIS6_SaIS6_EEEppEv
FN:1109,1113,_ZN9__gnu_cxx17__normal_iteratorIPKhSt6vectorIhSaIhEEEppEv
FN:1109,1113,_ZN9__gnu_cxx17__normal_iteratorIPPN12WPEFramework10PluginHost11IDispatcher9ICallbackESt6vectorIS5_SaIS5_EEEppEv
FN:1109,1113,_ZN9__gnu_cxx17__normal_iteratorIPSt4pairIjNSt7__cxx1112basic_stringIcSt11char_traitsIcESaIcEEEESt6vectorIS8_SaIS8_EEEppEv
FN:1109,1113,_ZN9__gnu_cxx17__normal_iteratorIPcNSt7__cxx1112basic_stringIcSt11char_traitsIcESaIcEEEEppEv
FN:1117,1118,_ZN9__gnu_cxx17__normal_iteratorIPSt4pairIjNSt7__cxx1112basic_stringIcSt11char_traitsIcESaIcEEEESt6vectorIS8_SaIS8_EEEppEi
FN:1123,1127,_ZN9__gnu_cxx17__normal_iteratorIPcNSt7__cxx1112basic_stringIcSt11char_traitsIcESaIcEEEEmmEv
FN:1147,1148,_ZNK9__gnu_cxx17__normal_iteratorIPPN12WPEFramework10PluginHost11IDispatcher9ICallbackESt6vectorIS5_SaIS5_EEEplEl
FN:1147,1148,_ZNK9__gnu_cxx17__normal_iteratorIPSt4pairIjNSt7__cxx1112basic_stringIcSt11char_traitsIcESaIcEEEESt6vectorIS8_SaIS8_EEEplEl
FN:1157,1158,_ZNK9__gnu_cxx17__normal_iteratorIPNSt7__cxx1112basic_stringIcSt11char_traitsIcESaIcEEESt6vectorIS6_SaIS6_EEEmiEl
FN:1157,1158,_ZNK9__gnu_cxx17__normal_iteratorIPPN12WPEFramework10PluginHost11IDispatcher9ICallbackESt6vectorIS5_SaIS5_EEEmiEl
FN:1157,1158,_ZNK9__gnu_cxx17__normal_iteratorIPSt4pairIjNSt7__cxx1112basic_stringIcSt11char_traitsIcESaIcEEEESt6vectorIS8_SaIS8_EEEmiEl
FN:1162,1163,_ZNK9__gnu_cxx17__normal_iteratorIPKNSt7__cxx1112basic_stringIcSt11char_traitsIcESaIcEEESt6vectorIS6_SaIS6_EEE4baseEv
FN:1162,1163,_ZNK9__gnu_cxx17__normal_iteratorIPKPN12WPEFramework10PluginHost11IDispatcher9ICallbackESt6vectorIS5_SaIS5_EEE4baseEv
FN:1162,1163,_ZNK9__gnu_cxx17__normal_iteratorIPKSt4pairIjNSt7__cxx1112basic_stringIcSt11char_traitsIcESaIcEEEESt6vectorIS8_SaIS8_EEE4baseEv
FN:1162,1163,_ZNK9__gnu_cxx17__normal_iteratorIPKhSt6vectorIhSaIhEEE4baseEv
FN:1162,1163,_ZNK9__gnu_cxx17__normal_iteratorIPNSt7__cxx1112basic_stringIcSt11char_traitsIcESaIcEEESt6vectorIS6_SaIS6_EEE4baseEv
FN:1162,1163,_ZNK9__gnu_cxx17__normal_iteratorIPPN12WPEFramework10PluginHost11IDispatcher9ICallbackESt6vectorIS5_SaIS5_EEE4baseEv
FN:1162,1163,_ZNK9__gnu_cxx17__normal_iteratorIPSt4pairIjNSt7__cxx1112basic_stringIcSt11char_traitsIcESaIcEEEESt6vectorIS8_SaIS8_EEE4baseEv
FN:1162,1163,_ZNK9__gnu_cxx17__normal_iteratorIPcNSt7__cxx1112basic_stringIcSt11char_traitsIcESaIcEEEE4baseEv
FN:1225,1228,_ZN9__gnu_cxxeqIPKPN12WPEFramework10PluginHost11IDispatcher9ICallbackESt6vectorIS5_SaIS5_EEEEbRKNS_17__normal_iteratorIT_T0_EESG_
FN:1225,1228,_ZN9__gnu_cxxeqIPKSt4pairIjNSt7__cxx1112basic_stringIcSt11char_traitsIcESaIcEEEESt6vectorIS8_SaIS8_EEEEbRKNS_17__normal_iteratorIT_T0_EESJ_
FN:1225,1228,_ZN9__gnu_cxxeqIPPN12WPEFramework10PluginHost11IDispatcher9ICallbackESt6vectorIS5_SaIS5_EEEEbRKNS_17__normal_iteratorIT_T0_EESF_
FN:1225,1228,_ZN9__gnu_cxxeqIPSt4pairIjNSt7__cxx1112basic_stringIcSt11char_traitsIcESaIcEEEESt6vectorIS8_SaIS8_EEEEbRKNS_17__normal_iteratorIT_T0_EESI_
FN:1241,1244,_ZN9__gnu_cxxneIPKNSt7__cxx1112basic_stringIcSt11char_traitsIcESaIcEEESt6vectorIS6_SaIS6_EEEEbRKNS_17__normal_iteratorIT_T0_EESH_
FN:1241,1244,_ZN9__gnu_cxxneIPKhSt6vectorIhSaIhEEEEbRKNS_17__normal_iteratorIT_T0_EESB_
FN:1241,1244,_ZN9__gnu_cxxneIPPN12WPEFramework10PluginHost11IDispatcher9ICallbackESt6vectorIS5_SaIS5_EEEEbRKNS_17__normal_iteratorIT_T0_EESF_
FN:1241,1244,_ZN9__gnu_cxxneIPSt4pairIjNSt7__cxx1112basic_stringIcSt11char_traitsIcESaIcEEEESt6vectorIS8_SaIS8_EEEEbRKNS_17__normal_iteratorIT_T0_EESI_
FN:1241,1244,_ZN9__gnu_cxxneIPcNSt7__cxx1112basic_stringIcSt11char_traitsIcESaIcEEEEEbRKNS_17__normal_iteratorIT_T0_EESD_
FN:1334,1337,_ZN9__gnu_cxxmiIPKPN12WPEFramework10PluginHost11IDispatcher9ICallbackESt6vectorIS5_SaIS5_EEEENS_17__normal_iteratorIT_T0_E15difference_typeERKSE_SH_
FN:1334,1337,_ZN9__gnu_cxxmiIPKSt4pairIjNSt7__cxx1112basic_stringIcSt11char_traitsIcESaIcEEEESt6vectorIS8_SaIS8_EEEENS_17__normal_iteratorIT_T0_E15difference_typeERKSH_SK_
FN:1334,1337,_ZN9__gnu_cxxmiIPKhSt6vectorIhSaIhEEEENS_17__normal_iteratorIT_T0_E15difference_typeERKS9_SC_
FN:1334,1337,_ZN9__gnu_cxxmiIPNSt7__cxx1112basic_stringIcSt11char_traitsIcESaIcEEESt6vectorIS6_SaIS6_EEEENS_17__normal_iteratorIT_T0_E15difference_typeERKSE_SH_
FN:1334,1337,_ZN9__gnu_cxxmiIPPN12WPEFramework10PluginHost11IDispatcher9ICallbackESt6vectorIS5_SaIS5_EEEENS_17__normal_iteratorIT_T0_E15difference_typeERKSD_SG_
FN:1334,1337,_ZN9__gnu_cxxmiIPSt4pairIjNSt7__cxx1112basic_stringIcSt11char_traitsIcESaIcEEEESt6vectorIS8_SaIS8_EEEENS_17__normal_iteratorIT_T0_E15difference_typeERKSG_SJ_
FN:1334,1337,_ZN9__gnu_cxxmiIPcNSt7__cxx1112basic_stringIcSt11char_traitsIcESaIcEEEEENS_17__normal_iteratorIT_T0_E15difference_typeERKSB_SE_
FN:1357,1359,_ZSt12__niter_baseIPPN12WPEFramework10PluginHost11IDispatcher9ICallbackESt6vectorIS4_SaIS4_EEET_N9__gnu_cxx17__normal_iteratorIS9_T0_EE
FN:1357,1359,_ZSt12__niter_baseIPSt4pairIjNSt7__cxx1112basic_stringIcSt11char_traitsIcESaIcEEEESt6vectorIS7_SaIS7_EEET_N9__gnu_cxx17__normal_iteratorISC_T0_EE
FN:204,207,_ZNSt16reverse_iteratorIN9__gnu_cxx17__normal_iteratorIPcNSt7__cxx1112basic_stringIcSt11char_traitsIcESaIcEEEEEEC2ERKSA_
FN:248,250,_ZNKSt16reverse_iteratorIN9__gnu_cxx17__normal_iteratorIPcNSt7__cxx1112basic_stringIcSt11char_traitsIcESaIcEEEEEE4baseEv
FN:264,268,_ZNKSt16reverse_iteratorIN9__gnu_cxx17__normal_iteratorIPcNSt7__cxx1112basic_stringIcSt11char_traitsIcESaIcEEEEEEdeEv
FN:296,300,_ZNSt16reverse_iteratorIN9__gnu_cxx17__normal_iteratorIPcNSt7__cxx1112basic_stringIcSt11char_traitsIcESaIcEEEEEEppEv
FN:625,628,_ZStmiIN9__gnu_cxx17__normal_iteratorIPcNSt7__cxx1112basic_stringIcSt11char_traitsIcESaIcEEEEES9_EDTmicldtfp0_4baseEcldtfp_4baseEERKSt16reverse_iteratorIT_ERKSB_IT0_E
FNDA:14,_ZN9__gnu_cxx17__normal_iteratorIPKNSt7__cxx1112basic_stringIcSt11char_traitsIcESaIcEEESt6vectorIS6_SaIS6_EEEC2ERKS8_
FNDA:0,_ZN9__gnu_cxx17__normal_iteratorIPKPN12WPEFramework10PluginHost11IDispatcher9ICallbackESt6vectorIS5_SaIS5_EEEC2ERKS7_
FNDA:0,_ZN9__gnu_cxx17__normal_iteratorIPKSt4pairIjNSt7__cxx1112basic_stringIcSt11char_traitsIcESaIcEEEESt6vectorIS8_SaIS8_EEEC2ERKSA_
FNDA:0,_ZN9__gnu_cxx17__normal_iteratorIPKhSt6vectorIhSaIhEEEC2ERKS2_
FNDA:10,_ZN9__gnu_cxx17__normal_iteratorIPNSt7__cxx1112basic_stringIcSt11char_traitsIcESaIcEEESt6vectorIS6_SaIS6_EEEC2ERKS7_
FNDA:0,_ZN9__gnu_cxx17__normal_iteratorIPPN12WPEFramework10PluginHost11IDispatcher9ICallbackESt6vectorIS5_SaIS5_EEEC2ERKS6_
FNDA:0,_ZN9__gnu_cxx17__normal_iteratorIPSt4pairIjNSt7__cxx1112basic_stringIcSt11char_traitsIcESaIcEEEESt6vectorIS8_SaIS8_EEEC2ERKS9_
FNDA:0,_ZN9__gnu_cxx17__normal_iteratorIPKPN12WPEFramework10PluginHost11IDispatcher9ICallbackESt6vectorIS5_SaIS5_EEEC2IPS5_vEERKNS0_IT_SA_EE
FNDA:0,_ZN9__gnu_cxx17__normal_iteratorIPKSt4pairIjNSt7__cxx1112basic_stringIcSt11char_traitsIcESaIcEEEESt6vectorIS8_SaIS8_EEEC2IPS8_vEERKNS0_IT_SD_EE
FNDA:1310,_ZN9__gnu_cxx17__normal_iteratorIPKcNSt7__cxx1112basic_stringIcSt11char_traitsIcESaIcEEEEC2IPcvEERKNS0_IT_S8_EE
FNDA:4,_ZNK9__gnu_cxx17__normal_iteratorIPKNSt7__cxx1112basic_stringIcSt11char_traitsIcESaIcEEESt6vectorIS6_SaIS6_EEEdeEv
FNDA:0,_ZNK9__gnu_cxx17__normal_iteratorIPKhSt6vectorIhSaIhEEEdeEv
FNDA:1,_ZNK9__gnu_cxx17__normal_iteratorIPNSt7__cxx1112basic_stringIcSt11char_traitsIcESaIcEEESt6vectorIS6_SaIS6_EEEdeEv
FNDA:0,_ZNK9__gnu_cxx17__normal_iteratorIPPN12WPEFramework10PluginHost11IDispatcher9ICallbackESt6vectorIS5_SaIS5_EEEdeEv
FNDA:0,_ZNK9__gnu_cxx17__normal_iteratorIPSt4pairIjNSt7__cxx1112basic_stringIcSt11char_traitsIcESaIcEEEESt6vectorIS8_SaIS8_EEEdeEv
FNDA:21655,_ZNK9__gnu_cxx17__normal_iteratorIPcNSt7__cxx1112basic_stringIcSt11char_traitsIcESaIcEEEEdeEv
FNDA:0,_ZNK9__gnu_cxx17__normal_iteratorIPSt4pairIjNSt7__cxx1112basic_stringIcSt11char_traitsIcESaIcEEEESt6vectorIS8_SaIS8_EEEptEv
FNDA:4,_ZN9__gnu_cxx17__normal_iteratorIPKNSt7__cxx1112basic_stringIcSt11char_traitsIcESaIcEEESt6vectorIS6_SaIS6_EEEppEv
FNDA:0,_ZN9__gnu_cxx17__normal_iteratorIPKhSt6vectorIhSaIhEEEppEv
FNDA:0,_ZN9__gnu_cxx17__normal_iteratorIPPN12WPEFramework10PluginHost11IDispatcher9ICallbackESt6vectorIS5_SaIS5_EEEppEv
FNDA:0,_ZN9__gnu_cxx17__normal_iteratorIPSt4pairIjNSt7__cxx1112basic_stringIcSt11char_traitsIcESaIcEEEESt6vectorIS8_SaIS8_EEEppEv
FNDA:21000,_ZN9__gnu_cxx17__normal_iteratorIPcNSt7__cxx1112basic_stringIcSt11char_traitsIcESaIcEEEEppEv
FNDA:0,_ZN9__gnu_cxx17__normal_iteratorIPSt4pairIjNSt7__cxx1112basic_stringIcSt11char_traitsIcESaIcEEEESt6vectorIS8_SaIS8_EEEppEi
FNDA:655,_ZN9__gnu_cxx17__normal_iteratorIPcNSt7__cxx1112basic_stringIcSt11char_traitsIcESaIcEEEEmmEv
FNDA:0,_ZNK9__gnu_cxx17__normal_iteratorIPPN12WPEFramework10PluginHost11IDispatcher9ICallbackESt6vectorIS5_SaIS5_EEEplEl
FNDA:0,_ZNK9__gnu_cxx17__normal_iteratorIPSt4pairIjNSt7__cxx1112basic_stringIcSt11char_traitsIcESaIcEEEESt6vectorIS8_SaIS8_EEEplEl
FNDA:1,_ZNK9__gnu_cxx17__normal_iteratorIPNSt7__cxx1112basic_stringIcSt11char_traitsIcESaIcEEESt6vectorIS6_SaIS6_EEEmiEl
FNDA:0,_ZNK9__gnu_cxx17__normal_iteratorIPPN12WPEFramework10PluginHost11IDispatcher9ICallbackESt6vectorIS5_SaIS5_EEEmiEl
FNDA:0,_ZNK9__gnu_cxx17__normal_iteratorIPSt4pairIjNSt7__cxx1112basic_stringIcSt11char_traitsIcESaIcEEEESt6vectorIS8_SaIS8_EEEmiEl
FNDA:22,_ZNK9__gnu_cxx17__normal_iteratorIPKNSt7__cxx1112basic_stringIcSt11char_traitsIcESaIcEEESt6vectorIS6_SaIS6_EEE4baseEv
FNDA:0,_ZNK9__gnu_cxx17__normal_iteratorIPKPN12WPEFramework10PluginHost11IDispatcher9ICallbackESt6vectorIS5_SaIS5_EEE4baseEv
FNDA:0,_ZNK9__gnu_cxx17__normal_iteratorIPKSt4pairIjNSt7__cxx1112basic_stringIcSt11char_traitsIcESaIcEEEESt6vectorIS8_SaIS8_EEE4baseEv
FNDA:0,_ZNK9__gnu_cxx17__normal_iteratorIPKhSt6vectorIhSaIhEEE4baseEv
FNDA:16,_ZNK9__gnu_cxx17__normal_iteratorIPNSt7__cxx1112basic_stringIcSt11char_traitsIcESaIcEEESt6vectorIS6_SaIS6_EEE4baseEv
FNDA:0,_ZNK9__gnu_cxx17__normal_iteratorIPPN12WPEFramework10PluginHost11IDispatcher9ICallbackESt6vectorIS5_SaIS5_EEE4baseEv
FNDA:0,_ZNK9__gnu_cxx17__normal_iteratorIPSt4pairIjNSt7__cxx1112basic_stringIcSt11char_traitsIcESaIcEEEESt6vectorIS8_SaIS8_EEE4baseEv
FNDA:24464,_ZNK9__gnu_cxx17__normal_iteratorIPcNSt7__cxx1112basic_stringIcSt11char_traitsIcESaIcEEEE4baseEv
FNDA:0,_ZN9__gnu_cxxeqIPKPN12WPEFramework10PluginHost11IDispatcher9ICallbackESt6vectorIS5_SaIS5_EEEEbRKNS_17__normal_iteratorIT_T0_EESG_
FNDA:0,_ZN9__gnu_cxxeqIPKSt4pairIjNSt7__cxx1112basic_stringIcSt11char_traitsIcESaIcEEEESt6vectorIS8_SaIS8_EEEEbRKNS_17__normal_iteratorIT_T0_EESJ_
FNDA:0,_ZN9__gnu_cxxeqIPPN12WPEFramework10PluginHost11IDispatcher9ICallbackESt6vectorIS5_SaIS5_EEEEbRKNS_17__normal_iteratorIT_T0_EESF_
FNDA:0,_ZN9__gnu_cxxeqIPSt4pairIjNSt7__cxx1112basic_stringIcSt11char_traitsIcESaIcEEEESt6vectorIS8_SaIS8_EEEEbRKNS_17__normal_iteratorIT_T0_EESI_
FNDA:8,_ZN9__gnu_cxxneIPKNSt7__cxx1112basic_stringIcSt11char_traitsIcESaIcEEESt6vectorIS6_SaIS6_EEEEbRKNS_17__normal_iteratorIT_T0_EESH_
FNDA:0,_ZN9__gnu_cxxneIPKhSt6vectorIhSaIhEEEEbRKNS_17__normal_iteratorIT_T0_EESB_
FNDA:0,_ZN9__gnu_cxxneIPPN12WPEFramework10PluginHost11IDispatcher9ICallbackESt6vectorIS5_SaIS5_EEEEbRKNS_17__normal_iteratorIT_T0_EESF_
FNDA:0,_ZN9__gnu_cxxneIPSt4pairIjNSt7__cxx1112basic_stringIcSt11char_traitsIcESaIcEEEESt6vectorIS8_SaIS8_EEEEbRKNS_17__normal_iteratorIT_T0_EESI_
FNDA:10902,_ZN9__gnu_cxxneIPcNSt7__cxx1112basic_stringIcSt11char_traitsIcESaIcEEEEEbRKNS_17__normal_iteratorIT_T0_EESD_
FNDA:0,_ZN9__gnu_cxxmiIPKPN12WPEFramework10PluginHost11IDispatcher9ICallbackESt6vectorIS5_SaIS5_EEEENS_17__normal_iteratorIT_T0_E15difference_typeERKSE_SH_
FNDA:0,_ZN9__gnu_cxxmiIPKSt4pairIjNSt7__cxx1112basic_stringIcSt11char_traitsIcESaIcEEEESt6vectorIS8_SaIS8_EEEENS_17__normal_iteratorIT_T0_E15difference_typeERKSH_SK_
FNDA:0,_ZN9__gnu_cxxmiIPKhSt6vectorIhSaIhEEEENS_17__normal_iteratorIT_T0_E15difference_typeERKS9_SC_
FNDA:4,_ZN9__gnu_cxxmiIPNSt7__cxx1112basic_stringIcSt11char_traitsIcESaIcEEESt6vectorIS6_SaIS6_EEEENS_17__normal_iteratorIT_T0_E15difference_typeERKSE_SH_
FNDA:0,_ZN9__gnu_cxxmiIPPN12WPEFramework10PluginHost11IDispatcher9ICallbackESt6vectorIS5_SaIS5_EEEENS_17__normal_iteratorIT_T0_E15difference_typeERKSD_SG_
FNDA:0,_ZN9__gnu_cxxmiIPSt4pairIjNSt7__cxx1112basic_stringIcSt11char_traitsIcESaIcEEEESt6vectorIS8_SaIS8_EEEENS_17__normal_iteratorIT_T0_E15difference_typeERKSG_SJ_
FNDA:675,_ZN9__gnu_cxxmiIPcNSt7__cxx1112basic_stringIcSt11char_traitsIcESaIcEEEEENS_17__normal_iteratorIT_T0_E15difference_typeERKSB_SE_
FNDA:0,_ZSt12__niter_baseIPPN12WPEFramework10PluginHost11IDispatcher9ICallbackESt6vectorIS4_SaIS4_EEET_N9__gnu_cxx17__normal_iteratorIS9_T0_EE
FNDA:0,_ZSt12__niter_baseIPSt4pairIjNSt7__cxx1112basic_stringIcSt11char_traitsIcESaIcEEEESt6vectorIS7_SaIS7_EEET_N9__gnu_cxx17__normal_iteratorISC_T0_EE
FNDA:3930,_ZNSt16reverse_iteratorIN9__gnu_cxx17__normal_iteratorIPcNSt7__cxx1112basic_stringIcSt11char_traitsIcESaIcEEEEEEC2ERKSA_
FNDA:2005,_ZNKSt16reverse_iteratorIN9__gnu_cxx17__normal_iteratorIPcNSt7__cxx1112basic_stringIcSt11char_traitsIcESaIcEEEEEE4baseEv
FNDA:655,_ZNKSt16reverse_iteratorIN9__gnu_cxx17__normal_iteratorIPcNSt7__cxx1112basic_stringIcSt11char_traitsIcESaIcEEEEEEdeEv
FNDA:0,_ZNSt16reverse_iteratorIN9__gnu_cxx17__normal_iteratorIPcNSt7__cxx1112basic_stringIcSt11char_traitsIcESaIcEEEEEEppEv
FNDA:675,_ZStmiIN9__gnu_cxx17__normal_iteratorIPcNSt7__cxx1112basic_stringIcSt11char_traitsIcESaIcEEEEES9_EDTmicldtfp0_4baseEcldtfp_4baseEERKSt16reverse_iteratorIT_ERKSB_IT0_E
FNF:60
FNH:21
DA:204,3930
DA:206,3930
DA:207,3930
DA:248,2005
DA:250,2005
DA:264,655
DA:266,655
DA:267,655
DA:296,0
DA:298,0
DA:299,0
DA:625,675
DA:628,675
DA:1076,24
DA:1077,24
DA:1083,1310
DA:1094,1310
DA:1099,21660
DA:1100,21660
DA:1104,0
DA:1105,0
DA:1109,21004
DA:1111,21004
DA:1112,21004
DA:1117,0
DA:1118,0
DA:1123,655
DA:1125,655
DA:1126,655
DA:1147,0
DA:1148,0
DA:1157,1
DA:1158,1
DA:1162,24502
DA:1163,24502
DA:1225,0
DA:1228,0
DA:1241,10910
DA:1244,10910
DA:1334,679
DA:1337,679
DA:1357,0
DA:1359,0
LF:43
LH:30
end_of_record
TN:
SF:/usr/include/c++/13/bits/stl_iterator_base_funcs.h
FNF:0
FNH:0
DA:106,8557
DA:151,17114
DA:152,17114
LF:3
LH:3
end_of_record
TN:
SF:/usr/include/c++/13/bits/stl_iterator_base_types.h
FNF:0
FNH:0
DA:240,9216
LF:1
LH:1
end_of_record
TN:
SF:/usr/include/c++/13/bits/stl_list.h
FN:1022,1023,_ZNSt7__cxx114listIN12WPEFramework4Core10ThreadPool8ExecutorESaIS4_EE5beginEv
FN:1022,1023,_ZNSt7__cxx114listIN12WPEFramework4Core14callstack_infoESaIS3_EE5beginEv
FN:1022,1023,_ZNSt7__cxx114listIN12WPEFramework4Core7JSONRPC7HandlerESaIS4_EE5beginEv
FN:1022,1023,_ZNSt7__cxx114listIN12WPEFramework4Core9ProxyTypeINS2_9IDispatchEEESaIS5_EE5beginEv
FN:1022,1023,_ZNSt7__cxx114listIN12WPEFramework4Core9TimerTypeINS2_10WorkerPool5TimerEE9TimedInfoIS5_EESaIS8_EE5beginEv
FN:1022,1023,_ZNSt7__cxx114listIPN12WPEFramework8Exchange20IAppGatewayResponder13INotificationESaIS5_EE5beginEv
FN:1022,1023,_ZNSt7__cxx114listISt4pairIPKcPN12WPEFramework4Core4JSON8IElementEESaIS9_EE5beginEv
FN:1032,1033,_ZNKSt7__cxx114listIN12WPEFramework4Core9ProxyTypeINS2_9IDispatchEEESaIS5_EE5beginEv
FN:1032,1033,_ZNKSt7__cxx114listISt4pairIPKcPN12WPEFramework4Core4JSON8IElementEESaIS9_EE5beginEv
FN:1042,1043,_ZNSt7__cxx114listIN12WPEFramework4Core10ThreadPool8ExecutorESaIS4_EE3endEv
FN:1042,1043,_ZNSt7__cxx114listIN12WPEFramework4Core14callstack_infoESaIS3_EE3endEv
FN:1042,1043,_ZNSt7__cxx114listIN12WPEFramework4Core7JSONRPC7HandlerESaIS4_EE3endEv
FN:1042,1043,_ZNSt7__cxx114listIN12WPEFramework4Core9ProxyTypeINS2_9IDispatchEEESaIS5_EE3endEv
FN:1042,1043,_ZNSt7__cxx114listIN12WPEFramework4Core9TimerTypeINS2_10WorkerPool5TimerEE9TimedInfoIS5_EESaIS8_EE3endEv
FN:1042,1043,_ZNSt7__cxx114listIPN12WPEFramework8Exchange20IAppGatewayResponder13INotificationESaIS5_EE3endEv
FN:1042,1043,_ZNSt7__cxx114listISt4pairIPKcPN12WPEFramework4Core4JSON8IElementEESaIS9_EE3endEv
FN:1052,1053,_ZNKSt7__cxx114listIN12WPEFramework4Core9ProxyTypeINS2_9IDispatchEEESaIS5_EE3endEv
FN:1052,1053,_ZNKSt7__cxx114listISt4pairIPKcPN12WPEFramework4Core4JSON8IElementEESaIS9_EE3endEv
FN:110,111,_ZNSt8__detail17_List_node_headerC2Ev
FN:1103,1104,_ZNKSt7__cxx114listIN12WPEFramework4Core10ThreadPool8ExecutorESaIS4_EE6cbeginEv
FN:1103,1104,_ZNKSt7__cxx114listIN12WPEFramework4Core9ProxyTypeINS2_9IDispatchEEESaIS5_EE6cbeginEv
FN:1103,1104,_ZNKSt7__cxx114listIN12WPEFramework4Core9TimerTypeINS2_10WorkerPool5TimerEE9TimedInfoIS5_EESaIS8_EE6cbeginEv
FN:1113,1114,_ZNKSt7__cxx114listIN12WPEFramework4Core10ThreadPool8ExecutorESaIS4_EE4cendEv
FN:1113,1114,_ZNKSt7__cxx114listIN12WPEFramework4Core9ProxyTypeINS2_9IDispatchEEESaIS5_EE4cendEv
FN:1113,1114,_ZNKSt7__cxx114listIN12WPEFramework4Core9TimerTypeINS2_10WorkerPool5TimerEE9TimedInfoIS5_EESaIS8_EE4cendEv
FN:1143,1144,_ZNKSt7__cxx114listIN12WPEFramework4Core9ProxyTypeINS2_9IDispatchEEESaIS5_EE5emptyEv
FN:1143,1144,_ZNKSt7__cxx114listIN12WPEFramework4Core9TimerTypeINS2_10WorkerPool5TimerEE9TimedInfoIS5_EESaIS8_EE5emptyEv
FN:1143,1144,_ZNKSt7__cxx114listISt4pairIPKcPN12WPEFramework4Core4JSON8IElementEESaIS9_EE5emptyEv
FN:1149,1150,_ZNKSt7__cxx114listIN12WPEFramework4Core10ThreadPool8ExecutorESaIS4_EE4sizeEv
FN:1149,1150,_ZNKSt7__cxx114listIN12WPEFramework4Core9ProxyTypeINS2_9IDispatchEEESaIS5_EE4sizeEv
FN:1149,1150,_ZNKSt7__cxx114listIN12WPEFramework4Core9TimerTypeINS2_10WorkerPool5TimerEE9TimedInfoIS5_EESaIS8_EE4sizeEv
FN:1149,1150,_ZNKSt7__cxx114listISt4pairIPKcPN12WPEFramework4Core4JSON8IElementEESaIS9_EE4sizeEv
FN:1205,1206,_ZNSt7__cxx114listIN12WPEFramework4Core9TimerTypeINS2_10WorkerPool5TimerEE9TimedInfoIS5_EESaIS8_EE5frontEv
FN:1223,1228,_ZNSt7__cxx114listIN12WPEFramework4Core10ThreadPool8ExecutorESaIS4_EE4backEv
FN:1260,1261,_ZNSt7__cxx114listIN12WPEFramework4Core9TimerTypeINS2_10WorkerPool5TimerEE9TimedInfoIS5_EESaIS8_EE10push_frontEOS8_
FN:1291,1292,_ZNSt7__cxx114listIN12WPEFramework4Core9TimerTypeINS2_10WorkerPool5TimerEE9TimedInfoIS5_EESaIS8_EE9pop_frontEv
FN:1305,1306,_ZNSt7__cxx114listIN12WPEFramework4Core9ProxyTypeINS2_9IDispatchEEESaIS5_EE9push_backERKS5_
FN:1305,1306,_ZNSt7__cxx114listIPN12WPEFramework8Exchange20IAppGatewayResponder13INotificationESaIS5_EE9push_backERKS5_
FN:1310,1311,_ZNSt7__cxx114listIN12WPEFramework4Core9TimerTypeINS2_10WorkerPool5TimerEE9TimedInfoIS5_EESaIS8_EE9push_backEOS8_
FN:1310,1311,_ZNSt7__cxx114listISt4pairIPKcPN12WPEFramework4Core4JSON8IElementEESaIS9_EE9push_backEOS9_
FN:1319,1325,_ZNSt7__cxx114listIN12WPEFramework4Core10ThreadPool8ExecutorESaIS4_EE12emplace_backIJRS3_RPNS3_11IDispatcherERKjRPKcEEERS4_DpOT_
FN:1402,1403,_ZNSt7__cxx114listIN12WPEFramework4Core9TimerTypeINS2_10WorkerPool5TimerEE9TimedInfoIS5_EESaIS8_EE6insertESt20_List_const_iteratorIS8_EOS8_
FN:150,156,_ZNSt8__detail17_List_node_header7_M_initEv
FN:1592,1596,_ZNSt7__cxx114listIN12WPEFramework4Core10ThreadPool8ExecutorESaIS4_EE5clearEv
FN:1592,1596,_ZNSt7__cxx114listIN12WPEFramework4Core9TimerTypeINS2_10WorkerPool5TimerEE9TimedInfoIS5_EESaIS8_EE5clearEv
FN:1592,1596,_ZNSt7__cxx114listIPN12WPEFramework8Exchange20IAppGatewayResponder13INotificationESaIS5_EE5clearEv
FN:2003,2008,_ZNSt7__cxx114listIN12WPEFramework4Core10ThreadPool8ExecutorESaIS4_EE9_M_insertIJRS3_RPNS3_11IDispatcherERKjRPKcEEEvSt14_List_iteratorIS4_EDpOT_
FN:2003,2008,_ZNSt7__cxx114listIN12WPEFramework4Core9ProxyTypeINS2_9IDispatchEEESaIS5_EE9_M_insertIJRKS5_EEEvSt14_List_iteratorIS5_EDpOT_
FN:2003,2008,_ZNSt7__cxx114listIN12WPEFramework4Core9TimerTypeINS2_10WorkerPool5TimerEE9TimedInfoIS5_EESaIS8_EE9_M_insertIJS8_EEEvSt14_List_iteratorIS8_EDpOT_
FN:2003,2008,_ZNSt7__cxx114listIPN12WPEFramework8Exchange20IAppGatewayResponder13INotificationESaIS5_EE9_M_insertIJRKS5_EEEvSt14_List_iteratorIS5_EDpOT_
FN:2003,2008,_ZNSt7__cxx114listISt4pairIPKcPN12WPEFramework4Core4JSON8IElementEESaIS9_EE9_M_insertIJS9_EEEvSt14_List_iteratorIS9_EDpOT_
FN:2013,2025,_ZNSt7__cxx114listIN12WPEFramework4Core9ProxyTypeINS2_9IDispatchEEESaIS5_EE8_M_eraseESt14_List_iteratorIS5_E
FN:2013,2025,_ZNSt7__cxx114listIN12WPEFramework4Core9TimerTypeINS2_10WorkerPool5TimerEE9TimedInfoIS5_EESaIS8_EE8_M_eraseESt14_List_iteratorIS8_E
FN:2013,2025,_ZNSt7__cxx114listIPN12WPEFramework8Exchange20IAppGatewayResponder13INotificationESaIS5_EE8_M_eraseESt14_List_iteratorIS5_E
FN:238,238,_ZNSt10_List_nodeIN12WPEFramework4Core10ThreadPool8ExecutorEE9_M_valptrEv
FN:238,238,_ZNSt10_List_nodeIN12WPEFramework4Core14callstack_infoEE9_M_valptrEv
FN:238,238,_ZNSt10_List_nodeIN12WPEFramework4Core7JSONRPC7HandlerEE9_M_valptrEv
FN:238,238,_ZNSt10_List_nodeIN12WPEFramework4Core9ProxyTypeINS1_9IDispatchEEEE9_M_valptrEv
FN:238,238,_ZNSt10_List_nodeIN12WPEFramework4Core9TimerTypeINS1_10WorkerPool5TimerEE9TimedInfoIS4_EEE9_M_valptrEv
FN:238,238,_ZNSt10_List_nodeIPN12WPEFramework8Exchange20IAppGatewayResponder13INotificationEE9_M_valptrEv
FN:238,238,_ZNSt10_List_nodeISt4pairIPKcPN12WPEFramework4Core4JSON8IElementEEE9_M_valptrEv
FN:239,239,_ZNKSt10_List_nodeIN12WPEFramework4Core10ThreadPool8ExecutorEE9_M_valptrEv
FN:239,239,_ZNKSt10_List_nodeIN12WPEFramework4Core9ProxyTypeINS1_9IDispatchEEEE9_M_valptrEv
FN:239,239,_ZNKSt10_List_nodeIN12WPEFramework4Core9TimerTypeINS1_10WorkerPool5TimerEE9TimedInfoIS4_EEE9_M_valptrEv
FN:239,239,_ZNKSt10_List_nodeISt4pairIPKcPN12WPEFramework4Core4JSON8IElementEEE9_M_valptrEv
FN:268,269,_ZNSt14_List_iteratorIN12WPEFramework4Core10ThreadPool8ExecutorEEC2EPNSt8__detail15_List_node_baseE
FN:268,269,_ZNSt14_List_iteratorIN12WPEFramework4Core14callstack_infoEEC2EPNSt8__detail15_List_node_baseE
FN:268,269,_ZNSt14_List_iteratorIN12WPEFramework4Core7JSONRPC7HandlerEEC2EPNSt8__detail15_List_node_baseE
FN:268,269,_ZNSt14_List_iteratorIN12WPEFramework4Core9ProxyTypeINS1_9IDispatchEEEEC2EPNSt8__detail15_List_node_baseE
FN:268,269,_ZNSt14_List_iteratorIN12WPEFramework4Core9TimerTypeINS1_10WorkerPool5TimerEE9TimedInfoIS4_EEEC2EPNSt8__detail15_List_node_baseE
FN:268,269,_ZNSt14_List_iteratorIPN12WPEFramework8Exchange20IAppGatewayResponder13INotificationEEC2EPNSt8__detail15_List_node_baseE
FN:268,269,_ZNSt14_List_iteratorISt4pairIPKcPN12WPEFramework4Core4JSON8IElementEEEC2EPNSt8__detail15_List_node_baseE
FN:278,279,_ZNKSt14_List_iteratorIN12WPEFramework4Core10ThreadPool8ExecutorEEdeEv
FN:278,279,_ZNKSt14_List_iteratorIN12WPEFramework4Core14callstack_infoEEdeEv
FN:278,279,_ZNKSt14_List_iteratorIN12WPEFramework4Core7JSONRPC7HandlerEEdeEv
FN:278,279,_ZNKSt14_List_iteratorIN12WPEFramework4Core9ProxyTypeINS1_9IDispatchEEEEdeEv
FN:278,279,_ZNKSt14_List_iteratorIN12WPEFramework4Core9TimerTypeINS1_10WorkerPool5TimerEE9TimedInfoIS4_EEEdeEv
FN:278,279,_ZNKSt14_List_iteratorIPN12WPEFramework8Exchange20IAppGatewayResponder13INotificationEEdeEv
FN:283,284,_ZNKSt14_List_iteratorIN12WPEFramework4Core10ThreadPool8ExecutorEEptEv
FN:283,284,_ZNKSt14_List_iteratorIN12WPEFramework4Core7JSONRPC7HandlerEEptEv
FN:283,284,_ZNKSt14_List_iteratorIN12WPEFramework4Core9TimerTypeINS1_10WorkerPool5TimerEE9TimedInfoIS4_EEEptEv
FN:283,284,_ZNKSt14_List_iteratorISt4pairIPKcPN12WPEFramework4Core4JSON8IElementEEEptEv
FN:287,291,_ZNSt14_List_iteratorIN12WPEFramework4Core14callstack_infoEEppEv
FN:287,291,_ZNSt14_List_iteratorIN12WPEFramework4Core9ProxyTypeINS1_9IDispatchEEEEppEv
FN:287,291,_ZNSt14_List_iteratorIN12WPEFramework4Core9TimerTypeINS1_10WorkerPool5TimerEE9TimedInfoIS4_EEEppEv
FN:287,291,_ZNSt14_List_iteratorIPN12WPEFramework8Exchange20IAppGatewayResponder13INotificationEEppEv
FN:294,299,_ZNSt14_List_iteratorIN12WPEFramework4Core10ThreadPool8ExecutorEEppEi
FN:294,299,_ZNSt14_List_iteratorIN12WPEFramework4Core7JSONRPC7HandlerEEppEi
FN:294,299,_ZNSt14_List_iteratorISt4pairIPKcPN12WPEFramework4Core4JSON8IElementEEEppEi
FN:302,306,_ZNSt14_List_iteratorIN12WPEFramework4Core10ThreadPool8ExecutorEEmmEv
FN:309,314,_ZNSt14_List_iteratorISt4pairIPKcPN12WPEFramework4Core4JSON8IElementEEEmmEi
FN:318,319,_ZSteqRKSt14_List_iteratorIN12WPEFramework4Core7JSONRPC7HandlerEES6_
FN:318,319,_ZSteqRKSt14_List_iteratorIN12WPEFramework4Core9TimerTypeINS1_10WorkerPool5TimerEE9TimedInfoIS4_EEESA_
FN:318,319,_ZSteqRKSt14_List_iteratorIPN12WPEFramework8Exchange20IAppGatewayResponder13INotificationEES7_
FN:324,325,_ZStneRKSt14_List_iteratorIN12WPEFramework4Core10ThreadPool8ExecutorEES6_
FN:324,325,_ZStneRKSt14_List_iteratorIN12WPEFramework4Core14callstack_infoEES5_
FN:324,325,_ZStneRKSt14_List_iteratorIN12WPEFramework4Core7JSONRPC7HandlerEES6_
FN:324,325,_ZStneRKSt14_List_iteratorIN12WPEFramework4Core9ProxyTypeINS1_9IDispatchEEEES7_
FN:324,325,_ZStneRKSt14_List_iteratorIN12WPEFramework4Core9TimerTypeINS1_10WorkerPool5TimerEE9TimedInfoIS4_EEESA_
FN:324,325,_ZStneRKSt14_List_iteratorIPN12WPEFramework8Exchange20IAppGatewayResponder13INotificationEES7_
FN:324,325,_ZStneRKSt14_List_iteratorISt4pairIPKcPN12WPEFramework4Core4JSON8IElementEEESB_
FN:350,351,_ZNSt20_List_const_iteratorISt4pairIPKcPN12WPEFramework4Core4JSON8IElementEEEC2Ev
FN:354,356,_ZNSt20_List_const_iteratorIN12WPEFramework4Core10ThreadPool8ExecutorEEC2EPKNSt8__detail15_List_node_baseE
FN:354,356,_ZNSt20_List_const_iteratorIN12WPEFramework4Core9ProxyTypeINS1_9IDispatchEEEEC2EPKNSt8__detail15_List_node_baseE
FN:354,356,_ZNSt20_List_const_iteratorIN12WPEFramework4Core9TimerTypeINS1_10WorkerPool5TimerEE9TimedInfoIS4_EEEC2EPKNSt8__detail15_List_node_baseE
FN:354,356,_ZNSt20_List_const_iteratorISt4pairIPKcPN12WPEFramework4Core4JSON8IElementEEEC2EPKNSt8__detail15_List_node_baseE
FN:358,359,_ZNSt20_List_const_iteratorIN12WPEFramework4Core10ThreadPool8ExecutorEEC2ERKSt14_List_iteratorIS3_E
FN:358,359,_ZNSt20_List_const_iteratorIN12WPEFramework4Core9ProxyTypeINS1_9IDispatchEEEEC2ERKSt14_List_iteratorIS4_E
FN:358,359,_ZNSt20_List_const_iteratorIN12WPEFramework4Core9TimerTypeINS1_10WorkerPool5TimerEE9TimedInfoIS4_EEEC2ERKSt14_List_iteratorIS7_E
FN:358,359,_ZNSt20_List_const_iteratorIPN12WPEFramework8Exchange20IAppGatewayResponder13INotificationEEC2ERKSt14_List_iteratorIS4_E
FN:358,359,_ZNSt20_List_const_iteratorISt4pairIPKcPN12WPEFramework4Core4JSON8IElementEEEC2ERKSt14_List_iteratorIS8_E
FN:362,363,_ZNKSt20_List_const_iteratorIN12WPEFramework4Core9ProxyTypeINS1_9IDispatchEEEE13_M_const_castEv
FN:362,363,_ZNKSt20_List_const_iteratorIN12WPEFramework4Core9TimerTypeINS1_10WorkerPool5TimerEE9TimedInfoIS4_EEE13_M_const_castEv
FN:362,363,_ZNKSt20_List_const_iteratorIPN12WPEFramework8Exchange20IAppGatewayResponder13INotificationEE13_M_const_castEv
FN:368,369,_ZNKSt20_List_const_iteratorIN12WPEFramework4Core9ProxyTypeINS1_9IDispatchEEEEdeEv
FN:368,369,_ZNKSt20_List_const_iteratorIN12WPEFramework4Core9TimerTypeINS1_10WorkerPool5TimerEE9TimedInfoIS4_EEEdeEv
FN:373,374,_ZNKSt20_List_const_iteratorIN12WPEFramework4Core10ThreadPool8ExecutorEEptEv
FN:373,374,_ZNKSt20_List_const_iteratorISt4pairIPKcPN12WPEFramework4Core4JSON8IElementEEEptEv
FN:377,381,_ZNSt20_List_const_iteratorIN12WPEFramework4Core9ProxyTypeINS1_9IDispatchEEEEppEv
FN:384,389,_ZNSt20_List_const_iteratorIN12WPEFramework4Core10ThreadPool8ExecutorEEppEi
FN:384,389,_ZNSt20_List_const_iteratorIN12WPEFramework4Core9ProxyTypeINS1_9IDispatchEEEEppEi
FN:384,389,_ZNSt20_List_const_iteratorIN12WPEFramework4Core9TimerTypeINS1_10WorkerPool5TimerEE9TimedInfoIS4_EEEppEi
FN:384,389,_ZNSt20_List_const_iteratorISt4pairIPKcPN12WPEFramework4Core4JSON8IElementEEEppEi
FN:408,409,_ZSteqRKSt20_List_const_iteratorIN12WPEFramework4Core10ThreadPool8ExecutorEES6_
FN:408,409,_ZSteqRKSt20_List_const_iteratorISt4pairIPKcPN12WPEFramework4Core4JSON8IElementEEESB_
FN:414,415,_ZStneRKSt20_List_const_iteratorIN12WPEFramework4Core10ThreadPool8ExecutorEES6_
FN:414,415,_ZStneRKSt20_List_const_iteratorIN12WPEFramework4Core9ProxyTypeINS1_9IDispatchEEEES7_
FN:414,415,_ZStneRKSt20_List_const_iteratorIN12WPEFramework4Core9TimerTypeINS1_10WorkerPool5TimerEE9TimedInfoIS4_EEESA_
FN:414,415,_ZStneRKSt20_List_const_iteratorISt4pairIPKcPN12WPEFramework4Core4JSON8IElementEEESB_
FN:455,458,_ZNSt7__cxx1110_List_baseIN12WPEFramework4Core10ThreadPool8ExecutorESaIS4_EE10_List_implC2Ev
FN:455,458,_ZNSt7__cxx1110_List_baseIN12WPEFramework4Core14callstack_infoESaIS3_EE10_List_implC2Ev
FN:455,458,_ZNSt7__cxx1110_List_baseIN12WPEFramework4Core9ProxyTypeINS2_9IDispatchEEESaIS5_EE10_List_implC2Ev
FN:455,458,_ZNSt7__cxx1110_List_baseIN12WPEFramework4Core9TimerTypeINS2_10WorkerPool5TimerEE9TimedInfoIS5_EESaIS8_EE10_List_implC2Ev
FN:455,458,_ZNSt7__cxx1110_List_baseIPN12WPEFramework8Exchange20IAppGatewayResponder13INotificationESaIS5_EE10_List_implC2Ev
FN:455,458,_ZNSt7__cxx1110_List_baseISt4pairIPKcPN12WPEFramework4Core4JSON8IElementEESaIS9_EE10_List_implC2Ev
FN:480,480,_ZNKSt7__cxx1110_List_baseIN12WPEFramework4Core10ThreadPool8ExecutorESaIS4_EE11_M_get_sizeEv
FN:480,480,_ZNKSt7__cxx1110_List_baseIN12WPEFramework4Core9ProxyTypeINS2_9IDispatchEEESaIS5_EE11_M_get_sizeEv
FN:480,480,_ZNKSt7__cxx1110_List_baseIN12WPEFramework4Core9TimerTypeINS2_10WorkerPool5TimerEE9TimedInfoIS5_EESaIS8_EE11_M_get_sizeEv
FN:480,480,_ZNKSt7__cxx1110_List_baseISt4pairIPKcPN12WPEFramework4Core4JSON8IElementEESaIS9_EE11_M_get_sizeEv
FN:484,484,_ZNSt7__cxx1110_List_baseIN12WPEFramework4Core10ThreadPool8ExecutorESaIS4_EE11_M_inc_sizeEm
FN:484,484,_ZNSt7__cxx1110_List_baseIN12WPEFramework4Core9ProxyTypeINS2_9IDispatchEEESaIS5_EE11_M_inc_sizeEm
FN:484,484,_ZNSt7__cxx1110_List_baseIN12WPEFramework4Core9TimerTypeINS2_10WorkerPool5TimerEE9TimedInfoIS5_EESaIS8_EE11_M_inc_sizeEm
FN:484,484,_ZNSt7__cxx1110_List_baseIPN12WPEFramework8Exchange20IAppGatewayResponder13INotificationESaIS5_EE11_M_inc_sizeEm
FN:484,484,_ZNSt7__cxx1110_List_baseISt4pairIPKcPN12WPEFramework4Core4JSON8IElementEESaIS9_EE11_M_inc_sizeEm
FN:486,486,_ZNSt7__cxx1110_List_baseIN12WPEFramework4Core9ProxyTypeINS2_9IDispatchEEESaIS5_EE11_M_dec_sizeEm
FN:486,486,_ZNSt7__cxx1110_List_baseIN12WPEFramework4Core9TimerTypeINS2_10WorkerPool5TimerEE9TimedInfoIS5_EESaIS8_EE11_M_dec_sizeEm
FN:486,486,_ZNSt7__cxx1110_List_baseIPN12WPEFramework8Exchange20IAppGatewayResponder13INotificationESaIS5_EE11_M_dec_sizeEm
FN:517,518,_ZNSt7__cxx1110_List_baseIN12WPEFramework4Core10ThreadPool8ExecutorESaIS4_EE11_M_get_nodeEv
FN:517,518,_ZNSt7__cxx1110_List_baseIN12WPEFramework4Core9ProxyTypeINS2_9IDispatchEEESaIS5_EE11_M_get_nodeEv
FN:517,518,_ZNSt7__cxx1110_List_baseIN12WPEFramework4Core9TimerTypeINS2_10WorkerPool5TimerEE9TimedInfoIS5_EESaIS8_EE11_M_get_nodeEv
FN:517,518,_ZNSt7__cxx1110_List_baseIPN12WPEFramework8Exchange20IAppGatewayResponder13INotificationESaIS5_EE11_M_get_nodeEv
FN:517,518,_ZNSt7__cxx1110_List_baseISt4pairIPKcPN12WPEFramework4Core4JSON8IElementEESaIS9_EE11_M_get_nodeEv
FN:521,522,_ZNSt7__cxx1110_List_baseIN12WPEFramework4Core10ThreadPool8ExecutorESaIS4_EE11_M_put_nodeEPSt10_List_nodeIS4_E
FN:521,522,_ZNSt7__cxx1110_List_baseIN12WPEFramework4Core14callstack_infoESaIS3_EE11_M_put_nodeEPSt10_List_nodeIS3_E
FN:521,522,_ZNSt7__cxx1110_List_baseIN12WPEFramework4Core9ProxyTypeINS2_9IDispatchEEESaIS5_EE11_M_put_nodeEPSt10_List_nodeIS5_E
FN:521,522,_ZNSt7__cxx1110_List_baseIN12WPEFramework4Core9TimerTypeINS2_10WorkerPool5TimerEE9TimedInfoIS5_EESaIS8_EE11_M_put_nodeEPSt10_List_nodeIS8_E
FN:521,522,_ZNSt7__cxx1110_List_baseIPN12WPEFramework8Exchange20IAppGatewayResponder13INotificationESaIS5_EE11_M_put_nodeEPSt10_List_nodeIS5_E
FN:521,522,_ZNSt7__cxx1110_List_baseISt4pairIPKcPN12WPEFramework4Core4JSON8IElementEESaIS9_EE11_M_put_nodeEPSt10_List_nodeIS9_E
FN:528,529,_ZNSt7__cxx1110_List_baseIN12WPEFramework4Core10ThreadPool8ExecutorESaIS4_EE21_M_get_Node_allocatorEv
FN:528,529,_ZNSt7__cxx1110_List_baseIN12WPEFramework4Core14callstack_infoESaIS3_EE21_M_get_Node_allocatorEv
FN:528,529,_ZNSt7__cxx1110_List_baseIN12WPEFramework4Core9ProxyTypeINS2_9IDispatchEEESaIS5_EE21_M_get_Node_allocatorEv
FN:528,529,_ZNSt7__cxx1110_List_baseIN12WPEFramework4Core9TimerTypeINS2_10WorkerPool5TimerEE9TimedInfoIS5_EESaIS8_EE21_M_get_Node_allocatorEv
FN:528,529,_ZNSt7__cxx1110_List_baseIPN12WPEFramework8Exchange20IAppGatewayResponder13INotificationESaIS5_EE21_M_get_Node_allocatorEv
FN:528,529,_ZNSt7__cxx1110_List_baseISt4pairIPKcPN12WPEFramework4Core4JSON8IElementEESaIS9_EE21_M_get_Node_allocatorEv
FN:536,536,_ZNSt7__cxx1110_List_baseIN12WPEFramework4Core10ThreadPool8ExecutorESaIS4_EEC2Ev
FN:536,536,_ZNSt7__cxx1110_List_baseIN12WPEFramework4Core14callstack_infoESaIS3_EEC2Ev
FN:536,536,_ZNSt7__cxx1110_List_baseIN12WPEFramework4Core9ProxyTypeINS2_9IDispatchEEESaIS5_EEC2Ev
FN:536,536,_ZNSt7__cxx1110_List_baseIN12WPEFramework4Core9TimerTypeINS2_10WorkerPool5TimerEE9TimedInfoIS5_EESaIS8_EEC2Ev
FN:536,536,_ZNSt7__cxx1110_List_baseIPN12WPEFramework8Exchange20IAppGatewayResponder13INotificationESaIS5_EEC2Ev
FN:536,536,_ZNSt7__cxx1110_List_baseISt4pairIPKcPN12WPEFramework4Core4JSON8IElementEESaIS9_EEC2Ev
FN:574,575,_ZNSt7__cxx1110_List_baseIN12WPEFramework4Core10ThreadPool8ExecutorESaIS4_EED2Ev
FN:574,575,_ZNSt7__cxx1110_List_baseIN12WPEFramework4Core14callstack_infoESaIS3_EED2Ev
FN:574,575,_ZNSt7__cxx1110_List_baseIN12WPEFramework4Core9ProxyTypeINS2_9IDispatchEEESaIS5_EED2Ev
FN:574,575,_ZNSt7__cxx1110_List_baseIN12WPEFramework4Core9TimerTypeINS2_10WorkerPool5TimerEE9TimedInfoIS5_EESaIS8_EED2Ev
FN:574,575,_ZNSt7__cxx1110_List_baseIPN12WPEFramework8Exchange20IAppGatewayResponder13INotificationESaIS5_EED2Ev
FN:574,575,_ZNSt7__cxx1110_List_baseISt4pairIPKcPN12WPEFramework4Core4JSON8IElementEESaIS9_EED2Ev
FN:581,582,_ZNSt7__cxx1110_List_baseIN12WPEFramework4Core10ThreadPool8ExecutorESaIS4_EE7_M_initEv
FN:581,582,_ZNSt7__cxx1110_List_baseIN12WPEFramework4Core9TimerTypeINS2_10WorkerPool5TimerEE9TimedInfoIS5_EESaIS8_EE7_M_initEv
FN:581,582,_ZNSt7__cxx1110_List_baseIPN12WPEFramework8Exchange20IAppGatewayResponder13INotificationESaIS5_EE7_M_initEv
FN:708,717,_ZNSt7__cxx114listIN12WPEFramework4Core10ThreadPool8ExecutorESaIS4_EE14_M_create_nodeIJRS3_RPNS3_11IDispatcherERKjRPKcEEEPSt10_List_nodeIS4_EDpOT_
FN:708,717,_ZNSt7__cxx114listIN12WPEFramework4Core9ProxyTypeINS2_9IDispatchEEESaIS5_EE14_M_create_nodeIJRKS5_EEEPSt10_List_nodeIS5_EDpOT_
FN:708,717,_ZNSt7__cxx114listIN12WPEFramework4Core9TimerTypeINS2_10WorkerPool5TimerEE9TimedInfoIS5_EESaIS8_EE14_M_create_nodeIJS8_EEEPSt10_List_nodeIS8_EDpOT_
FN:708,717,_ZNSt7__cxx114listIPN12WPEFramework8Exchange20IAppGatewayResponder13INotificationESaIS5_EE14_M_create_nodeIJRKS5_EEEPSt10_List_nodeIS5_EDpOT_
FN:708,717,_ZNSt7__cxx114listISt4pairIPKcPN12WPEFramework4Core4JSON8IElementEESaIS9_EE14_M_create_nodeIJS9_EEEPSt10_List_nodeIS9_EDpOT_
FN:727,728,_ZNKSt7__cxx114listIN12WPEFramework4Core10ThreadPool8ExecutorESaIS4_EE13_M_node_countEv
FN:727,728,_ZNKSt7__cxx114listIN12WPEFramework4Core9ProxyTypeINS2_9IDispatchEEESaIS5_EE13_M_node_countEv
FN:727,728,_ZNKSt7__cxx114listIN12WPEFramework4Core9TimerTypeINS2_10WorkerPool5TimerEE9TimedInfoIS5_EESaIS8_EE13_M_node_countEv
FN:727,728,_ZNKSt7__cxx114listISt4pairIPKcPN12WPEFramework4Core4JSON8IElementEESaIS9_EE13_M_node_countEv
FN:749,749,_ZNSt7__cxx114listIN12WPEFramework4Core10ThreadPool8ExecutorESaIS4_EEC2Ev
FN:749,749,_ZNSt7__cxx114listIN12WPEFramework4Core14callstack_infoESaIS3_EEC2Ev
FN:749,749,_ZNSt7__cxx114listIN12WPEFramework4Core9ProxyTypeINS2_9IDispatchEEESaIS5_EEC2Ev
FN:749,749,_ZNSt7__cxx114listIN12WPEFramework4Core9TimerTypeINS2_10WorkerPool5TimerEE9TimedInfoIS5_EESaIS8_EEC2Ev
FN:749,749,_ZNSt7__cxx114listIPN12WPEFramework8Exchange20IAppGatewayResponder13INotificationESaIS5_EEC2Ev
FN:749,749,_ZNSt7__cxx114listISt4pairIPKcPN12WPEFramework4Core4JSON8IElementEESaIS9_EEC2Ev
FN:903,903,_ZNSt7__cxx114listIN12WPEFramework4Core10ThreadPool8ExecutorESaIS4_EED2Ev
FN:903,903,_ZNSt7__cxx114listIN12WPEFramework4Core14callstack_infoESaIS3_EED2Ev
FN:903,903,_ZNSt7__cxx114listIN12WPEFramework4Core9ProxyTypeINS2_9IDispatchEEESaIS5_EED2Ev
FN:903,903,_ZNSt7__cxx114listIN12WPEFramework4Core9TimerTypeINS2_10WorkerPool5TimerEE9TimedInfoIS5_EESaIS8_EED2Ev
FN:903,903,_ZNSt7__cxx114listIPN12WPEFramework8Exchange20IAppGatewayResponder13INotificationESaIS5_EED2Ev
FN:903,903,_ZNSt7__cxx114listISt4pairIPKcPN12WPEFramework4Core4JSON8IElementEESaIS9_EED2Ev
FNDA:4,_ZNSt7__cxx114listIN12WPEFramework4Core10ThreadPool8ExecutorESaIS4_EE5beginEv
FNDA:0,_ZNSt7__cxx114listIN12WPEFramework4Core14callstack_infoESaIS3_EE5beginEv
FNDA:127,_ZNSt7__cxx114listIN12WPEFramework4Core7JSONRPC7HandlerESaIS4_EE5beginEv
FNDA:2,_ZNSt7__cxx114listIN12WPEFramework4Core9ProxyTypeINS2_9IDispatchEEESaIS5_EE5beginEv
FNDA:0,_ZNSt7__cxx114listIN12WPEFramework4Core9TimerTypeINS2_10WorkerPool5TimerEE9TimedInfoIS5_EESaIS8_EE5beginEv
FNDA:6,_ZNSt7__cxx114listIPN12WPEFramework8Exchange20IAppGatewayResponder13INotificationESaIS5_EE5beginEv
FNDA:184,_ZNSt7__cxx114listISt4pairIPKcPN12WPEFramework4Core4JSON8IElementEESaIS9_EE5beginEv
FNDA:0,_ZNKSt7__cxx114listIN12WPEFramework4Core9ProxyTypeINS2_9IDispatchEEESaIS5_EE5beginEv
FNDA:9,_ZNKSt7__cxx114listISt4pairIPKcPN12WPEFramework4Core4JSON8IElementEESaIS9_EE5beginEv
FNDA:16,_ZNSt7__cxx114listIN12WPEFramework4Core10ThreadPool8ExecutorESaIS4_EE3endEv
FNDA:0,_ZNSt7__cxx114listIN12WPEFramework4Core14callstack_infoESaIS3_EE3endEv
FNDA:49,_ZNSt7__cxx114listIN12WPEFramework4Core7JSONRPC7HandlerESaIS4_EE3endEv
FNDA:2,_ZNSt7__cxx114listIN12WPEFramework4Core9ProxyTypeINS2_9IDispatchEEESaIS5_EE3endEv
FNDA:0,_ZNSt7__cxx114listIN12WPEFramework4Core9TimerTypeINS2_10WorkerPool5TimerEE9TimedInfoIS5_EESaIS8_EE3endEv
FNDA:9,_ZNSt7__cxx114listIPN12WPEFramework8Exchange20IAppGatewayResponder13INotificationESaIS5_EE3endEv
FNDA:1163,_ZNSt7__cxx114listISt4pairIPKcPN12WPEFramework4Core4JSON8IElementEESaIS9_EE3endEv
FNDA:0,_ZNKSt7__cxx114listIN12WPEFramework4Core9ProxyTypeINS2_9IDispatchEEESaIS5_EE3endEv
FNDA:26,_ZNKSt7__cxx114listISt4pairIPKcPN12WPEFramework4Core4JSON8IElementEESaIS9_EE3endEv
FNDA:480,_ZNSt8__detail17_List_node_headerC2Ev
FNDA:0,_ZNKSt7__cxx114listIN12WPEFramework4Core10ThreadPool8ExecutorESaIS4_EE6cbeginEv
FNDA:2,_ZNKSt7__cxx114listIN12WPEFramework4Core9ProxyTypeINS2_9IDispatchEEESaIS5_EE6cbeginEv
FNDA:2,_ZNKSt7__cxx114listIN12WPEFramework4Core9TimerTypeINS2_10WorkerPool5TimerEE9TimedInfoIS5_EESaIS8_EE6cbeginEv
FNDA:0,_ZNKSt7__cxx114listIN12WPEFramework4Core10ThreadPool8ExecutorESaIS4_EE4cendEv
FNDA:4,_ZNKSt7__cxx114listIN12WPEFramework4Core9ProxyTypeINS2_9IDispatchEEESaIS5_EE4cendEv
FNDA:4,_ZNKSt7__cxx114listIN12WPEFramework4Core9TimerTypeINS2_10WorkerPool5TimerEE9TimedInfoIS5_EESaIS8_EE4cendEv
FNDA:2,_ZNKSt7__cxx114listIN12WPEFramework4Core9ProxyTypeINS2_9IDispatchEEESaIS5_EE5emptyEv
FNDA:0,_ZNKSt7__cxx114listIN12WPEFramework4Core9TimerTypeINS2_10WorkerPool5TimerEE9TimedInfoIS5_EESaIS8_EE5emptyEv
FNDA:0,_ZNKSt7__cxx114listISt4pairIPKcPN12WPEFramework4Core4JSON8IElementEESaIS9_EE5emptyEv
FNDA:0,_ZNKSt7__cxx114listIN12WPEFramework4Core10ThreadPool8ExecutorESaIS4_EE4sizeEv
FNDA:2,_ZNKSt7__cxx114listIN12WPEFramework4Core9ProxyTypeINS2_9IDispatchEEESaIS5_EE4sizeEv
FNDA:0,_ZNKSt7__cxx114listIN12WPEFramework4Core9TimerTypeINS2_10WorkerPool5TimerEE9TimedInfoIS5_EESaIS8_EE4sizeEv
FNDA:0,_ZNKSt7__cxx114listISt4pairIPKcPN12WPEFramework4Core4JSON8IElementEESaIS9_EE4sizeEv
FNDA:0,_ZNSt7__cxx114listIN12WPEFramework4Core9TimerTypeINS2_10WorkerPool5TimerEE9TimedInfoIS5_EESaIS8_EE5frontEv
FNDA:2,_ZNSt7__cxx114listIN12WPEFramework4Core10ThreadPool8ExecutorESaIS4_EE4backEv
FNDA:0,_ZNSt7__cxx114listIN12WPEFramework4Core9TimerTypeINS2_10WorkerPool5TimerEE9TimedInfoIS5_EESaIS8_EE10push_frontEOS8_
FNDA:0,_ZNSt7__cxx114listIN12WPEFramework4Core9TimerTypeINS2_10WorkerPool5TimerEE9TimedInfoIS5_EESaIS8_EE9pop_frontEv
FNDA:2,_ZNSt7__cxx114listIN12WPEFramework4Core9ProxyTypeINS2_9IDispatchEEESaIS5_EE9push_backERKS5_
FNDA:1,_ZNSt7__cxx114listIPN12WPEFramework8Exchange20IAppGatewayResponder13INotificationESaIS5_EE9push_backERKS5_
FNDA:0,_ZNSt7__cxx114listIN12WPEFramework4Core9TimerTypeINS2_10WorkerPool5TimerEE9TimedInfoIS5_EESaIS8_EE9push_backEOS8_
FNDA:224,_ZNSt7__cxx114listISt4pairIPKcPN12WPEFramework4Core4JSON8IElementEESaIS9_EE9push_backEOS9_
FNDA:2,_ZNSt7__cxx114listIN12WPEFramework4Core10ThreadPool8ExecutorESaIS4_EE12emplace_backIJRS3_RPNS3_11IDispatcherERKjRPKcEEERS4_DpOT_
FNDA:0,_ZNSt7__cxx114listIN12WPEFramework4Core9TimerTypeINS2_10WorkerPool5TimerEE9TimedInfoIS5_EESaIS8_EE6insertESt20_List_const_iteratorIS8_EOS8_
FNDA:485,_ZNSt8__detail17_List_node_header7_M_initEv
FNDA:1,_ZNSt7__cxx114listIN12WPEFramework4Core10ThreadPool8ExecutorESaIS4_EE5clearEv
FNDA:1,_ZNSt7__cxx114listIN12WPEFramework4Core9TimerTypeINS2_10WorkerPool5TimerEE9TimedInfoIS5_EESaIS8_EE5clearEv
FNDA:3,_ZNSt7__cxx114listIPN12WPEFramework8Exchange20IAppGatewayResponder13INotificationESaIS5_EE5clearEv
FNDA:2,_ZNSt7__cxx114listIN12WPEFramework4Core10ThreadPool8ExecutorESaIS4_EE9_M_insertIJRS3_RPNS3_11IDispatcherERKjRPKcEEEvSt14_List_iteratorIS4_EDpOT_
FNDA:2,_ZNSt7__cxx114listIN12WPEFramework4Core9ProxyTypeINS2_9IDispatchEEESaIS5_EE9_M_insertIJRKS5_EEEvSt14_List_iteratorIS5_EDpOT_
FNDA:0,_ZNSt7__cxx114listIN12WPEFramework4Core9TimerTypeINS2_10WorkerPool5TimerEE9TimedInfoIS5_EESaIS8_EE9_M_insertIJS8_EEEvSt14_List_iteratorIS8_EDpOT_
FNDA:1,_ZNSt7__cxx114listIPN12WPEFramework8Exchange20IAppGatewayResponder13INotificationESaIS5_EE9_M_insertIJRKS5_EEEvSt14_List_iteratorIS5_EDpOT_
FNDA:224,_ZNSt7__cxx114listISt4pairIPKcPN12WPEFramework4Core4JSON8IElementEESaIS9_EE9_M_insertIJS9_EEEvSt14_List_iteratorIS9_EDpOT_
FNDA:2,_ZNSt7__cxx114listIN12WPEFramework4Core9ProxyTypeINS2_9IDispatchEEESaIS5_EE8_M_eraseESt14_List_iteratorIS5_E
FNDA:0,_ZNSt7__cxx114listIN12WPEFramework4Core9TimerTypeINS2_10WorkerPool5TimerEE9TimedInfoIS5_EESaIS8_EE8_M_eraseESt14_List_iteratorIS8_E
FNDA:1,_ZNSt7__cxx114listIPN12WPEFramework8Exchange20IAppGatewayResponder13INotificationESaIS5_EE8_M_eraseESt14_List_iteratorIS5_E
FNDA:14,_ZNSt10_List_nodeIN12WPEFramework4Core10ThreadPool8ExecutorEE9_M_valptrEv
FNDA:0,_ZNSt10_List_nodeIN12WPEFramework4Core14callstack_infoEE9_M_valptrEv
FNDA:127,_ZNSt10_List_nodeIN12WPEFramework4Core7JSONRPC7HandlerEE9_M_valptrEv
FNDA:6,_ZNSt10_List_nodeIN12WPEFramework4Core9ProxyTypeINS1_9IDispatchEEEE9_M_valptrEv
FNDA:0,_ZNSt10_List_nodeIN12WPEFramework4Core9TimerTypeINS1_10WorkerPool5TimerEE9TimedInfoIS4_EEE9_M_valptrEv
FNDA:5,_ZNSt10_List_nodeIPN12WPEFramework8Exchange20IAppGatewayResponder13INotificationEE9_M_valptrEv
FNDA:2318,_ZNSt10_List_nodeISt4pairIPKcPN12WPEFramework4Core4JSON8IElementEEE9_M_valptrEv
FNDA:0,_ZNKSt10_List_nodeIN12WPEFramework4Core10ThreadPool8ExecutorEE9_M_valptrEv
FNDA:0,_ZNKSt10_List_nodeIN12WPEFramework4Core9ProxyTypeINS1_9IDispatchEEEE9_M_valptrEv
FNDA:0,_ZNKSt10_List_nodeIN12WPEFramework4Core9TimerTypeINS1_10WorkerPool5TimerEE9TimedInfoIS4_EEE9_M_valptrEv
FNDA:261,_ZNKSt10_List_nodeISt4pairIPKcPN12WPEFramework4Core4JSON8IElementEEE9_M_valptrEv
FNDA:20,_ZNSt14_List_iteratorIN12WPEFramework4Core10ThreadPool8ExecutorEEC2EPNSt8__detail15_List_node_baseE
FNDA:0,_ZNSt14_List_iteratorIN12WPEFramework4Core14callstack_infoEEC2EPNSt8__detail15_List_node_baseE
FNDA:176,_ZNSt14_List_iteratorIN12WPEFramework4Core7JSONRPC7HandlerEEC2EPNSt8__detail15_List_node_baseE
FNDA:8,_ZNSt14_List_iteratorIN12WPEFramework4Core9ProxyTypeINS1_9IDispatchEEEEC2EPNSt8__detail15_List_node_baseE
FNDA:0,_ZNSt14_List_iteratorIN12WPEFramework4Core9TimerTypeINS1_10WorkerPool5TimerEE9TimedInfoIS4_EEEC2EPNSt8__detail15_List_node_baseE
FNDA:17,_ZNSt14_List_iteratorIPN12WPEFramework8Exchange20IAppGatewayResponder13INotificationEEC2EPNSt8__detail15_List_node_baseE
FNDA:1347,_ZNSt14_List_iteratorISt4pairIPKcPN12WPEFramework4Core4JSON8IElementEEEC2EPNSt8__detail15_List_node_baseE
FNDA:2,_ZNKSt14_List_iteratorIN12WPEFramework4Core10ThreadPool8ExecutorEEdeEv
FNDA:0,_ZNKSt14_List_iteratorIN12WPEFramework4Core14callstack_infoEEdeEv
FNDA:127,_ZNKSt14_List_iteratorIN12WPEFramework4Core7JSONRPC7HandlerEEdeEv
FNDA:2,_ZNKSt14_List_iteratorIN12WPEFramework4Core9ProxyTypeINS1_9IDispatchEEEEdeEv
FNDA:0,_ZNKSt14_List_iteratorIN12WPEFramework4Core9TimerTypeINS1_10WorkerPool5TimerEE9TimedInfoIS4_EEEdeEv
FNDA:3,_ZNKSt14_List_iteratorIPN12WPEFramework8Exchange20IAppGatewayResponder13INotificationEEdeEv
FNDA:8,_ZNKSt14_List_iteratorIN12WPEFramework4Core10ThreadPool8ExecutorEEptEv
FNDA:0,_ZNKSt14_List_iteratorIN12WPEFramework4Core7JSONRPC7HandlerEEptEv
FNDA:0,_ZNKSt14_List_iteratorIN12WPEFramework4Core9TimerTypeINS1_10WorkerPool5TimerEE9TimedInfoIS4_EEEptEv
FNDA:643,_ZNKSt14_List_iteratorISt4pairIPKcPN12WPEFramework4Core4JSON8IElementEEEptEv
FNDA:0,_ZNSt14_List_iteratorIN12WPEFramework4Core14callstack_infoEEppEv
FNDA:0,_ZNSt14_List_iteratorIN12WPEFramework4Core9ProxyTypeINS1_9IDispatchEEEEppEv
FNDA:0,_ZNSt14_List_iteratorIN12WPEFramework4Core9TimerTypeINS1_10WorkerPool5TimerEE9TimedInfoIS4_EEEppEv
FNDA:1,_ZNSt14_List_iteratorIPN12WPEFramework8Exchange20IAppGatewayResponder13INotificationEEppEv
FNDA:8,_ZNSt14_List_iteratorIN12WPEFramework4Core10ThreadPool8ExecutorEEppEi
FNDA:0,_ZNSt14_List_iteratorIN12WPEFramework4Core7JSONRPC7HandlerEEppEi
FNDA:387,_ZNSt14_List_iteratorISt4pairIPKcPN12WPEFramework4Core4JSON8IElementEEEppEi
FNDA:2,_ZNSt14_List_iteratorIN12WPEFramework4Core10ThreadPool8ExecutorEEmmEv
FNDA:0,_ZNSt14_List_iteratorISt4pairIPKcPN12WPEFramework4Core4JSON8IElementEEEmmEi
FNDA:49,_ZSteqRKSt14_List_iteratorIN12WPEFramework4Core7JSONRPC7HandlerEES6_
FNDA:0,_ZSteqRKSt14_List_iteratorIN12WPEFramework4Core9TimerTypeINS1_10WorkerPool5TimerEE9TimedInfoIS4_EEESA_
FNDA:1,_ZSteqRKSt14_List_iteratorIPN12WPEFramework8Exchange20IAppGatewayResponder13INotificationEES7_
FNDA:12,_ZStneRKSt14_List_iteratorIN12WPEFramework4Core10ThreadPool8ExecutorEES6_
FNDA:0,_ZStneRKSt14_List_iteratorIN12WPEFramework4Core14callstack_infoEES5_
FNDA:0,_ZStneRKSt14_List_iteratorIN12WPEFramework4Core7JSONRPC7HandlerEES6_
FNDA:0,_ZStneRKSt14_List_iteratorIN12WPEFramework4Core9ProxyTypeINS1_9IDispatchEEEES7_
FNDA:0,_ZStneRKSt14_List_iteratorIN12WPEFramework4Core9TimerTypeINS1_10WorkerPool5TimerEE9TimedInfoIS4_EEESA_
FNDA:8,_ZStneRKSt14_List_iteratorIPN12WPEFramework8Exchange20IAppGatewayResponder13INotificationEES7_
FNDA:643,_ZStneRKSt14_List_iteratorISt4pairIPKcPN12WPEFramework4Core4JSON8IElementEEESB_
FNDA:448,_ZNSt20_List_const_iteratorISt4pairIPKcPN12WPEFramework4Core4JSON8IElementEEEC2Ev
FNDA:0,_ZNSt20_List_const_iteratorIN12WPEFramework4Core10ThreadPool8ExecutorEEC2EPKNSt8__detail15_List_node_baseE
FNDA:6,_ZNSt20_List_const_iteratorIN12WPEFramework4Core9ProxyTypeINS1_9IDispatchEEEEC2EPKNSt8__detail15_List_node_baseE
FNDA:6,_ZNSt20_List_const_iteratorIN12WPEFramework4Core9TimerTypeINS1_10WorkerPool5TimerEE9TimedInfoIS4_EEEC2EPKNSt8__detail15_List_node_baseE
FNDA:35,_ZNSt20_List_const_iteratorISt4pairIPKcPN12WPEFramework4Core4JSON8IElementEEEC2EPKNSt8__detail15_List_node_baseE
FNDA:0,_ZNSt20_List_const_iteratorIN12WPEFramework4Core10ThreadPool8ExecutorEEC2ERKSt14_List_iteratorIS3_E
FNDA:2,_ZNSt20_List_const_iteratorIN12WPEFramework4Core9ProxyTypeINS1_9IDispatchEEEEC2ERKSt14_List_iteratorIS4_E
FNDA:0,_ZNSt20_List_const_iteratorIN12WPEFramework4Core9TimerTypeINS1_10WorkerPool5TimerEE9TimedInfoIS4_EEEC2ERKSt14_List_iteratorIS7_E
FNDA:1,_ZNSt20_List_const_iteratorIPN12WPEFramework8Exchange20IAppGatewayResponder13INotificationEEC2ERKSt14_List_iteratorIS4_E
FNDA:352,_ZNSt20_List_const_iteratorISt4pairIPKcPN12WPEFramework4Core4JSON8IElementEEEC2ERKSt14_List_iteratorIS8_E
FNDA:2,_ZNKSt20_List_const_iteratorIN12WPEFramework4Core9ProxyTypeINS1_9IDispatchEEEE13_M_const_castEv
FNDA:0,_ZNKSt20_List_const_iteratorIN12WPEFramework4Core9TimerTypeINS1_10WorkerPool5TimerEE9TimedInfoIS4_EEE13_M_const_castEv
FNDA:1,_ZNKSt20_List_const_iteratorIPN12WPEFramework8Exchange20IAppGatewayResponder13INotificationEE13_M_const_castEv
FNDA:0,_ZNKSt20_List_const_iteratorIN12WPEFramework4Core9ProxyTypeINS1_9IDispatchEEEEdeEv
FNDA:0,_ZNKSt20_List_const_iteratorIN12WPEFramework4Core9TimerTypeINS1_10WorkerPool5TimerEE9TimedInfoIS4_EEEdeEv
FNDA:0,_ZNKSt20_List_const_iteratorIN12WPEFramework4Core10ThreadPool8ExecutorEEptEv
FNDA:261,_ZNKSt20_List_const_iteratorISt4pairIPKcPN12WPEFramework4Core4JSON8IElementEEEptEv
FNDA:0,_ZNSt20_List_const_iteratorIN12WPEFramework4Core9ProxyTypeINS1_9IDispatchEEEEppEv
FNDA:0,_ZNSt20_List_const_iteratorIN12WPEFramework4Core10ThreadPool8ExecutorEEppEi
FNDA:0,_ZNSt20_List_const_iteratorIN12WPEFramework4Core9ProxyTypeINS1_9IDispatchEEEEppEi
FNDA:0,_ZNSt20_List_const_iteratorIN12WPEFramework4Core9TimerTypeINS1_10WorkerPool5TimerEE9TimedInfoIS4_EEEppEi
FNDA:246,_ZNSt20_List_const_iteratorISt4pairIPKcPN12WPEFramework4Core4JSON8IElementEEEppEi
FNDA:0,_ZSteqRKSt20_List_const_iteratorIN12WPEFramework4Core10ThreadPool8ExecutorEES6_
FNDA:2,_ZSteqRKSt20_List_const_iteratorISt4pairIPKcPN12WPEFramework4Core4JSON8IElementEEESB_
FNDA:0,_ZStneRKSt20_List_const_iteratorIN12WPEFramework4Core10ThreadPool8ExecutorEES6_
FNDA:4,_ZStneRKSt20_List_const_iteratorIN12WPEFramework4Core9ProxyTypeINS1_9IDispatchEEEES7_
FNDA:4,_ZStneRKSt20_List_const_iteratorIN12WPEFramework4Core9TimerTypeINS1_10WorkerPool5TimerEE9TimedInfoIS4_EEESA_
FNDA:320,_ZStneRKSt20_List_const_iteratorISt4pairIPKcPN12WPEFramework4Core4JSON8IElementEEESB_
FNDA:1,_ZNSt7__cxx1110_List_baseIN12WPEFramework4Core10ThreadPool8ExecutorESaIS4_EE10_List_implC2Ev
FNDA:0,_ZNSt7__cxx1110_List_baseIN12WPEFramework4Core14callstack_infoESaIS3_EE10_List_implC2Ev
FNDA:1,_ZNSt7__cxx1110_List_baseIN12WPEFramework4Core9ProxyTypeINS2_9IDispatchEEESaIS5_EE10_List_implC2Ev
FNDA:1,_ZNSt7__cxx1110_List_baseIN12WPEFramework4Core9TimerTypeINS2_10WorkerPool5TimerEE9TimedInfoIS5_EESaIS8_EE10_List_implC2Ev
FNDA:29,_ZNSt7__cxx1110_List_baseIPN12WPEFramework8Exchange20IAppGatewayResponder13INotificationESaIS5_EE10_List_implC2Ev
FNDA:448,_ZNSt7__cxx1110_List_baseISt4pairIPKcPN12WPEFramework4Core4JSON8IElementEESaIS9_EE10_List_implC2Ev
FNDA:0,_ZNKSt7__cxx1110_List_baseIN12WPEFramework4Core10ThreadPool8ExecutorESaIS4_EE11_M_get_sizeEv
FNDA:2,_ZNKSt7__cxx1110_List_baseIN12WPEFramework4Core9ProxyTypeINS2_9IDispatchEEESaIS5_EE11_M_get_sizeEv
FNDA:0,_ZNKSt7__cxx1110_List_baseIN12WPEFramework4Core9TimerTypeINS2_10WorkerPool5TimerEE9TimedInfoIS5_EESaIS8_EE11_M_get_sizeEv
FNDA:0,_ZNKSt7__cxx1110_List_baseISt4pairIPKcPN12WPEFramework4Core4JSON8IElementEESaIS9_EE11_M_get_sizeEv
FNDA:2,_ZNSt7__cxx1110_List_baseIN12WPEFramework4Core10ThreadPool8ExecutorESaIS4_EE11_M_inc_sizeEm
FNDA:2,_ZNSt7__cxx1110_List_baseIN12WPEFramework4Core9ProxyTypeINS2_9IDispatchEEESaIS5_EE11_M_inc_sizeEm
FNDA:0,_ZNSt7__cxx1110_List_baseIN12WPEFramework4Core9TimerTypeINS2_10WorkerPool5TimerEE9TimedInfoIS5_EESaIS8_EE11_M_inc_sizeEm
FNDA:1,_ZNSt7__cxx1110_List_baseIPN12WPEFramework8Exchange20IAppGatewayResponder13INotificationESaIS5_EE11_M_inc_sizeEm
FNDA:224,_ZNSt7__cxx1110_List_baseISt4pairIPKcPN12WPEFramework4Core4JSON8IElementEESaIS9_EE11_M_inc_sizeEm
FNDA:2,_ZNSt7__cxx1110_List_baseIN12WPEFramework4Core9ProxyTypeINS2_9IDispatchEEESaIS5_EE11_M_dec_sizeEm
FNDA:0,_ZNSt7__cxx1110_List_baseIN12WPEFramework4Core9TimerTypeINS2_10WorkerPool5TimerEE9TimedInfoIS5_EESaIS8_EE11_M_dec_sizeEm
FNDA:1,_ZNSt7__cxx1110_List_baseIPN12WPEFramework8Exchange20IAppGatewayResponder13INotificationESaIS5_EE11_M_dec_sizeEm
FNDA:2,_ZNSt7__cxx1110_List_baseIN12WPEFramework4Core10ThreadPool8ExecutorESaIS4_EE11_M_get_nodeEv
FNDA:2,_ZNSt7__cxx1110_List_baseIN12WPEFramework4Core9ProxyTypeINS2_9IDispatchEEESaIS5_EE11_M_get_nodeEv
FNDA:0,_ZNSt7__cxx1110_List_baseIN12WPEFramework4Core9TimerTypeINS2_10WorkerPool5TimerEE9TimedInfoIS5_EESaIS8_EE11_M_get_nodeEv
FNDA:1,_ZNSt7__cxx1110_List_baseIPN12WPEFramework8Exchange20IAppGatewayResponder13INotificationESaIS5_EE11_M_get_nodeEv
FNDA:224,_ZNSt7__cxx1110_List_baseISt4pairIPKcPN12WPEFramework4Core4JSON8IElementEESaIS9_EE11_M_get_nodeEv
FNDA:2,_ZNSt7__cxx1110_List_baseIN12WPEFramework4Core10ThreadPool8ExecutorESaIS4_EE11_M_put_nodeEPSt10_List_nodeIS4_E
FNDA:0,_ZNSt7__cxx1110_List_baseIN12WPEFramework4Core14callstack_infoESaIS3_EE11_M_put_nodeEPSt10_List_nodeIS3_E
FNDA:2,_ZNSt7__cxx1110_List_baseIN12WPEFramework4Core9ProxyTypeINS2_9IDispatchEEESaIS5_EE11_M_put_nodeEPSt10_List_nodeIS5_E
FNDA:0,_ZNSt7__cxx1110_List_baseIN12WPEFramework4Core9TimerTypeINS2_10WorkerPool5TimerEE9TimedInfoIS5_EESaIS8_EE11_M_put_nodeEPSt10_List_nodeIS8_E
FNDA:1,_ZNSt7__cxx1110_List_baseIPN12WPEFramework8Exchange20IAppGatewayResponder13INotificationESaIS5_EE11_M_put_nodeEPSt10_List_nodeIS5_E
FNDA:1451,_ZNSt7__cxx1110_List_baseISt4pairIPKcPN12WPEFramework4Core4JSON8IElementEESaIS9_EE11_M_put_nodeEPSt10_List_nodeIS9_E
FNDA:4,_ZNSt7__cxx1110_List_baseIN12WPEFramework4Core10ThreadPool8ExecutorESaIS4_EE21_M_get_Node_allocatorEv
FNDA:0,_ZNSt7__cxx1110_List_baseIN12WPEFramework4Core14callstack_infoESaIS3_EE21_M_get_Node_allocatorEv
FNDA:4,_ZNSt7__cxx1110_List_baseIN12WPEFramework4Core9ProxyTypeINS2_9IDispatchEEESaIS5_EE21_M_get_Node_allocatorEv
FNDA:0,_ZNSt7__cxx1110_List_baseIN12WPEFramework4Core9TimerTypeINS2_10WorkerPool5TimerEE9TimedInfoIS5_EESaIS8_EE21_M_get_Node_allocatorEv
FNDA:2,_ZNSt7__cxx1110_List_baseIPN12WPEFramework8Exchange20IAppGatewayResponder13INotificationESaIS5_EE21_M_get_Node_allocatorEv
FNDA:1675,_ZNSt7__cxx1110_List_baseISt4pairIPKcPN12WPEFramework4Core4JSON8IElementEESaIS9_EE21_M_get_Node_allocatorEv
FNDA:1,_ZNSt7__cxx1110_List_baseIN12WPEFramework4Core10ThreadPool8ExecutorESaIS4_EEC2Ev
FNDA:0,_ZNSt7__cxx1110_List_baseIN12WPEFramework4Core14callstack_infoESaIS3_EEC2Ev
FNDA:1,_ZNSt7__cxx1110_List_baseIN12WPEFramework4Core9ProxyTypeINS2_9IDispatchEEESaIS5_EEC2Ev
FNDA:1,_ZNSt7__cxx1110_List_baseIN12WPEFramework4Core9TimerTypeINS2_10WorkerPool5TimerEE9TimedInfoIS5_EESaIS8_EEC2Ev
FNDA:29,_ZNSt7__cxx1110_List_baseIPN12WPEFramework8Exchange20IAppGatewayResponder13INotificationESaIS5_EEC2Ev
FNDA:448,_ZNSt7__cxx1110_List_baseISt4pairIPKcPN12WPEFramework4Core4JSON8IElementEESaIS9_EEC2Ev
FNDA:1,_ZNSt7__cxx1110_List_baseIN12WPEFramework4Core10ThreadPool8ExecutorESaIS4_EED2Ev
FNDA:0,_ZNSt7__cxx1110_List_baseIN12WPEFramework4Core14callstack_infoESaIS3_EED2Ev
FNDA:1,_ZNSt7__cxx1110_List_baseIN12WPEFramework4Core9ProxyTypeINS2_9IDispatchEEESaIS5_EED2Ev
FNDA:1,_ZNSt7__cxx1110_List_baseIN12WPEFramework4Core9TimerTypeINS2_10WorkerPool5TimerEE9TimedInfoIS5_EESaIS8_EED2Ev
FNDA:3,_ZNSt7__cxx1110_List_baseIPN12WPEFramework8Exchange20IAppGatewayResponder13INotificationESaIS5_EED2Ev
FNDA:448,_ZNSt7__cxx1110_List_baseISt4pairIPKcPN12WPEFramework4Core4JSON8IElementEESaIS9_EED2Ev
FNDA:1,_ZNSt7__cxx1110_List_baseIN12WPEFramework4Core10ThreadPool8ExecutorESaIS4_EE7_M_initEv
FNDA:1,_ZNSt7__cxx1110_List_baseIN12WPEFramework4Core9TimerTypeINS2_10WorkerPool5TimerEE9TimedInfoIS5_EESaIS8_EE7_M_initEv
FNDA:3,_ZNSt7__cxx1110_List_baseIPN12WPEFramework8Exchange20IAppGatewayResponder13INotificationESaIS5_EE7_M_initEv
FNDA:2,_ZNSt7__cxx114listIN12WPEFramework4Core10ThreadPool8ExecutorESaIS4_EE14_M_create_nodeIJRS3_RPNS3_11IDispatcherERKjRPKcEEEPSt10_List_nodeIS4_EDpOT_
FNDA:2,_ZNSt7__cxx114listIN12WPEFramework4Core9ProxyTypeINS2_9IDispatchEEESaIS5_EE14_M_create_nodeIJRKS5_EEEPSt10_List_nodeIS5_EDpOT_
FNDA:0,_ZNSt7__cxx114listIN12WPEFramework4Core9TimerTypeINS2_10WorkerPool5TimerEE9TimedInfoIS5_EESaIS8_EE14_M_create_nodeIJS8_EEEPSt10_List_nodeIS8_EDpOT_
FNDA:1,_ZNSt7__cxx114listIPN12WPEFramework8Exchange20IAppGatewayResponder13INotificationESaIS5_EE14_M_create_nodeIJRKS5_EEEPSt10_List_nodeIS5_EDpOT_
FNDA:224,_ZNSt7__cxx114listISt4pairIPKcPN12WPEFramework4Core4JSON8IElementEESaIS9_EE14_M_create_nodeIJS9_EEEPSt10_List_nodeIS9_EDpOT_
FNDA:0,_ZNKSt7__cxx114listIN12WPEFramework4Core10ThreadPool8ExecutorESaIS4_EE13_M_node_countEv
FNDA:2,_ZNKSt7__cxx114listIN12WPEFramework4Core9ProxyTypeINS2_9IDispatchEEESaIS5_EE13_M_node_countEv
FNDA:0,_ZNKSt7__cxx114listIN12WPEFramework4Core9TimerTypeINS2_10WorkerPool5TimerEE9TimedInfoIS5_EESaIS8_EE13_M_node_countEv
FNDA:0,_ZNKSt7__cxx114listISt4pairIPKcPN12WPEFramework4Core4JSON8IElementEESaIS9_EE13_M_node_countEv
FNDA:1,_ZNSt7__cxx114listIN12WPEFramework4Core10ThreadPool8ExecutorESaIS4_EEC2Ev
FNDA:0,_ZNSt7__cxx114listIN12WPEFramework4Core14callstack_infoESaIS3_EEC2Ev
FNDA:1,_ZNSt7__cxx114listIN12WPEFramework4Core9ProxyTypeINS2_9IDispatchEEESaIS5_EEC2Ev
FNDA:1,_ZNSt7__cxx114listIN12WPEFramework4Core9TimerTypeINS2_10WorkerPool5TimerEE9TimedInfoIS5_EESaIS8_EEC2Ev
FNDA:29,_ZNSt7__cxx114listIPN12WPEFramework8Exchange20IAppGatewayResponder13INotificationESaIS5_EEC2Ev
FNDA:448,_ZNSt7__cxx114listISt4pairIPKcPN12WPEFramework4Core4JSON8IElementEESaIS9_EEC2Ev
FNDA:1,_ZNSt7__cxx114listIN12WPEFramework4Core10ThreadPool8ExecutorESaIS4_EED2Ev
FNDA:0,_ZNSt7__cxx114listIN12WPEFramework4Core14callstack_infoESaIS3_EED2Ev
FNDA:1,_ZNSt7__cxx114listIN12WPEFramework4Core9ProxyTypeINS2_9IDispatchEEESaIS5_EED2Ev
FNDA:1,_ZNSt7__cxx114listIN12WPEFramework4Core9TimerTypeINS2_10WorkerPool5TimerEE9TimedInfoIS5_EESaIS8_EED2Ev
FNDA:3,_ZNSt7__cxx114listIPN12WPEFramework8Exchange20IAppGatewayResponder13INotificationESaIS5_EED2Ev
FNDA:448,_ZNSt7__cxx114listISt4pairIPKcPN12WPEFramework4Core4JSON8IElementEESaIS9_EED2Ev
FNF:200
FNH:127
DA:110,480
DA:111,480
DA:150,485
DA:152,485
DA:154,485
DA:156,485
DA:238,2470
DA:239,261
DA:268,1568
DA:269,1568
DA:278,134
DA:279,134
DA:283,651
DA:284,651
DA:287,1
DA:289,1
DA:290,1
DA:294,395
DA:296,395
DA:297,395
DA:298,395
DA:302,2
DA:304,2
DA:305,2
DA:309,0
DA:311,0
DA:312,0
DA:313,0
DA:318,50
DA:319,50
DA:324,663
DA:325,663
DA:350,448
DA:351,448
DA:354,47
DA:356,47
DA:358,355
DA:359,355
DA:362,3
DA:363,3
DA:368,0
DA:369,0
DA:373,261
DA:374,261
DA:377,0
DA:379,0
DA:380,0
DA:384,246
DA:386,246
DA:387,246
DA:388,246
DA:408,2
DA:409,2
DA:414,328
DA:415,328
DA:455,480
DA:457,480
DA:458,480
DA:480,2
DA:484,229
DA:486,3
DA:517,229
DA:518,458
DA:521,1456
DA:522,1456
DA:528,1685
DA:529,1685
DA:536,480
DA:574,454
DA:575,454
DA:581,5
DA:582,5
DA:708,229
DA:710,229
DA:711,229
DA:712,229
DA:713,229
DA:715,229
DA:716,229
DA:717,229
DA:727,2
DA:728,2
DA:749,480
DA:903,454
DA:1022,323
DA:1023,323
DA:1032,9
DA:1033,9
DA:1042,1239
DA:1043,1239
DA:1052,26
DA:1053,26
DA:1103,4
DA:1104,4
DA:1113,8
DA:1114,8
DA:1143,2
DA:1144,2
DA:1149,2
DA:1150,2
DA:1205,0
DA:1206,0
DA:1223,2
DA:1225,2
DA:1226,2
DA:1227,2
DA:1260,0
DA:1261,0
DA:1291,0
DA:1292,0
DA:1305,3
DA:1306,3
DA:1310,224
DA:1311,224
DA:1319,2
DA:1321,2
DA:1323,2
DA:1402,0
DA:1403,0
DA:1592,5
DA:1594,5
DA:1595,5
DA:1596,5
DA:2003,229
DA:2005,229
DA:2006,229
DA:2007,229
DA:2008,229
DA:2013,3
DA:2015,3
DA:2016,3
DA:2017,3
DA:2019,3
DA:2024,3
DA:2025,3
LF:135
LH:118
end_of_record
TN:
SF:/usr/include/c++/13/bits/stl_pair.h
FN:198,198,_ZNSt4pairIjNSt7__cxx1112basic_stringIcSt11char_traitsIcESaIcEEEEC2EOS6_
FN:558,559,_ZNSt4pairIjNSt7__cxx1112basic_stringIcSt11char_traitsIcESaIcEEEEC2IjS5_Lb1EEERKjRKS5_
FN:687,689,_ZNSt4pairINSt8__detail14_Node_iteratorIS_IKNSt7__cxx1112basic_stringIcSt11char_traitsIcESaIcEEEN12WPEFramework10PluginHost7JSONRPC8ObserverEELb0ELb1EEEbEC2IRSE_bLb1EEEOT_OT0_
FN:687,689,_ZNSt4pairINSt8__detail14_Node_iteratorIS_IKNSt7__cxx1112basic_stringIcSt11char_traitsIcESaIcEEEN12WPEFramework10PluginHost7JSONRPC8ObserverEELb0ELb1EEEbEC2ISE_bLb1EEEOT_OT0_
FN:687,689,_ZNSt4pairIPKcPN12WPEFramework4Core4JSON8IElementEEC2IRS1_RS6_Lb1EEEOT_OT0_
FN:737,746,_ZNSt4pairIjNSt7__cxx1112basic_stringIcSt11char_traitsIcESaIcEEEEaSEOS6_
FNDA:0,_ZNSt4pairIjNSt7__cxx1112basic_stringIcSt11char_traitsIcESaIcEEEEC2EOS6_
FNDA:0,_ZNSt4pairIjNSt7__cxx1112basic_stringIcSt11char_traitsIcESaIcEEEEC2IjS5_Lb1EEERKjRKS5_
FNDA:0,_ZNSt4pairINSt8__detail14_Node_iteratorIS_IKNSt7__cxx1112basic_stringIcSt11char_traitsIcESaIcEEEN12WPEFramework10PluginHost7JSONRPC8ObserverEELb0ELb1EEEbEC2IRSE_bLb1EEEOT_OT0_
FNDA:0,_ZNSt4pairINSt8__detail14_Node_iteratorIS_IKNSt7__cxx1112basic_stringIcSt11char_traitsIcESaIcEEEN12WPEFramework10PluginHost7JSONRPC8ObserverEELb0ELb1EEEbEC2ISE_bLb1EEEOT_OT0_
FNDA:224,_ZNSt4pairIPKcPN12WPEFramework4Core4JSON8IElementEEC2IRS1_RS6_Lb1EEEOT_OT0_
FNDA:0,_ZNSt4pairIjNSt7__cxx1112basic_stringIcSt11char_traitsIcESaIcEEEEaSEOS6_
FNF:6
FNH:1
DA:198,0
DA:558,0
DA:559,0
DA:687,224
DA:688,224
DA:689,224
DA:737,0
DA:743,0
DA:744,0
DA:745,0
LF:10
LH:3
end_of_record
TN:
SF:/usr/include/c++/13/bits/stl_uninitialized.h
FN:1069,1079,_ZSt19__relocate_object_aINSt7__cxx1112basic_stringIcSt11char_traitsIcESaIcEEES5_SaIS5_EEvPT_PT0_RT1_
FN:1069,1079,_ZSt19__relocate_object_aISt4pairIjNSt7__cxx1112basic_stringIcSt11char_traitsIcESaIcEEEES7_SaIS7_EEvPT_PT0_RT1_
FN:1091,1108,_ZSt14__relocate_a_1IPNSt7__cxx1112basic_stringIcSt11char_traitsIcESaIcEEES6_SaIS5_EET0_T_S9_S8_RT1_
FN:1091,1108,_ZSt14__relocate_a_1IPSt4pairIjNSt7__cxx1112basic_stringIcSt11char_traitsIcESaIcEEEES8_SaIS7_EET0_T_SB_SA_RT1_
FN:1114,1134,_ZSt14__relocate_a_1IPN12WPEFramework10PluginHost11IDispatcher9ICallbackES4_ENSt9enable_ifIXsrSt24__is_bitwise_relocatableIT_vE5valueEPS7_E4typeES9_S9_S9_RSaIT0_E
FN:113,128,_ZSt16__do_uninit_copyIN9__gnu_cxx17__normal_iteratorIPKNSt7__cxx1112basic_stringIcSt11char_traitsIcESaIcEEESt6vectorIS7_SaIS7_EEEEPS7_ET0_T_SG_SF_
FN:113,128,_ZSt16__do_uninit_copyIPKNSt7__cxx1112basic_stringIcSt11char_traitsIcESaIcEEEPS5_ET0_T_SA_S9_
FN:1141,1150,_ZSt12__relocate_aIPNSt7__cxx1112basic_stringIcSt11char_traitsIcESaIcEEES6_SaIS5_EET0_T_S9_S8_RT1_
FN:1141,1150,_ZSt12__relocate_aIPPN12WPEFramework10PluginHost11IDispatcher9ICallbackES5_SaIS4_EET0_T_S8_S7_RT1_
FN:1141,1150,_ZSt12__relocate_aIPSt4pairIjNSt7__cxx1112basic_stringIcSt11char_traitsIcESaIcEEEES8_SaIS7_EET0_T_SB_SA_RT1_
FN:135,137,_ZNSt20__uninitialized_copyILb0EE13__uninit_copyIN9__gnu_cxx17__normal_iteratorIPKNSt7__cxx1112basic_stringIcSt11char_traitsIcESaIcEEESt6vectorIS9_SaIS9_EEEEPS9_EET0_T_SI_SH_
FN:135,137,_ZNSt20__uninitialized_copyILb0EE13__uninit_copyIPKNSt7__cxx1112basic_stringIcSt11char_traitsIcESaIcEEEPS7_EET0_T_SC_SB_
FN:163,186,_ZSt18uninitialized_copyIN9__gnu_cxx17__normal_iteratorIPKNSt7__cxx1112basic_stringIcSt11char_traitsIcESaIcEEESt6vectorIS7_SaIS7_EEEEPS7_ET0_T_SG_SF_
FN:163,186,_ZSt18uninitialized_copyIPKNSt7__cxx1112basic_stringIcSt11char_traitsIcESaIcEEEPS5_ET0_T_SA_S9_
FN:366,374,_ZSt22__uninitialized_copy_aIN9__gnu_cxx17__normal_iteratorIPKNSt7__cxx1112basic_stringIcSt11char_traitsIcESaIcEEESt6vectorIS7_SaIS7_EEEEPS7_S7_ET0_T_SG_SF_RSaIT1_E
FN:366,374,_ZSt22__uninitialized_copy_aIPKNSt7__cxx1112basic_stringIcSt11char_traitsIcESaIcEEEPS5_S5_ET0_T_SA_S9_RSaIT1_E
FNDA:0,_ZSt19__relocate_object_aINSt7__cxx1112basic_stringIcSt11char_traitsIcESaIcEEES5_SaIS5_EEvPT_PT0_RT1_
FNDA:0,_ZSt19__relocate_object_aISt4pairIjNSt7__cxx1112basic_stringIcSt11char_traitsIcESaIcEEEES7_SaIS7_EEvPT_PT0_RT1_
FNDA:8,_ZSt14__relocate_a_1IPNSt7__cxx1112basic_stringIcSt11char_traitsIcESaIcEEES6_SaIS5_EET0_T_S9_S8_RT1_
FNDA:0,_ZSt14__relocate_a_1IPSt4pairIjNSt7__cxx1112basic_stringIcSt11char_traitsIcESaIcEEEES8_SaIS7_EET0_T_SB_SA_RT1_
FNDA:0,_ZSt14__relocate_a_1IPN12WPEFramework10PluginHost11IDispatcher9ICallbackES4_ENSt9enable_ifIXsrSt24__is_bitwise_relocatableIT_vE5valueEPS7_E4typeES9_S9_S9_RSaIT0_E
FNDA:4,_ZSt16__do_uninit_copyIN9__gnu_cxx17__normal_iteratorIPKNSt7__cxx1112basic_stringIcSt11char_traitsIcESaIcEEESt6vectorIS7_SaIS7_EEEEPS7_ET0_T_SG_SF_
FNDA:6,_ZSt16__do_uninit_copyIPKNSt7__cxx1112basic_stringIcSt11char_traitsIcESaIcEEEPS5_ET0_T_SA_S9_
FNDA:8,_ZSt12__relocate_aIPNSt7__cxx1112basic_stringIcSt11char_traitsIcESaIcEEES6_SaIS5_EET0_T_S9_S8_RT1_
FNDA:0,_ZSt12__relocate_aIPPN12WPEFramework10PluginHost11IDispatcher9ICallbackES5_SaIS4_EET0_T_S8_S7_RT1_
FNDA:0,_ZSt12__relocate_aIPSt4pairIjNSt7__cxx1112basic_stringIcSt11char_traitsIcESaIcEEEES8_SaIS7_EET0_T_SB_SA_RT1_
FNDA:4,_ZNSt20__uninitialized_copyILb0EE13__uninit_copyIN9__gnu_cxx17__normal_iteratorIPKNSt7__cxx1112basic_stringIcSt11char_traitsIcESaIcEEESt6vectorIS9_SaIS9_EEEEPS9_EET0_T_SI_SH_
FNDA:6,_ZNSt20__uninitialized_copyILb0EE13__uninit_copyIPKNSt7__cxx1112basic_stringIcSt11char_traitsIcESaIcEEEPS7_EET0_T_SC_SB_
FNDA:4,_ZSt18uninitialized_copyIN9__gnu_cxx17__normal_iteratorIPKNSt7__cxx1112basic_stringIcSt11char_traitsIcESaIcEEESt6vectorIS7_SaIS7_EEEEPS7_ET0_T_SG_SF_
FNDA:6,_ZSt18uninitialized_copyIPKNSt7__cxx1112basic_stringIcSt11char_traitsIcESaIcEEEPS5_ET0_T_SA_S9_
FNDA:4,_ZSt22__uninitialized_copy_aIN9__gnu_cxx17__normal_iteratorIPKNSt7__cxx1112basic_stringIcSt11char_traitsIcESaIcEEESt6vectorIS7_SaIS7_EEEEPS7_S7_ET0_T_SG_SF_RSaIT1_E
FNDA:6,_ZSt22__uninitialized_copy_aIPKNSt7__cxx1112basic_stringIcSt11char_traitsIcESaIcEEEPS5_S5_ET0_T_SA_S9_RSaIT1_E
FNF:16
FNH:10
DA:113,10
DA:116,10
DA:119,20
DA:120,10
DA:121,10
DA:123,0
DA:125,0
DA:126,0
DA:135,10
DA:137,10
DA:163,10
DA:174,10
DA:181,10
DA:185,10
DA:366,10
DA:373,10
DA:1069,0
DA:1077,0
DA:1078,0
DA:1079,0
DA:1091,8
DA:1103,8
DA:1104,8
DA:1105,0
DA:1107,8
DA:1114,0
DA:1118,0
DA:1119,0
DA:1131,0
DA:1133,0
DA:1141,8
DA:1147,8
DA:1149,8
LF:33
LH:20
end_of_record
TN:
SF:/usr/include/c++/13/bits/stl_vector.h
FN:1088,1089,_ZNKSt6vectorIPN12WPEFramework10PluginHost11IDispatcher9ICallbackESaIS4_EE5emptyEv
FN:1088,1089,_ZNKSt6vectorISt4pairIjNSt7__cxx1112basic_stringIcSt11char_traitsIcESaIcEEEESaIS7_EE5emptyEv
FN:1126,1130,_ZNSt6vectorINSt7__cxx1112basic_stringIcSt11char_traitsIcESaIcEEESaIS5_EEixEm
FN:1145,1149,_ZNKSt6vectorINSt7__cxx1112basic_stringIcSt11char_traitsIcESaIcEEESaIS5_EEixEm
FN:1233,1237,_ZNSt6vectorINSt7__cxx1112basic_stringIcSt11char_traitsIcESaIcEEESaIS5_EE4backEv
FN:1233,1237,_ZNSt6vectorIPN12WPEFramework10PluginHost11IDispatcher9ICallbackESaIS4_EE4backEv
FN:1233,1237,_ZNSt6vectorISt4pairIjNSt7__cxx1112basic_stringIcSt11char_traitsIcESaIcEEEESaIS7_EE4backEv
FN:137,143,_ZNSt12_Vector_baseINSt7__cxx1112basic_stringIcSt11char_traitsIcESaIcEEESaIS5_EE12_Vector_implC2Ev
FN:137,143,_ZNSt12_Vector_baseIPN12WPEFramework10PluginHost11IDispatcher9ICallbackESaIS4_EE12_Vector_implC2Ev
FN:137,143,_ZNSt12_Vector_baseISt4pairIjNSt7__cxx1112basic_stringIcSt11char_traitsIcESaIcEEEESaIS7_EE12_Vector_implC2Ev
FN:146,148,_ZNSt12_Vector_baseINSt7__cxx1112basic_stringIcSt11char_traitsIcESaIcEEESaIS5_EE12_Vector_implC2ERKS6_
FN:1534,1535,_ZNSt6vectorIPN12WPEFramework10PluginHost11IDispatcher9ICallbackESaIS4_EE5eraseEN9__gnu_cxx17__normal_iteratorIPKS4_S6_EE
FN:1534,1535,_ZNSt6vectorISt4pairIjNSt7__cxx1112basic_stringIcSt11char_traitsIcESaIcEEEESaIS7_EE5eraseEN9__gnu_cxx17__normal_iteratorIPKS7_S9_EE
FN:1687,1698,_ZNSt6vectorINSt7__cxx1112basic_stringIcSt11char_traitsIcESaIcEEESaIS5_EE19_M_range_initializeIPKS5_EEvT_SB_St20forward_iterator_tag
FN:1896,1903,_ZNKSt6vectorINSt7__cxx1112basic_stringIcSt11char_traitsIcESaIcEEESaIS5_EE12_M_check_lenEmPKc
FN:1896,1903,_ZNKSt6vectorIPN12WPEFramework10PluginHost11IDispatcher9ICallbackESaIS4_EE12_M_check_lenEmPKc
FN:1896,1903,_ZNKSt6vectorISt4pairIjNSt7__cxx1112basic_stringIcSt11char_traitsIcESaIcEEEESaIS7_EE12_M_check_lenEmPKc
FN:1907,1913,_ZNSt6vectorINSt7__cxx1112basic_stringIcSt11char_traitsIcESaIcEEESaIS5_EE17_S_check_init_lenEmRKS6_
FN:1916,1925,_ZNSt6vectorINSt7__cxx1112basic_stringIcSt11char_traitsIcESaIcEEESaIS5_EE11_S_max_sizeERKS6_
FN:1916,1925,_ZNSt6vectorIPN12WPEFramework10PluginHost11IDispatcher9ICallbackESaIS4_EE11_S_max_sizeERKS5_
FN:1916,1925,_ZNSt6vectorISt4pairIjNSt7__cxx1112basic_stringIcSt11char_traitsIcESaIcEEEESaIS7_EE11_S_max_sizeERKS8_
FN:301,302,_ZNSt12_Vector_baseINSt7__cxx1112basic_stringIcSt11char_traitsIcESaIcEEESaIS5_EE19_M_get_Tp_allocatorEv
FN:301,302,_ZNSt12_Vector_baseIPN12WPEFramework10PluginHost11IDispatcher9ICallbackESaIS4_EE19_M_get_Tp_allocatorEv
FN:301,302,_ZNSt12_Vector_baseISt4pairIjNSt7__cxx1112basic_stringIcSt11char_traitsIcESaIcEEEESaIS7_EE19_M_get_Tp_allocatorEv
FN:306,307,_ZNKSt12_Vector_baseINSt7__cxx1112basic_stringIcSt11char_traitsIcESaIcEEESaIS5_EE19_M_get_Tp_allocatorEv
FN:306,307,_ZNKSt12_Vector_baseIPN12WPEFramework10PluginHost11IDispatcher9ICallbackESaIS4_EE19_M_get_Tp_allocatorEv
FN:306,307,_ZNKSt12_Vector_baseISt4pairIjNSt7__cxx1112basic_stringIcSt11char_traitsIcESaIcEEEESaIS7_EE19_M_get_Tp_allocatorEv
FN:315,315,_ZNSt12_Vector_baseINSt7__cxx1112basic_stringIcSt11char_traitsIcESaIcEEESaIS5_EEC2Ev
FN:315,315,_ZNSt12_Vector_baseIPN12WPEFramework10PluginHost11IDispatcher9ICallbackESaIS4_EEC2Ev
FN:315,315,_ZNSt12_Vector_baseISt4pairIjNSt7__cxx1112basic_stringIcSt11char_traitsIcESaIcEEEESaIS7_EEC2Ev
FN:321,322,_ZNSt12_Vector_baseINSt7__cxx1112basic_stringIcSt11char_traitsIcESaIcEEESaIS5_EEC2ERKS6_
FN:333,335,_ZNSt12_Vector_baseINSt7__cxx1112basic_stringIcSt11char_traitsIcESaIcEEESaIS5_EEC2EmRKS6_
FN:367,371,_ZNSt12_Vector_baseINSt7__cxx1112basic_stringIcSt11char_traitsIcESaIcEEESaIS5_EED2Ev
FN:367,371,_ZNSt12_Vector_baseIPN12WPEFramework10PluginHost11IDispatcher9ICallbackESaIS4_EED2Ev
FN:367,371,_ZNSt12_Vector_baseISt4pairIjNSt7__cxx1112basic_stringIcSt11char_traitsIcESaIcEEEESaIS7_EED2Ev
FN:378,382,_ZNSt12_Vector_baseINSt7__cxx1112basic_stringIcSt11char_traitsIcESaIcEEESaIS5_EE11_M_allocateEm
FN:378,382,_ZNSt12_Vector_baseIPN12WPEFramework10PluginHost11IDispatcher9ICallbackESaIS4_EE11_M_allocateEm
FN:378,382,_ZNSt12_Vector_baseISt4pairIjNSt7__cxx1112basic_stringIcSt11char_traitsIcESaIcEEEESaIS7_EE11_M_allocateEm
FN:386,391,_ZNSt12_Vector_baseINSt7__cxx1112basic_stringIcSt11char_traitsIcESaIcEEESaIS5_EE13_M_deallocateEPS5_m
FN:386,391,_ZNSt12_Vector_baseIPN12WPEFramework10PluginHost11IDispatcher9ICallbackESaIS4_EE13_M_deallocateEPS4_m
FN:386,391,_ZNSt12_Vector_baseISt4pairIjNSt7__cxx1112basic_stringIcSt11char_traitsIcESaIcEEEESaIS7_EE13_M_deallocateEPS7_m
FN:396,401,_ZNSt12_Vector_baseINSt7__cxx1112basic_stringIcSt11char_traitsIcESaIcEEESaIS5_EE17_M_create_storageEm
FN:504,514,_ZNSt6vectorINSt7__cxx1112basic_stringIcSt11char_traitsIcESaIcEEESaIS5_EE11_S_relocateEPS5_S8_S8_RS6_
FN:504,514,_ZNSt6vectorIPN12WPEFramework10PluginHost11IDispatcher9ICallbackESaIS4_EE11_S_relocateEPS4_S7_S7_RS5_
FN:504,514,_ZNSt6vectorISt4pairIjNSt7__cxx1112basic_stringIcSt11char_traitsIcESaIcEEEESaIS7_EE11_S_relocateEPS7_SA_SA_RS8_
FN:531,531,_ZNSt6vectorINSt7__cxx1112basic_stringIcSt11char_traitsIcESaIcEEESaIS5_EEC2Ev
FN:531,531,_ZNSt6vectorIPN12WPEFramework10PluginHost11IDispatcher9ICallbackESaIS4_EEC2Ev
FN:531,531,_ZNSt6vectorISt4pairIjNSt7__cxx1112basic_stringIcSt11char_traitsIcESaIcEEEESaIS7_EEC2Ev
FN:601,609,_ZNSt6vectorINSt7__cxx1112basic_stringIcSt11char_traitsIcESaIcEEESaIS5_EEC2ERKS7_
FN:678,684,_ZNSt6vectorINSt7__cxx1112basic_stringIcSt11char_traitsIcESaIcEEESaIS5_EEC2ESt16initializer_listIS5_ERKS6_
FN:733,738,_ZNSt6vectorINSt7__cxx1112basic_stringIcSt11char_traitsIcESaIcEEESaIS5_EED2Ev
FN:733,738,_ZNSt6vectorIPN12WPEFramework10PluginHost11IDispatcher9ICallbackESaIS4_EED2Ev
FN:733,738,_ZNSt6vectorISt4pairIjNSt7__cxx1112basic_stringIcSt11char_traitsIcESaIcEEEESaIS7_EED2Ev
FN:873,874,_ZNSt6vectorINSt7__cxx1112basic_stringIcSt11char_traitsIcESaIcEEESaIS5_EE5beginEv
FN:873,874,_ZNSt6vectorIPN12WPEFramework10PluginHost11IDispatcher9ICallbackESaIS4_EE5beginEv
FN:873,874,_ZNSt6vectorISt4pairIjNSt7__cxx1112basic_stringIcSt11char_traitsIcESaIcEEEESaIS7_EE5beginEv
FN:883,884,_ZNKSt6vectorINSt7__cxx1112basic_stringIcSt11char_traitsIcESaIcEEESaIS5_EE5beginEv
FN:883,884,_ZNKSt6vectorIPN12WPEFramework10PluginHost11IDispatcher9ICallbackESaIS4_EE5beginEv
FN:883,884,_ZNKSt6vectorISt4pairIjNSt7__cxx1112basic_stringIcSt11char_traitsIcESaIcEEEESaIS7_EE5beginEv
FN:883,884,_ZNKSt6vectorIhSaIhEE5beginEv
FN:893,894,_ZNSt6vectorINSt7__cxx1112basic_stringIcSt11char_traitsIcESaIcEEESaIS5_EE3endEv
FN:893,894,_ZNSt6vectorIPN12WPEFramework10PluginHost11IDispatcher9ICallbackESaIS4_EE3endEv
FN:893,894,_ZNSt6vectorISt4pairIjNSt7__cxx1112basic_stringIcSt11char_traitsIcESaIcEEEESaIS7_EE3endEv
FN:903,904,_ZNKSt6vectorINSt7__cxx1112basic_stringIcSt11char_traitsIcESaIcEEESaIS5_EE3endEv
FN:903,904,_ZNKSt6vectorIPN12WPEFramework10PluginHost11IDispatcher9ICallbackESaIS4_EE3endEv
FN:903,904,_ZNKSt6vectorISt4pairIjNSt7__cxx1112basic_stringIcSt11char_traitsIcESaIcEEEESaIS7_EE3endEv
FN:903,904,_ZNKSt6vectorIhSaIhEE3endEv
FN:954,955,_ZNKSt6vectorIPN12WPEFramework10PluginHost11IDispatcher9ICallbackESaIS4_EE6cbeginEv
FN:954,955,_ZNKSt6vectorISt4pairIjNSt7__cxx1112basic_stringIcSt11char_traitsIcESaIcEEEESaIS7_EE6cbeginEv
FN:99,101,_ZNSt12_Vector_baseINSt7__cxx1112basic_stringIcSt11char_traitsIcESaIcEEESaIS5_EE17_Vector_impl_dataC2Ev
FN:99,101,_ZNSt12_Vector_baseIPN12WPEFramework10PluginHost11IDispatcher9ICallbackESaIS4_EE17_Vector_impl_dataC2Ev
FN:99,101,_ZNSt12_Vector_baseISt4pairIjNSt7__cxx1112basic_stringIcSt11char_traitsIcESaIcEEEESaIS7_EE17_Vector_impl_dataC2Ev
FN:992,993,_ZNKSt6vectorINSt7__cxx1112basic_stringIcSt11char_traitsIcESaIcEEESaIS5_EE4sizeEv
FN:992,993,_ZNKSt6vectorIPN12WPEFramework10PluginHost11IDispatcher9ICallbackESaIS4_EE4sizeEv
FN:992,993,_ZNKSt6vectorISt4pairIjNSt7__cxx1112basic_stringIcSt11char_traitsIcESaIcEEEESaIS7_EE4sizeEv
FN:998,999,_ZNKSt6vectorINSt7__cxx1112basic_stringIcSt11char_traitsIcESaIcEEESaIS5_EE8max_sizeEv
FN:998,999,_ZNKSt6vectorIPN12WPEFramework10PluginHost11IDispatcher9ICallbackESaIS4_EE8max_sizeEv
FN:998,999,_ZNKSt6vectorISt4pairIjNSt7__cxx1112basic_stringIcSt11char_traitsIcESaIcEEEESaIS7_EE8max_sizeEv
FNDA:0,_ZNKSt6vectorIPN12WPEFramework10PluginHost11IDispatcher9ICallbackESaIS4_EE5emptyEv
FNDA:0,_ZNKSt6vectorISt4pairIjNSt7__cxx1112basic_stringIcSt11char_traitsIcESaIcEEEESaIS7_EE5emptyEv
FNDA:9,_ZNSt6vectorINSt7__cxx1112basic_stringIcSt11char_traitsIcESaIcEEESaIS5_EEixEm
FNDA:0,_ZNKSt6vectorINSt7__cxx1112basic_stringIcSt11char_traitsIcESaIcEEESaIS5_EEixEm
FNDA:1,_ZNSt6vectorINSt7__cxx1112basic_stringIcSt11char_traitsIcESaIcEEESaIS5_EE4backEv
FNDA:0,_ZNSt6vectorIPN12WPEFramework10PluginHost11IDispatcher9ICallbackESaIS4_EE4backEv
FNDA:0,_ZNSt6vectorISt4pairIjNSt7__cxx1112basic_stringIcSt11char_traitsIcESaIcEEEESaIS7_EE4backEv
FNDA:5,_ZNSt12_Vector_baseINSt7__cxx1112basic_stringIcSt11char_traitsIcESaIcEEESaIS5_EE12_Vector_implC2Ev
FNDA:0,_ZNSt12_Vector_baseIPN12WPEFramework10PluginHost11IDispatcher9ICallbackESaIS4_EE12_Vector_implC2Ev
FNDA:0,_ZNSt12_Vector_baseISt4pairIjNSt7__cxx1112basic_stringIcSt11char_traitsIcESaIcEEEESaIS7_EE12_Vector_implC2Ev
FNDA:10,_ZNSt12_Vector_baseINSt7__cxx1112basic_stringIcSt11char_traitsIcESaIcEEESaIS5_EE12_Vector_implC2ERKS6_
FNDA:0,_ZNSt6vectorIPN12WPEFramework10PluginHost11IDispatcher9ICallbackESaIS4_EE5eraseEN9__gnu_cxx17__normal_iteratorIPKS4_S6_EE
FNDA:0,_ZNSt6vectorISt4pairIjNSt7__cxx1112basic_stringIcSt11char_traitsIcESaIcEEEESaIS7_EE5eraseEN9__gnu_cxx17__normal_iteratorIPKS7_S9_EE
FNDA:6,_ZNSt6vectorINSt7__cxx1112basic_stringIcSt11char_traitsIcESaIcEEESaIS5_EE19_M_range_initializeIPKS5_EEvT_SB_St20forward_iterator_tag
FNDA:4,_ZNKSt6vectorINSt7__cxx1112basic_stringIcSt11char_traitsIcESaIcEEESaIS5_EE12_M_check_lenEmPKc
FNDA:0,_ZNKSt6vectorIPN12WPEFramework10PluginHost11IDispatcher9ICallbackESaIS4_EE12_M_check_lenEmPKc
FNDA:0,_ZNKSt6vectorISt4pairIjNSt7__cxx1112basic_stringIcSt11char_traitsIcESaIcEEEESaIS7_EE12_M_check_lenEmPKc
FNDA:6,_ZNSt6vectorINSt7__cxx1112basic_stringIcSt11char_traitsIcESaIcEEESaIS5_EE17_S_check_init_lenEmRKS6_
FNDA:14,_ZNSt6vectorINSt7__cxx1112basic_stringIcSt11char_traitsIcESaIcEEESaIS5_EE11_S_max_sizeERKS6_
FNDA:0,_ZNSt6vectorIPN12WPEFramework10PluginHost11IDispatcher9ICallbackESaIS4_EE11_S_max_sizeERKS5_
FNDA:0,_ZNSt6vectorISt4pairIjNSt7__cxx1112basic_stringIcSt11char_traitsIcESaIcEEEESaIS7_EE11_S_max_sizeERKS8_
FNDA:39,_ZNSt12_Vector_baseINSt7__cxx1112basic_stringIcSt11char_traitsIcESaIcEEESaIS5_EE19_M_get_Tp_allocatorEv
FNDA:0,_ZNSt12_Vector_baseIPN12WPEFramework10PluginHost11IDispatcher9ICallbackESaIS4_EE19_M_get_Tp_allocatorEv
FNDA:0,_ZNSt12_Vector_baseISt4pairIjNSt7__cxx1112basic_stringIcSt11char_traitsIcESaIcEEEESaIS7_EE19_M_get_Tp_allocatorEv
FNDA:12,_ZNKSt12_Vector_baseINSt7__cxx1112basic_stringIcSt11char_traitsIcESaIcEEESaIS5_EE19_M_get_Tp_allocatorEv
FNDA:0,_ZNKSt12_Vector_baseIPN12WPEFramework10PluginHost11IDispatcher9ICallbackESaIS4_EE19_M_get_Tp_allocatorEv
FNDA:0,_ZNKSt12_Vector_baseISt4pairIjNSt7__cxx1112basic_stringIcSt11char_traitsIcESaIcEEEESaIS7_EE19_M_get_Tp_allocatorEv
FNDA:5,_ZNSt12_Vector_baseINSt7__cxx1112basic_stringIcSt11char_traitsIcESaIcEEESaIS5_EEC2Ev
FNDA:0,_ZNSt12_Vector_baseIPN12WPEFramework10PluginHost11IDispatcher9ICallbackESaIS4_EEC2Ev
FNDA:0,_ZNSt12_Vector_baseISt4pairIjNSt7__cxx1112basic_stringIcSt11char_traitsIcESaIcEEEESaIS7_EEC2Ev
FNDA:6,_ZNSt12_Vector_baseINSt7__cxx1112basic_stringIcSt11char_traitsIcESaIcEEESaIS5_EEC2ERKS6_
FNDA:4,_ZNSt12_Vector_baseINSt7__cxx1112basic_stringIcSt11char_traitsIcESaIcEEESaIS5_EEC2EmRKS6_
FNDA:15,_ZNSt12_Vector_baseINSt7__cxx1112basic_stringIcSt11char_traitsIcESaIcEEESaIS5_EED2Ev
FNDA:0,_ZNSt12_Vector_baseIPN12WPEFramework10PluginHost11IDispatcher9ICallbackESaIS4_EED2Ev
FNDA:0,_ZNSt12_Vector_baseISt4pairIjNSt7__cxx1112basic_stringIcSt11char_traitsIcESaIcEEEESaIS7_EED2Ev
FNDA:14,_ZNSt12_Vector_baseINSt7__cxx1112basic_stringIcSt11char_traitsIcESaIcEEESaIS5_EE11_M_allocateEm
FNDA:0,_ZNSt12_Vector_baseIPN12WPEFramework10PluginHost11IDispatcher9ICallbackESaIS4_EE11_M_allocateEm
FNDA:0,_ZNSt12_Vector_baseISt4pairIjNSt7__cxx1112basic_stringIcSt11char_traitsIcESaIcEEEESaIS7_EE11_M_allocateEm
FNDA:19,_ZNSt12_Vector_baseINSt7__cxx1112basic_stringIcSt11char_traitsIcESaIcEEESaIS5_EE13_M_deallocateEPS5_m
FNDA:0,_ZNSt12_Vector_baseIPN12WPEFramework10PluginHost11IDispatcher9ICallbackESaIS4_EE13_M_deallocateEPS4_m
FNDA:0,_ZNSt12_Vector_baseISt4pairIjNSt7__cxx1112basic_stringIcSt11char_traitsIcESaIcEEEESaIS7_EE13_M_deallocateEPS7_m
FNDA:4,_ZNSt12_Vector_baseINSt7__cxx1112basic_stringIcSt11char_traitsIcESaIcEEESaIS5_EE17_M_create_storageEm
FNDA:8,_ZNSt6vectorINSt7__cxx1112basic_stringIcSt11char_traitsIcESaIcEEESaIS5_EE11_S_relocateEPS5_S8_S8_RS6_
FNDA:0,_ZNSt6vectorIPN12WPEFramework10PluginHost11IDispatcher9ICallbackESaIS4_EE11_S_relocateEPS4_S7_S7_RS5_
FNDA:0,_ZNSt6vectorISt4pairIjNSt7__cxx1112basic_stringIcSt11char_traitsIcESaIcEEEESaIS7_EE11_S_relocateEPS7_SA_SA_RS8_
FNDA:5,_ZNSt6vectorINSt7__cxx1112basic_stringIcSt11char_traitsIcESaIcEEESaIS5_EEC2Ev
FNDA:0,_ZNSt6vectorIPN12WPEFramework10PluginHost11IDispatcher9ICallbackESaIS4_EEC2Ev
FNDA:0,_ZNSt6vectorISt4pairIjNSt7__cxx1112basic_stringIcSt11char_traitsIcESaIcEEEESaIS7_EEC2Ev
FNDA:4,_ZNSt6vectorINSt7__cxx1112basic_stringIcSt11char_traitsIcESaIcEEESaIS5_EEC2ERKS7_
FNDA:6,_ZNSt6vectorINSt7__cxx1112basic_stringIcSt11char_traitsIcESaIcEEESaIS5_EEC2ESt16initializer_listIS5_ERKS6_
FNDA:15,_ZNSt6vectorINSt7__cxx1112basic_stringIcSt11char_traitsIcESaIcEEESaIS5_EED2Ev
FNDA:0,_ZNSt6vectorIPN12WPEFramework10PluginHost11IDispatcher9ICallbackESaIS4_EED2Ev
FNDA:0,_ZNSt6vectorISt4pairIjNSt7__cxx1112basic_stringIcSt11char_traitsIcESaIcEEEESaIS7_EED2Ev
FNDA:4,_ZNSt6vectorINSt7__cxx1112basic_stringIcSt11char_traitsIcESaIcEEESaIS5_EE5beginEv
FNDA:0,_ZNSt6vectorIPN12WPEFramework10PluginHost11IDispatcher9ICallbackESaIS4_EE5beginEv
FNDA:0,_ZNSt6vectorISt4pairIjNSt7__cxx1112basic_stringIcSt11char_traitsIcESaIcEEEESaIS7_EE5beginEv
FNDA:7,_ZNKSt6vectorINSt7__cxx1112basic_stringIcSt11char_traitsIcESaIcEEESaIS5_EE5beginEv
FNDA:0,_ZNKSt6vectorIPN12WPEFramework10PluginHost11IDispatcher9ICallbackESaIS4_EE5beginEv
FNDA:0,_ZNKSt6vectorISt4pairIjNSt7__cxx1112basic_stringIcSt11char_traitsIcESaIcEEEESaIS7_EE5beginEv
FNDA:0,_ZNKSt6vectorIhSaIhEE5beginEv
FNDA:5,_ZNSt6vectorINSt7__cxx1112basic_stringIcSt11char_traitsIcESaIcEEESaIS5_EE3endEv
FNDA:0,_ZNSt6vectorIPN12WPEFramework10PluginHost11IDispatcher9ICallbackESaIS4_EE3endEv
FNDA:0,_ZNSt6vectorISt4pairIjNSt7__cxx1112basic_stringIcSt11char_traitsIcESaIcEEEESaIS7_EE3endEv
FNDA:7,_ZNKSt6vectorINSt7__cxx1112basic_stringIcSt11char_traitsIcESaIcEEESaIS5_EE3endEv
FNDA:0,_ZNKSt6vectorIPN12WPEFramework10PluginHost11IDispatcher9ICallbackESaIS4_EE3endEv
FNDA:0,_ZNKSt6vectorISt4pairIjNSt7__cxx1112basic_stringIcSt11char_traitsIcESaIcEEEESaIS7_EE3endEv
FNDA:0,_ZNKSt6vectorIhSaIhEE3endEv
FNDA:0,_ZNKSt6vectorIPN12WPEFramework10PluginHost11IDispatcher9ICallbackESaIS4_EE6cbeginEv
FNDA:0,_ZNKSt6vectorISt4pairIjNSt7__cxx1112basic_stringIcSt11char_traitsIcESaIcEEEESaIS7_EE6cbeginEv
FNDA:15,_ZNSt12_Vector_baseINSt7__cxx1112basic_stringIcSt11char_traitsIcESaIcEEESaIS5_EE17_Vector_impl_dataC2Ev
FNDA:0,_ZNSt12_Vector_baseIPN12WPEFramework10PluginHost11IDispatcher9ICallbackESaIS4_EE17_Vector_impl_dataC2Ev
FNDA:0,_ZNSt12_Vector_baseISt4pairIjNSt7__cxx1112basic_stringIcSt11char_traitsIcESaIcEEEESaIS7_EE17_Vector_impl_dataC2Ev
FNDA:47,_ZNKSt6vectorINSt7__cxx1112basic_stringIcSt11char_traitsIcESaIcEEESaIS5_EE4sizeEv
FNDA:0,_ZNKSt6vectorIPN12WPEFramework10PluginHost11IDispatcher9ICallbackESaIS4_EE4sizeEv
FNDA:0,_ZNKSt6vectorISt4pairIjNSt7__cxx1112basic_stringIcSt11char_traitsIcESaIcEEEESaIS7_EE4sizeEv
FNDA:8,_ZNKSt6vectorINSt7__cxx1112basic_stringIcSt11char_traitsIcESaIcEEESaIS5_EE8max_sizeEv
FNDA:0,_ZNKSt6vectorIPN12WPEFramework10PluginHost11IDispatcher9ICallbackESaIS4_EE8max_sizeEv
FNDA:0,_ZNKSt6vectorISt4pairIjNSt7__cxx1112basic_stringIcSt11char_traitsIcESaIcEEEESaIS7_EE8max_sizeEv
FNF:78
FNH:29
DA:99,15
DA:100,15
DA:101,15
DA:137,5
DA:142,5
DA:143,5
DA:146,10
DA:147,10
DA:148,10
DA:301,39
DA:302,39
DA:306,12
DA:307,12
DA:315,5
DA:321,6
DA:322,6
DA:333,4
DA:334,4
DA:335,4
DA:367,15
DA:369,15
DA:370,15
DA:371,15
DA:378,14
DA:381,28
DA:386,19
DA:389,19
DA:390,14
DA:391,19
DA:396,4
DA:398,4
DA:399,4
DA:400,4
DA:401,4
DA:504,8
DA:509,8
DA:531,5
DA:601,4
DA:603,8
DA:605,4
DA:606,4
DA:608,4
DA:609,4
DA:678,6
DA:680,6
DA:682,6
DA:683,6
DA:684,6
DA:733,15
DA:735,15
DA:736,15
DA:738,15
DA:873,4
DA:874,4
DA:883,7
DA:884,7
DA:893,5
DA:894,5
DA:903,7
DA:904,7
DA:954,0
DA:955,0
DA:992,47
DA:993,47
DA:998,8
DA:999,8
DA:1088,0
DA:1089,0
DA:1126,9
DA:1129,9
DA:1145,0
DA:1148,0
DA:1233,1
DA:1236,1
DA:1534,0
DA:1535,0
DA:1687,6
DA:1690,6
DA:1692,6
DA:1693,6
DA:1694,6
DA:1695,6
DA:1697,6
DA:1698,6
DA:1896,4
DA:1898,4
DA:1899,0
DA:1901,4
DA:1902,4
DA:1907,6
DA:1909,6
DA:1910,0
DA:1912,6
DA:1916,14
DA:1921,14
DA:1923,14
DA:1924,14
LF:97
LH:87
end_of_record
TN:
SF:/usr/include/c++/13/bits/unordered_map.h
FN:148,148,_ZNSt13unordered_mapINSt7__cxx1112basic_stringIcSt11char_traitsIcESaIcEEES5_St4hashIS5_ESt8equal_toIS5_ESaISt4pairIKS5_S5_EEEC2Ev
FN:148,148,_ZNSt13unordered_mapIjS_INSt7__cxx1112basic_stringIcSt11char_traitsIcESaIcEEES5_St4hashIS5_ESt8equal_toIS5_ESaISt4pairIKS5_S5_EEES6_IjES8_IjESaISA_IKjSE_EEEC2Ev
FN:332,333,_ZNSt13unordered_mapINSt7__cxx1112basic_stringIcSt11char_traitsIcESaIcEEEN12WPEFramework10PluginHost7JSONRPC8ObserverESt4hashIS5_ESt8equal_toIS5_ESaISt4pairIKS5_S9_EEE5beginEv
FN:354,355,_ZNSt13unordered_mapINSt7__cxx1112basic_stringIcSt11char_traitsIcESaIcEEEN12WPEFramework10PluginHost7JSONRPC8ObserverESt4hashIS5_ESt8equal_toIS5_ESaISt4pairIKS5_S9_EEE3endEv
FN:354,355,_ZNSt13unordered_mapINSt7__cxx1112basic_stringIcSt11char_traitsIcESaIcEEEN12WPEFramework4Core7JSONRPC7Handler5EntryESt4hashIS5_ESt8equal_toIS5_ESaISt4pairIKS5_SA_EEE3endEv
FN:354,355,_ZNSt13unordered_mapINSt7__cxx1112basic_stringIcSt11char_traitsIcESaIcEEES5_St4hashIS5_ESt8equal_toIS5_ESaISt4pairIKS5_S5_EEE3endEv
FN:354,355,_ZNSt13unordered_mapIjS_INSt7__cxx1112basic_stringIcSt11char_traitsIcESaIcEEES5_St4hashIS5_ESt8equal_toIS5_ESaISt4pairIKS5_S5_EEES6_IjES8_IjESaISA_IKjSE_EEE3endEv
FN:363,364,_ZNKSt13unordered_mapINSt7__cxx1112basic_stringIcSt11char_traitsIcESaIcEEEN12WPEFramework4Core7JSONRPC7Handler5EntryESt4hashIS5_ESt8equal_toIS5_ESaISt4pairIKS5_SA_EEE3endEv
FN:395,396,_ZNSt13unordered_mapINSt7__cxx1112basic_stringIcSt11char_traitsIcESaIcEEEN12WPEFramework10PluginHost7JSONRPC8ObserverESt4hashIS5_ESt8equal_toIS5_ESaISt4pairIKS5_S9_EEE7emplaceIJRKSt21piecewise_construct_tSt5tupleIJRSF_EESN_IJEEEEESE_INSt8__detail14_Node_iteratorISG_Lb0ELb1EEEbEDpOT_
FN:752,753,_ZNSt13unordered_mapINSt7__cxx1112basic_stringIcSt11char_traitsIcESaIcEEEN12WPEFramework10PluginHost7JSONRPC8ObserverESt4hashIS5_ESt8equal_toIS5_ESaISt4pairIKS5_S9_EEE5eraseENSt8__detail14_Node_iteratorISG_Lb0ELb1EEE
FN:797,798,_ZNSt13unordered_mapINSt7__cxx1112basic_stringIcSt11char_traitsIcESaIcEEEN12WPEFramework10PluginHost7JSONRPC8ObserverESt4hashIS5_ESt8equal_toIS5_ESaISt4pairIKS5_S9_EEE5clearEv
FN:875,876,_ZNSt13unordered_mapINSt7__cxx1112basic_stringIcSt11char_traitsIcESaIcEEEN12WPEFramework10PluginHost7JSONRPC8ObserverESt4hashIS5_ESt8equal_toIS5_ESaISt4pairIKS5_S9_EEE4findERSF_
FN:875,876,_ZNSt13unordered_mapINSt7__cxx1112basic_stringIcSt11char_traitsIcESaIcEEEN12WPEFramework4Core7JSONRPC7Handler5EntryESt4hashIS5_ESt8equal_toIS5_ESaISt4pairIKS5_SA_EEE4findERSG_
FN:875,876,_ZNSt13unordered_mapINSt7__cxx1112basic_stringIcSt11char_traitsIcESaIcEEES5_St4hashIS5_ESt8equal_toIS5_ESaISt4pairIKS5_S5_EEE4findERSB_
FN:875,876,_ZNSt13unordered_mapIjS_INSt7__cxx1112basic_stringIcSt11char_traitsIcESaIcEEES5_St4hashIS5_ESt8equal_toIS5_ESaISt4pairIKS5_S5_EEES6_IjES8_IjESaISA_IKjSE_EEE4findERSH_
FN:886,887,_ZNKSt13unordered_mapINSt7__cxx1112basic_stringIcSt11char_traitsIcESaIcEEEN12WPEFramework4Core7JSONRPC7Handler5EntryESt4hashIS5_ESt8equal_toIS5_ESaISt4pairIKS5_SA_EEE4findERSG_
FN:986,987,_ZNSt13unordered_mapINSt7__cxx1112basic_stringIcSt11char_traitsIcESaIcEEES5_St4hashIS5_ESt8equal_toIS5_ESaISt4pairIKS5_S5_EEEixERSB_
FN:986,987,_ZNSt13unordered_mapIjS_INSt7__cxx1112basic_stringIcSt11char_traitsIcESaIcEEES5_St4hashIS5_ESt8equal_toIS5_ESaISt4pairIKS5_S5_EEES6_IjES8_IjESaISA_IKjSE_EEEixERSH_
FNDA:1,_ZNSt13unordered_mapINSt7__cxx1112basic_stringIcSt11char_traitsIcESaIcEEES5_St4hashIS5_ESt8equal_toIS5_ESaISt4pairIKS5_S5_EEEC2Ev
FNDA:29,_ZNSt13unordered_mapIjS_INSt7__cxx1112basic_stringIcSt11char_traitsIcESaIcEEES5_St4hashIS5_ESt8equal_toIS5_ESaISt4pairIKS5_S5_EEES6_IjES8_IjESaISA_IKjSE_EEEC2Ev
FNDA:0,_ZNSt13unordered_mapINSt7__cxx1112basic_stringIcSt11char_traitsIcESaIcEEEN12WPEFramework10PluginHost7JSONRPC8ObserverESt4hashIS5_ESt8equal_toIS5_ESaISt4pairIKS5_S9_EEE5beginEv
FNDA:0,_ZNSt13unordered_mapINSt7__cxx1112basic_stringIcSt11char_traitsIcESaIcEEEN12WPEFramework10PluginHost7JSONRPC8ObserverESt4hashIS5_ESt8equal_toIS5_ESaISt4pairIKS5_S9_EEE3endEv
FNDA:73,_ZNSt13unordered_mapINSt7__cxx1112basic_stringIcSt11char_traitsIcESaIcEEEN12WPEFramework4Core7JSONRPC7Handler5EntryESt4hashIS5_ESt8equal_toIS5_ESaISt4pairIKS5_SA_EEE3endEv
FNDA:2,_ZNSt13unordered_mapINSt7__cxx1112basic_stringIcSt11char_traitsIcESaIcEEES5_St4hashIS5_ESt8equal_toIS5_ESaISt4pairIKS5_S5_EEE3endEv
FNDA:3,_ZNSt13unordered_mapIjS_INSt7__cxx1112basic_stringIcSt11char_traitsIcESaIcEEES5_St4hashIS5_ESt8equal_toIS5_ESaISt4pairIKS5_S5_EEES6_IjES8_IjESaISA_IKjSE_EEE3endEv
FNDA:49,_ZNKSt13unordered_mapINSt7__cxx1112basic_stringIcSt11char_traitsIcESaIcEEEN12WPEFramework4Core7JSONRPC7Handler5EntryESt4hashIS5_ESt8equal_toIS5_ESaISt4pairIKS5_SA_EEE3endEv
FNDA:0,_ZNSt13unordered_mapINSt7__cxx1112basic_stringIcSt11char_traitsIcESaIcEEEN12WPEFramework10PluginHost7JSONRPC8ObserverESt4hashIS5_ESt8equal_toIS5_ESaISt4pairIKS5_S9_EEE7emplaceIJRKSt21piecewise_construct_tSt5tupleIJRSF_EESN_IJEEEEESE_INSt8__detail14_Node_iteratorISG_Lb0ELb1EEEbEDpOT_
FNDA:0,_ZNSt13unordered_mapINSt7__cxx1112basic_stringIcSt11char_traitsIcESaIcEEEN12WPEFramework10PluginHost7JSONRPC8ObserverESt4hashIS5_ESt8equal_toIS5_ESaISt4pairIKS5_S9_EEE5eraseENSt8__detail14_Node_iteratorISG_Lb0ELb1EEE
FNDA:0,_ZNSt13unordered_mapINSt7__cxx1112basic_stringIcSt11char_traitsIcESaIcEEEN12WPEFramework10PluginHost7JSONRPC8ObserverESt4hashIS5_ESt8equal_toIS5_ESaISt4pairIKS5_S9_EEE5clearEv
FNDA:0,_ZNSt13unordered_mapINSt7__cxx1112basic_stringIcSt11char_traitsIcESaIcEEEN12WPEFramework10PluginHost7JSONRPC8ObserverESt4hashIS5_ESt8equal_toIS5_ESaISt4pairIKS5_S9_EEE4findERSF_
FNDA:47,_ZNSt13unordered_mapINSt7__cxx1112basic_stringIcSt11char_traitsIcESaIcEEEN12WPEFramework4Core7JSONRPC7Handler5EntryESt4hashIS5_ESt8equal_toIS5_ESaISt4pairIKS5_SA_EEE4findERSG_
FNDA:2,_ZNSt13unordered_mapINSt7__cxx1112basic_stringIcSt11char_traitsIcESaIcEEES5_St4hashIS5_ESt8equal_toIS5_ESaISt4pairIKS5_S5_EEE4findERSB_
FNDA:3,_ZNSt13unordered_mapIjS_INSt7__cxx1112basic_stringIcSt11char_traitsIcESaIcEEES5_St4hashIS5_ESt8equal_toIS5_ESaISt4pairIKS5_S5_EEES6_IjES8_IjESaISA_IKjSE_EEE4findERSH_
FNDA:49,_ZNKSt13unordered_mapINSt7__cxx1112basic_stringIcSt11char_traitsIcESaIcEEEN12WPEFramework4Core7JSONRPC7Handler5EntryESt4hashIS5_ESt8equal_toIS5_ESaISt4pairIKS5_SA_EEE4findERSG_
FNDA:1,_ZNSt13unordered_mapINSt7__cxx1112basic_stringIcSt11char_traitsIcESaIcEEES5_St4hashIS5_ESt8equal_toIS5_ESaISt4pairIKS5_S5_EEEixERSB_
FNDA:1,_ZNSt13unordered_mapIjS_INSt7__cxx1112basic_stringIcSt11char_traitsIcESaIcEEES5_St4hashIS5_ESt8equal_toIS5_ESaISt4pairIKS5_S5_EEES6_IjES8_IjESaISA_IKjSE_EEEixERSH_
FNF:18
FNH:12
DA:148,30
DA:332,0
DA:333,0
DA:354,78
DA:355,78
DA:363,49
DA:364,49
DA:395,0
DA:396,0
DA:752,0
DA:753,0
DA:797,0
DA:798,0
DA:875,52
DA:876,52
DA:886,49
DA:887,49
DA:986,2
DA:987,2
LF:19
LH:11
end_of_record
TN:
SF:/usr/include/c++/13/bits/vector.tcc
FN:111,127,_ZNSt6vectorINSt7__cxx1112basic_stringIcSt11char_traitsIcESaIcEEESaIS5_EE12emplace_backIJS5_EEERS5_DpOT_
FN:111,127,_ZNSt6vectorIPN12WPEFramework10PluginHost11IDispatcher9ICallbackESaIS4_EE12emplace_backIJRS4_EEES8_DpOT_
FN:111,127,_ZNSt6vectorISt4pairIjNSt7__cxx1112basic_stringIcSt11char_traitsIcESaIcEEEESaIS7_EE12emplace_backIJS7_EEERS7_DpOT_
FN:181,190,_ZNSt6vectorIPN12WPEFramework10PluginHost11IDispatcher9ICallbackESaIS4_EE8_M_eraseEN9__gnu_cxx17__normal_iteratorIPS4_S6_EE
FN:181,190,_ZNSt6vectorISt4pairIjNSt7__cxx1112basic_stringIcSt11char_traitsIcESaIcEEEESaIS7_EE8_M_eraseEN9__gnu_cxx17__normal_iteratorIPS7_S9_EE
FN:445,524,_ZNSt6vectorINSt7__cxx1112basic_stringIcSt11char_traitsIcESaIcEEESaIS5_EE17_M_realloc_insertIJS5_EEEvN9__gnu_cxx17__normal_iteratorIPS5_S7_EEDpOT_
FN:445,524,_ZNSt6vectorIPN12WPEFramework10PluginHost11IDispatcher9ICallbackESaIS4_EE17_M_realloc_insertIJRS4_EEEvN9__gnu_cxx17__normal_iteratorIPS4_S6_EEDpOT_
FN:445,524,_ZNSt6vectorISt4pairIjNSt7__cxx1112basic_stringIcSt11char_traitsIcESaIcEEEESaIS7_EE17_M_realloc_insertIJS7_EEEvN9__gnu_cxx17__normal_iteratorIPS7_S9_EEDpOT_
FNDA:1,_ZNSt6vectorINSt7__cxx1112basic_stringIcSt11char_traitsIcESaIcEEESaIS5_EE12emplace_backIJS5_EEERS5_DpOT_
FNDA:0,_ZNSt6vectorIPN12WPEFramework10PluginHost11IDispatcher9ICallbackESaIS4_EE12emplace_backIJRS4_EEES8_DpOT_
FNDA:0,_ZNSt6vectorISt4pairIjNSt7__cxx1112basic_stringIcSt11char_traitsIcESaIcEEEESaIS7_EE12emplace_backIJS7_EEERS7_DpOT_
FNDA:0,_ZNSt6vectorIPN12WPEFramework10PluginHost11IDispatcher9ICallbackESaIS4_EE8_M_eraseEN9__gnu_cxx17__normal_iteratorIPS4_S6_EE
FNDA:0,_ZNSt6vectorISt4pairIjNSt7__cxx1112basic_stringIcSt11char_traitsIcESaIcEEEESaIS7_EE8_M_eraseEN9__gnu_cxx17__normal_iteratorIPS7_S9_EE
FNDA:1,_ZNSt6vectorINSt7__cxx1112basic_stringIcSt11char_traitsIcESaIcEEESaIS5_EE17_M_realloc_insertIJS5_EEEvN9__gnu_cxx17__normal_iteratorIPS5_S7_EEDpOT_
FNDA:0,_ZNSt6vectorIPN12WPEFramework10PluginHost11IDispatcher9ICallbackESaIS4_EE17_M_realloc_insertIJRS4_EEEvN9__gnu_cxx17__normal_iteratorIPS4_S6_EEDpOT_
FNDA:0,_ZNSt6vectorISt4pairIjNSt7__cxx1112basic_stringIcSt11char_traitsIcESaIcEEEESaIS7_EE17_M_realloc_insertIJS7_EEEvN9__gnu_cxx17__normal_iteratorIPS7_S9_EEDpOT_
FNF:8
FNH:2
DA:111,1
DA:114,1
DA:117,0
DA:119,0
DA:123,1
DA:125,1
DA:181,0
DA:184,0
DA:185,0
DA:186,0
DA:187,0
DA:189,0
DA:445,1
DA:455,1
DA:456,1
DA:457,1
DA:458,1
DA:459,1
DA:460,1
DA:468,1
DA:469,1
DA:475,1
DA:480,1
DA:481,1
DA:483,1
DA:485,1
DA:486,1
DA:519,1
DA:520,1
DA:521,1
DA:522,1
DA:523,1
DA:524,1
LF:33
LH:25
end_of_record
TN:
SF:/usr/include/c++/13/ext/aligned_buffer.h
FN:104,107,_ZN9__gnu_cxx16__aligned_bufferISt4pairIKNSt7__cxx1112basic_stringIcSt11char_traitsIcESaIcEEEN12WPEFramework10PluginHost7JSONRPC8ObserverEEE7_M_addrEv
FN:104,107,_ZN9__gnu_cxx16__aligned_bufferISt4pairIKNSt7__cxx1112basic_stringIcSt11char_traitsIcESaIcEEEN12WPEFramework4Core7JSONRPC7Handler5EntryEEE7_M_addrEv
FN:104,107,_ZN9__gnu_cxx16__aligned_bufferISt4pairIKNSt7__cxx1112basic_stringIcSt11char_traitsIcESaIcEEES7_EE7_M_addrEv
FN:104,107,_ZN9__gnu_cxx16__aligned_bufferISt4pairIKjSt13unordered_mapINSt7__cxx1112basic_stringIcSt11char_traitsIcESaIcEEES9_St4hashIS9_ESt8equal_toIS9_ESaIS1_IKS9_S9_EEEEE7_M_addrEv
FN:110,113,_ZNK9__gnu_cxx16__aligned_bufferISt4pairIKNSt7__cxx1112basic_stringIcSt11char_traitsIcESaIcEEEN12WPEFramework10PluginHost7JSONRPC8ObserverEEE7_M_addrEv
FN:110,113,_ZNK9__gnu_cxx16__aligned_bufferISt4pairIKNSt7__cxx1112basic_stringIcSt11char_traitsIcESaIcEEEN12WPEFramework4Core7JSONRPC7Handler5EntryEEE7_M_addrEv
FN:110,113,_ZNK9__gnu_cxx16__aligned_bufferISt4pairIKNSt7__cxx1112basic_stringIcSt11char_traitsIcESaIcEEES7_EE7_M_addrEv
FN:110,113,_ZNK9__gnu_cxx16__aligned_bufferISt4pairIKjSt13unordered_mapINSt7__cxx1112basic_stringIcSt11char_traitsIcESaIcEEES9_St4hashIS9_ESt8equal_toIS9_ESaIS1_IKS9_S9_EEEEE7_M_addrEv
FN:116,117,_ZN9__gnu_cxx16__aligned_bufferISt4pairIKNSt7__cxx1112basic_stringIcSt11char_traitsIcESaIcEEEN12WPEFramework10PluginHost7JSONRPC8ObserverEEE6_M_ptrEv
FN:116,117,_ZN9__gnu_cxx16__aligned_bufferISt4pairIKNSt7__cxx1112basic_stringIcSt11char_traitsIcESaIcEEEN12WPEFramework4Core7JSONRPC7Handler5EntryEEE6_M_ptrEv
FN:116,117,_ZN9__gnu_cxx16__aligned_bufferISt4pairIKNSt7__cxx1112basic_stringIcSt11char_traitsIcESaIcEEES7_EE6_M_ptrEv
FN:116,117,_ZN9__gnu_cxx16__aligned_bufferISt4pairIKjSt13unordered_mapINSt7__cxx1112basic_stringIcSt11char_traitsIcESaIcEEES9_St4hashIS9_ESt8equal_toIS9_ESaIS1_IKS9_S9_EEEEE6_M_ptrEv
FN:120,121,_ZNK9__gnu_cxx16__aligned_bufferISt4pairIKNSt7__cxx1112basic_stringIcSt11char_traitsIcESaIcEEEN12WPEFramework10PluginHost7JSONRPC8ObserverEEE6_M_ptrEv
FN:120,121,_ZNK9__gnu_cxx16__aligned_bufferISt4pairIKNSt7__cxx1112basic_stringIcSt11char_traitsIcESaIcEEEN12WPEFramework4Core7JSONRPC7Handler5EntryEEE6_M_ptrEv
FN:120,121,_ZNK9__gnu_cxx16__aligned_bufferISt4pairIKNSt7__cxx1112basic_stringIcSt11char_traitsIcESaIcEEES7_EE6_M_ptrEv
FN:120,121,_ZNK9__gnu_cxx16__aligned_bufferISt4pairIKjSt13unordered_mapINSt7__cxx1112basic_stringIcSt11char_traitsIcESaIcEEES9_St4hashIS9_ESt8equal_toIS9_ESaIS1_IKS9_S9_EEEEE6_M_ptrEv
FN:64,65,_ZN9__gnu_cxx16__aligned_membufIN12WPEFramework4Core10ThreadPool8ExecutorEE7_M_addrEv
FN:64,65,_ZN9__gnu_cxx16__aligned_membufIN12WPEFramework4Core14callstack_infoEE7_M_addrEv
FN:64,65,_ZN9__gnu_cxx16__aligned_membufIN12WPEFramework4Core7JSONRPC7HandlerEE7_M_addrEv
FN:64,65,_ZN9__gnu_cxx16__aligned_membufIN12WPEFramework4Core9ProxyTypeINS2_9IDispatchEEEE7_M_addrEv
FN:64,65,_ZN9__gnu_cxx16__aligned_membufIN12WPEFramework4Core9TimerTypeINS2_10WorkerPool5TimerEE9TimedInfoIS5_EEE7_M_addrEv
FN:64,65,_ZN9__gnu_cxx16__aligned_membufIPN12WPEFramework8Exchange20IAppGatewayResponder13INotificationEE7_M_addrEv
FN:64,65,_ZN9__gnu_cxx16__aligned_membufISt4pairIPKcPN12WPEFramework4Core4JSON8IElementEEE7_M_addrEv
FN:68,69,_ZNK9__gnu_cxx16__aligned_membufIN12WPEFramework4Core10ThreadPool8ExecutorEE7_M_addrEv
FN:68,69,_ZNK9__gnu_cxx16__aligned_membufIN12WPEFramework4Core9ProxyTypeINS2_9IDispatchEEEE7_M_addrEv
FN:68,69,_ZNK9__gnu_cxx16__aligned_membufIN12WPEFramework4Core9TimerTypeINS2_10WorkerPool5TimerEE9TimedInfoIS5_EEE7_M_addrEv
FN:68,69,_ZNK9__gnu_cxx16__aligned_membufISt4pairIPKcPN12WPEFramework4Core4JSON8IElementEEE7_M_addrEv
FN:72,73,_ZN9__gnu_cxx16__aligned_membufIN12WPEFramework4Core10ThreadPool8ExecutorEE6_M_ptrEv
FN:72,73,_ZN9__gnu_cxx16__aligned_membufIN12WPEFramework4Core14callstack_infoEE6_M_ptrEv
FN:72,73,_ZN9__gnu_cxx16__aligned_membufIN12WPEFramework4Core7JSONRPC7HandlerEE6_M_ptrEv
FN:72,73,_ZN9__gnu_cxx16__aligned_membufIN12WPEFramework4Core9ProxyTypeINS2_9IDispatchEEEE6_M_ptrEv
FN:72,73,_ZN9__gnu_cxx16__aligned_membufIN12WPEFramework4Core9TimerTypeINS2_10WorkerPool5TimerEE9TimedInfoIS5_EEE6_M_ptrEv
FN:72,73,_ZN9__gnu_cxx16__aligned_membufIPN12WPEFramework8Exchange20IAppGatewayResponder13INotificationEE6_M_ptrEv
FN:72,73,_ZN9__gnu_cxx16__aligned_membufISt4pairIPKcPN12WPEFramework4Core4JSON8IElementEEE6_M_ptrEv
FN:76,77,_ZNK9__gnu_cxx16__aligned_membufIN12WPEFramework4Core10ThreadPool8ExecutorEE6_M_ptrEv
FN:76,77,_ZNK9__gnu_cxx16__aligned_membufIN12WPEFramework4Core9ProxyTypeINS2_9IDispatchEEEE6_M_ptrEv
FN:76,77,_ZNK9__gnu_cxx16__aligned_membufIN12WPEFramework4Core9TimerTypeINS2_10WorkerPool5TimerEE9TimedInfoIS5_EEE6_M_ptrEv
FN:76,77,_ZNK9__gnu_cxx16__aligned_membufISt4pairIPKcPN12WPEFramework4Core4JSON8IElementEEE6_M_ptrEv
FNDA:0,_ZN9__gnu_cxx16__aligned_bufferISt4pairIKNSt7__cxx1112basic_stringIcSt11char_traitsIcESaIcEEEN12WPEFramework10PluginHost7JSONRPC8ObserverEEE7_M_addrEv
FNDA:151,_ZN9__gnu_cxx16__aligned_bufferISt4pairIKNSt7__cxx1112basic_stringIcSt11char_traitsIcESaIcEEEN12WPEFramework4Core7JSONRPC7Handler5EntryEEE7_M_addrEv
FNDA:3,_ZN9__gnu_cxx16__aligned_bufferISt4pairIKNSt7__cxx1112basic_stringIcSt11char_traitsIcESaIcEEES7_EE7_M_addrEv
FNDA:6,_ZN9__gnu_cxx16__aligned_bufferISt4pairIKjSt13unordered_mapINSt7__cxx1112basic_stringIcSt11char_traitsIcESaIcEEES9_St4hashIS9_ESt8equal_toIS9_ESaIS1_IKS9_S9_EEEEE7_M_addrEv
FNDA:0,_ZNK9__gnu_cxx16__aligned_bufferISt4pairIKNSt7__cxx1112basic_stringIcSt11char_traitsIcESaIcEEEN12WPEFramework10PluginHost7JSONRPC8ObserverEEE7_M_addrEv
FNDA:120,_ZNK9__gnu_cxx16__aligned_bufferISt4pairIKNSt7__cxx1112basic_stringIcSt11char_traitsIcESaIcEEEN12WPEFramework4Core7JSONRPC7Handler5EntryEEE7_M_addrEv
FNDA:2,_ZNK9__gnu_cxx16__aligned_bufferISt4pairIKNSt7__cxx1112basic_stringIcSt11char_traitsIcESaIcEEES7_EE7_M_addrEv
FNDA:2,_ZNK9__gnu_cxx16__aligned_bufferISt4pairIKjSt13unordered_mapINSt7__cxx1112basic_stringIcSt11char_traitsIcESaIcEEES9_St4hashIS9_ESt8equal_toIS9_ESaIS1_IKS9_S9_EEEEE7_M_addrEv
FNDA:0,_ZN9__gnu_cxx16__aligned_bufferISt4pairIKNSt7__cxx1112basic_stringIcSt11char_traitsIcESaIcEEEN12WPEFramework10PluginHost7JSONRPC8ObserverEEE6_M_ptrEv
FNDA:151,_ZN9__gnu_cxx16__aligned_bufferISt4pairIKNSt7__cxx1112basic_stringIcSt11char_traitsIcESaIcEEEN12WPEFramework4Core7JSONRPC7Handler5EntryEEE6_M_ptrEv
FNDA:3,_ZN9__gnu_cxx16__aligned_bufferISt4pairIKNSt7__cxx1112basic_stringIcSt11char_traitsIcESaIcEEES7_EE6_M_ptrEv
FNDA:6,_ZN9__gnu_cxx16__aligned_bufferISt4pairIKjSt13unordered_mapINSt7__cxx1112basic_stringIcSt11char_traitsIcESaIcEEES9_St4hashIS9_ESt8equal_toIS9_ESaIS1_IKS9_S9_EEEEE6_M_ptrEv
FNDA:0,_ZNK9__gnu_cxx16__aligned_bufferISt4pairIKNSt7__cxx1112basic_stringIcSt11char_traitsIcESaIcEEEN12WPEFramework10PluginHost7JSONRPC8ObserverEEE6_M_ptrEv
FNDA:120,_ZNK9__gnu_cxx16__aligned_bufferISt4pairIKNSt7__cxx1112basic_stringIcSt11char_traitsIcESaIcEEEN12WPEFramework4Core7JSONRPC7Handler5EntryEEE6_M_ptrEv
FNDA:2,_ZNK9__gnu_cxx16__aligned_bufferISt4pairIKNSt7__cxx1112basic_stringIcSt11char_traitsIcESaIcEEES7_EE6_M_ptrEv
FNDA:2,_ZNK9__gnu_cxx16__aligned_bufferISt4pairIKjSt13unordered_mapINSt7__cxx1112basic_stringIcSt11char_traitsIcESaIcEEES9_St4hashIS9_ESt8equal_toIS9_ESaIS1_IKS9_S9_EEEEE6_M_ptrEv
FNDA:14,_ZN9__gnu_cxx16__aligned_membufIN12WPEFramework4Core10ThreadPool8ExecutorEE7_M_addrEv
FNDA:0,_ZN9__gnu_cxx16__aligned_membufIN12WPEFramework4Core14callstack_infoEE7_M_addrEv
FNDA:127,_ZN9__gnu_cxx16__aligned_membufIN12WPEFramework4Core7JSONRPC7HandlerEE7_M_addrEv
FNDA:6,_ZN9__gnu_cxx16__aligned_membufIN12WPEFramework4Core9ProxyTypeINS2_9IDispatchEEEE7_M_addrEv
FNDA:0,_ZN9__gnu_cxx16__aligned_membufIN12WPEFramework4Core9TimerTypeINS2_10WorkerPool5TimerEE9TimedInfoIS5_EEE7_M_addrEv
FNDA:5,_ZN9__gnu_cxx16__aligned_membufIPN12WPEFramework8Exchange20IAppGatewayResponder13INotificationEE7_M_addrEv
FNDA:2318,_ZN9__gnu_cxx16__aligned_membufISt4pairIPKcPN12WPEFramework4Core4JSON8IElementEEE7_M_addrEv
FNDA:0,_ZNK9__gnu_cxx16__aligned_membufIN12WPEFramework4Core10ThreadPool8ExecutorEE7_M_addrEv
FNDA:0,_ZNK9__gnu_cxx16__aligned_membufIN12WPEFramework4Core9ProxyTypeINS2_9IDispatchEEEE7_M_addrEv
FNDA:0,_ZNK9__gnu_cxx16__aligned_membufIN12WPEFramework4Core9TimerTypeINS2_10WorkerPool5TimerEE9TimedInfoIS5_EEE7_M_addrEv
FNDA:261,_ZNK9__gnu_cxx16__aligned_membufISt4pairIPKcPN12WPEFramework4Core4JSON8IElementEEE7_M_addrEv
FNDA:14,_ZN9__gnu_cxx16__aligned_membufIN12WPEFramework4Core10ThreadPool8ExecutorEE6_M_ptrEv
FNDA:0,_ZN9__gnu_cxx16__aligned_membufIN12WPEFramework4Core14callstack_infoEE6_M_ptrEv
FNDA:127,_ZN9__gnu_cxx16__aligned_membufIN12WPEFramework4Core7JSONRPC7HandlerEE6_M_ptrEv
FNDA:6,_ZN9__gnu_cxx16__aligned_membufIN12WPEFramework4Core9ProxyTypeINS2_9IDispatchEEEE6_M_ptrEv
FNDA:0,_ZN9__gnu_cxx16__aligned_membufIN12WPEFramework4Core9TimerTypeINS2_10WorkerPool5TimerEE9TimedInfoIS5_EEE6_M_ptrEv
FNDA:5,_ZN9__gnu_cxx16__aligned_membufIPN12WPEFramework8Exchange20IAppGatewayResponder13INotificationEE6_M_ptrEv
FNDA:2318,_ZN9__gnu_cxx16__aligned_membufISt4pairIPKcPN12WPEFramework4Core4JSON8IElementEEE6_M_ptrEv
FNDA:0,_ZNK9__gnu_cxx16__aligned_membufIN12WPEFramework4Core10ThreadPool8ExecutorEE6_M_ptrEv
FNDA:0,_ZNK9__gnu_cxx16__aligned_membufIN12WPEFramework4Core9ProxyTypeINS2_9IDispatchEEEE6_M_ptrEv
FNDA:0,_ZNK9__gnu_cxx16__aligned_membufIN12WPEFramework4Core9TimerTypeINS2_10WorkerPool5TimerEE9TimedInfoIS5_EEE6_M_ptrEv
FNDA:261,_ZNK9__gnu_cxx16__aligned_membufISt4pairIPKcPN12WPEFramework4Core4JSON8IElementEEE6_M_ptrEv
FNF:38
FNH:24
DA:64,2470
DA:65,2470
DA:68,261
DA:69,261
DA:72,2470
DA:73,2470
DA:76,261
DA:77,261
DA:104,160
DA:106,160
DA:110,124
DA:112,124
DA:116,160
DA:117,160
DA:120,124
DA:121,124
LF:16
LH:16
end_of_record
TN:
SF:/usr/include/c++/13/ext/alloc_traits.h
FNF:0
FNH:0
DA:98,73
LF:1
LH:1
end_of_record
TN:
SF:/usr/include/c++/13/initializer_list
FN:69,69,_ZNKSt16initializer_listINSt7__cxx1112basic_stringIcSt11char_traitsIcESaIcEEEE4sizeEv
FN:73,73,_ZNKSt16initializer_listINSt7__cxx1112basic_stringIcSt11char_traitsIcESaIcEEEE5beginEv
FN:77,77,_ZNKSt16initializer_listINSt7__cxx1112basic_stringIcSt11char_traitsIcESaIcEEEE3endEv
FNDA:6,_ZNKSt16initializer_listINSt7__cxx1112basic_stringIcSt11char_traitsIcESaIcEEEE4sizeEv
FNDA:12,_ZNKSt16initializer_listINSt7__cxx1112basic_stringIcSt11char_traitsIcESaIcEEEE5beginEv
FNDA:6,_ZNKSt16initializer_listINSt7__cxx1112basic_stringIcSt11char_traitsIcESaIcEEEE3endEv
FNF:3
FNH:3
DA:69,6
DA:73,12
DA:77,6
LF:3
LH:3
end_of_record
TN:
SF:/usr/include/c++/13/limits
FN:1135,1135,_ZNSt14numeric_limitsIjE3maxEv
FNDA:2,_ZNSt14numeric_limitsIjE3maxEv
FNF:1
FNH:1
DA:1135,2
LF:1
LH:1
end_of_record
TN:
SF:/usr/include/c++/13/new
FN:174,175,_ZnwmPv
FN:180,180,_ZdlPvS_
FNDA:1051,_ZnwmPv
FNDA:0,_ZdlPvS_
FNF:2
FNH:1
DA:174,1051
DA:175,1051
DA:180,0
LF:3
LH:2
end_of_record
TN:
SF:/usr/include/c++/13/tuple
FN:1787,1788,_ZSt12__get_helperILm0ERKNSt7__cxx1112basic_stringIcSt11char_traitsIcESaIcEEEJEERT0_RSt11_Tuple_implIXT_EJS8_DpT1_EE
FN:1787,1788,_ZSt12__get_helperILm0ERKjJEERT0_RSt11_Tuple_implIXT_EJS2_DpT1_EE
FN:1803,1804,_ZSt3getILm0EJRKNSt7__cxx1112basic_stringIcSt11char_traitsIcESaIcEEEEERNSt13tuple_elementIXT_ESt5tupleIJDpT0_EEE4typeERSC_
FN:1803,1804,_ZSt3getILm0EJRKjEERNSt13tuple_elementIXT_ESt5tupleIJDpT0_EEE4typeERS6_
FN:193,194,_ZNSt10_Head_baseILm0ERKNSt7__cxx1112basic_stringIcSt11char_traitsIcESaIcEEELb0EEC2ES7_
FN:193,194,_ZNSt10_Head_baseILm0ERKjLb0EEC2ES1_
FN:2013,2014,_ZSt16forward_as_tupleIJEESt5tupleIJDpOT_EES3_
FN:2013,2014,_ZSt16forward_as_tupleIJRKNSt7__cxx1112basic_stringIcSt11char_traitsIcESaIcEEEEESt5tupleIJDpOT_EESB_
FN:2252,2258,_ZNSt4pairIKNSt7__cxx1112basic_stringIcSt11char_traitsIcESaIcEEEN12WPEFramework10PluginHost7JSONRPC8ObserverEEC2IJRS6_EJEEESt21piecewise_construct_tSt5tupleIJDpT_EESF_IJDpT0_EE
FN:2252,2258,_ZNSt4pairIKNSt7__cxx1112basic_stringIcSt11char_traitsIcESaIcEEES5_EC2IJRS6_EJEEESt21piecewise_construct_tSt5tupleIJDpT_EESB_IJDpT0_EE
FN:2252,2258,_ZNSt4pairIKjSt13unordered_mapINSt7__cxx1112basic_stringIcSt11char_traitsIcESaIcEEES7_St4hashIS7_ESt8equal_toIS7_ESaIS_IKS7_S7_EEEEC2IJRS0_EJEEESt21piecewise_construct_tSt5tupleIJDpT_EESK_IJDpT0_EE
FN:2264,2269,_ZNSt4pairIKNSt7__cxx1112basic_stringIcSt11char_traitsIcESaIcEEEN12WPEFramework10PluginHost7JSONRPC8ObserverEEC2IJRS6_EJLm0EEJEJEEERSt5tupleIJDpT_EERSE_IJDpT1_EESt12_Index_tupleIJXspT0_EEESN_IJXspT2_EEE
FN:2264,2269,_ZNSt4pairIKNSt7__cxx1112basic_stringIcSt11char_traitsIcESaIcEEES5_EC2IJRS6_EJLm0EEJEJEEERSt5tupleIJDpT_EERSA_IJDpT1_EESt12_Index_tupleIJXspT0_EEESJ_IJXspT2_EEE
FN:2264,2269,_ZNSt4pairIKjSt13unordered_mapINSt7__cxx1112basic_stringIcSt11char_traitsIcESaIcEEES7_St4hashIS7_ESt8equal_toIS7_ESaIS_IKS7_S7_EEEEC2IJRS0_EJLm0EEJEJEEERSt5tupleIJDpT_EERSJ_IJDpT1_EESt12_Index_tupleIJXspT0_EEESS_IJXspT2_EEE
FN:234,234,_ZNSt10_Head_baseILm0ERKNSt7__cxx1112basic_stringIcSt11char_traitsIcESaIcEEELb0EE7_M_headERS8_
FN:234,234,_ZNSt10_Head_baseILm0ERKjLb0EE7_M_headERS2_
FN:497,497,_ZNSt11_Tuple_implILm0EJRKNSt7__cxx1112basic_stringIcSt11char_traitsIcESaIcEEEEE7_M_headERS8_
FN:497,497,_ZNSt11_Tuple_implILm0EJRKjEE7_M_headERS2_
FN:507,509,_ZNSt11_Tuple_implILm0EJRKNSt7__cxx1112basic_stringIcSt11char_traitsIcESaIcEEEEEC2ES7_
FN:507,509,_ZNSt11_Tuple_implILm0EJRKjEEC2ES1_
FN:527,530,_ZNSt11_Tuple_implILm0EJRKNSt7__cxx1112basic_stringIcSt11char_traitsIcESaIcEEEEEC2EOS8_
FN:527,530,_ZNSt11_Tuple_implILm0EJRKjEEC2EOS2_
FN:874,876,_ZNSt5tupleIJRKNSt7__cxx1112basic_stringIcSt11char_traitsIcESaIcEEEEEC2ILb1ELb1EEES7_
FN:874,876,_ZNSt5tupleIJRKjEEC2ILb1ELb1EEES1_
FN:903,903,_ZNSt5tupleIJRKNSt7__cxx1112basic_stringIcSt11char_traitsIcESaIcEEEEEC2EOS8_
FN:903,903,_ZNSt5tupleIJRKjEEC2EOS2_
FNDA:257,_ZSt12__get_helperILm0ERKNSt7__cxx1112basic_stringIcSt11char_traitsIcESaIcEEEJEERT0_RSt11_Tuple_implIXT_EJS8_DpT1_EE
FNDA:1,_ZSt12__get_helperILm0ERKjJEERT0_RSt11_Tuple_implIXT_EJS2_DpT1_EE
FNDA:257,_ZSt3getILm0EJRKNSt7__cxx1112basic_stringIcSt11char_traitsIcESaIcEEEEERNSt13tuple_elementIXT_ESt5tupleIJDpT0_EEE4typeERSC_
FNDA:1,_ZSt3getILm0EJRKjEERNSt13tuple_elementIXT_ESt5tupleIJDpT0_EEE4typeERS6_
FNDA:257,_ZNSt10_Head_baseILm0ERKNSt7__cxx1112basic_stringIcSt11char_traitsIcESaIcEEELb0EEC2ES7_
FNDA:1,_ZNSt10_Head_baseILm0ERKjLb0EEC2ES1_
FNDA:0,_ZSt16forward_as_tupleIJEESt5tupleIJDpOT_EES3_
FNDA:0,_ZSt16forward_as_tupleIJRKNSt7__cxx1112basic_stringIcSt11char_traitsIcESaIcEEEEESt5tupleIJDpOT_EESB_
FNDA:0,_ZNSt4pairIKNSt7__cxx1112basic_stringIcSt11char_traitsIcESaIcEEEN12WPEFramework10PluginHost7JSONRPC8ObserverEEC2IJRS6_EJEEESt21piecewise_construct_tSt5tupleIJDpT_EESF_IJDpT0_EE
FNDA:1,_ZNSt4pairIKNSt7__cxx1112basic_stringIcSt11char_traitsIcESaIcEEES5_EC2IJRS6_EJEEESt21piecewise_construct_tSt5tupleIJDpT_EESB_IJDpT0_EE
FNDA:1,_ZNSt4pairIKjSt13unordered_mapINSt7__cxx1112basic_stringIcSt11char_traitsIcESaIcEEES7_St4hashIS7_ESt8equal_toIS7_ESaIS_IKS7_S7_EEEEC2IJRS0_EJEEESt21piecewise_construct_tSt5tupleIJDpT_EESK_IJDpT0_EE
FNDA:0,_ZNSt4pairIKNSt7__cxx1112basic_stringIcSt11char_traitsIcESaIcEEEN12WPEFramework10PluginHost7JSONRPC8ObserverEEC2IJRS6_EJLm0EEJEJEEERSt5tupleIJDpT_EERSE_IJDpT1_EESt12_Index_tupleIJXspT0_EEESN_IJXspT2_EEE
FNDA:1,_ZNSt4pairIKNSt7__cxx1112basic_stringIcSt11char_traitsIcESaIcEEES5_EC2IJRS6_EJLm0EEJEJEEERSt5tupleIJDpT_EERSA_IJDpT1_EESt12_Index_tupleIJXspT0_EEESJ_IJXspT2_EEE
FNDA:1,_ZNSt4pairIKjSt13unordered_mapINSt7__cxx1112basic_stringIcSt11char_traitsIcESaIcEEES7_St4hashIS7_ESt8equal_toIS7_ESaIS_IKS7_S7_EEEEC2IJRS0_EJLm0EEJEJEEERSt5tupleIJDpT_EERSJ_IJDpT1_EESt12_Index_tupleIJXspT0_EEESS_IJXspT2_EEE
FNDA:257,_ZNSt10_Head_baseILm0ERKNSt7__cxx1112basic_stringIcSt11char_traitsIcESaIcEEELb0EE7_M_headERS8_
FNDA:1,_ZNSt10_Head_baseILm0ERKjLb0EE7_M_headERS2_
FNDA:257,_ZNSt11_Tuple_implILm0EJRKNSt7__cxx1112basic_stringIcSt11char_traitsIcESaIcEEEEE7_M_headERS8_
FNDA:1,_ZNSt11_Tuple_implILm0EJRKjEE7_M_headERS2_
FNDA:257,_ZNSt11_Tuple_implILm0EJRKNSt7__cxx1112basic_stringIcSt11char_traitsIcESaIcEEEEEC2ES7_
FNDA:1,_ZNSt11_Tuple_implILm0EJRKjEEC2ES1_
FNDA:257,_ZNSt11_Tuple_implILm0EJRKNSt7__cxx1112basic_stringIcSt11char_traitsIcESaIcEEEEEC2EOS8_
FNDA:1,_ZNSt11_Tuple_implILm0EJRKjEEC2EOS2_
FNDA:257,_ZNSt5tupleIJRKNSt7__cxx1112basic_stringIcSt11char_traitsIcESaIcEEEEEC2ILb1ELb1EEES7_
FNDA:1,_ZNSt5tupleIJRKjEEC2ILb1ELb1EEES1_
FNDA:257,_ZNSt5tupleIJRKNSt7__cxx1112basic_stringIcSt11char_traitsIcESaIcEEEEEC2EOS8_
FNDA:1,_ZNSt5tupleIJRKjEEC2EOS2_
FNF:26
FNH:22
DA:193,258
DA:194,258
DA:234,258
DA:497,258
DA:507,258
DA:508,258
DA:509,258
DA:527,258
DA:529,258
DA:530,258
DA:874,258
DA:876,258
DA:903,258
DA:1787,258
DA:1788,258
DA:1803,258
DA:1804,258
DA:2013,0
DA:2014,0
DA:2252,2
DA:2257,2
DA:2258,2
DA:2264,2
DA:2267,2
DA:2268,2
DA:2269,2
LF:26
LH:24
end_of_record
TN:
SF:/usr/include/x86_64-linux-gnu/c++/13/bits/c++config.h
FN:540,551,_ZSt23__is_constant_evaluatedv
FNDA:7890,_ZSt23__is_constant_evaluatedv
FNF:1
FNH:1
DA:540,7890
DA:547,7890
LF:2
LH:2
end_of_record
TN:
SF:/usr/include/x86_64-linux-gnu/c++/13/bits/gthr-default.h
FN:300,303,_ZL18__gthread_active_pv
FN:691,694,_ZL15__gthread_yieldv
FN:746,752,_ZL20__gthread_mutex_lockP15pthread_mutex_t
FN:776,782,_ZL22__gthread_mutex_unlockP15pthread_mutex_t
FNDA:36,_ZL18__gthread_active_pv
FNDA:12,_ZL15__gthread_yieldv
FNDA:18,_ZL20__gthread_mutex_lockP15pthread_mutex_t
FNDA:18,_ZL22__gthread_mutex_unlockP15pthread_mutex_t
FNF:4
FNH:4
DA:300,36
DA:302,36
DA:691,12
DA:693,12
DA:746,18
DA:748,18
DA:749,18
DA:751,0
DA:776,18
DA:778,18
DA:779,18
DA:781,0
LF:12
LH:10
end_of_record
