TN:
SF:/home/kavia/workspace/code-generation/app-gateway2/dependencies/install/include/WPEFramework/com/Communicator.h
FN:142,145,_ZNK12WPEFramework3RPC6Object9ClassNameB5cxx11Ev
FNDA:0,_ZNK12WPEFramework3RPC6Object9ClassNameB5cxx11Ev
FNF:1
FNH:0
DA:142,0
DA:144,0
LF:2
LH:0
end_of_record
TN:
SF:/home/kavia/workspace/code-generation/app-gateway2/dependencies/install/include/WPEFramework/com/IIteratorType.h
FN:35,35,_ZN12WPEFramework3RPC13IIteratorTypeINSt7__cxx1112basic_stringIcSt11char_traitsIcESaIcEEELj5EED2Ev
FNDA:9,_ZN12WPEFramework3RPC13IIteratorTypeINSt7__cxx1112basic_stringIcSt11char_traitsIcESaIcEEELj5EED2Ev
FNF:1
FNH:1
DA:35,9
LF:1
LH:1
end_of_record
TN:
SF:/home/kavia/workspace/code-generation/app-gateway2/dependencies/install/include/WPEFramework/core/Factory.h
FN:146,146,_ZN12WPEFramework4Core11FactoryTypeINS0_4JSON8IElementEPcEC2Ev
FN:149,153,_ZN12WPEFramework4Core11FactoryTypeINS0_4JSON8IElementEPcED2Ev
FNDA:0,_ZN12WPEFramework4Core11FactoryTypeINS0_4JSON8IElementEPcEC2Ev
FNDA:0,_ZN12WPEFramework4Core11FactoryTypeINS0_4JSON8IElementEPcED2Ev
FNF:2
FNH:0
DA:146,0
DA:149,0
DA:152,0
DA:153,0
LF:4
LH:0
end_of_record
TN:
SF:/home/kavia/workspace/code-generation/app-gateway2/dependencies/install/include/WPEFramework/core/FileSystem.h
FN:42,50,_ZN12WPEFramework4CoreL13ParsePathInfoERKNSt7__cxx1112basic_stringIcSt11char_traitsIcESaIcEEERS6_Rt
FNDA:0,_ZN12WPEFramework4CoreL13ParsePathInfoERKNSt7__cxx1112basic_stringIcSt11char_traitsIcESaIcEEERS6_Rt
FNF:1
FNH:0
DA:42,0
DA:44,0
DA:45,0
DA:46,0
DA:47,0
DA:48,0
DA:49,0
DA:50,0
LF:8
LH:0
end_of_record
TN:
SF:/home/kavia/workspace/code-generation/app-gateway2/dependencies/install/include/WPEFramework/core/IAction.h
FN:37,37,_ZN12WPEFramework4Core13IDispatchTypeIvED0Ev
FN:37,37,_ZN12WPEFramework4Core13IDispatchTypeIvED2Ev
FN:42,42,_ZN12WPEFramework4Core9IDispatchD0Ev
FN:42,42,_ZN12WPEFramework4Core9IDispatchD2Ev
FN:44,46,_ZNK12WPEFramework4Core9IDispatch10IdentifierB5cxx11Ev
FNDA:0,_ZN12WPEFramework4Core13IDispatchTypeIvED0Ev
FNDA:7,_ZN12WPEFramework4Core13IDispatchTypeIvED2Ev
FNDA:0,_ZN12WPEFramework4Core9IDispatchD0Ev
FNDA:7,_ZN12WPEFramework4Core9IDispatchD2Ev
FNDA:0,_ZNK12WPEFramework4Core9IDispatch10IdentifierB5cxx11Ev
FNF:5
FNH:2
DA:37,7
DA:42,7
DA:44,0
DA:45,0
LF:4
LH:2
end_of_record
TN:
SF:/home/kavia/workspace/code-generation/app-gateway2/dependencies/install/include/WPEFramework/core/JSON.h
FN:124,159,_ZN12WPEFramework4Core4JSON8IElement10FromStringIS2_EEbRKNSt7__cxx1112basic_stringIcSt11char_traitsIcESaIcEEERT_RNS0_12OptionalTypeINS1_5ErrorEEE
FN:1584,1590,_ZN12WPEFramework4Core4JSON6StringC2Eb
FN:1592,1599,_ZN12WPEFramework4Core4JSON6StringC2ERKNSt7__cxx1112basic_stringIcSt11char_traitsIcESaIcEEEb
FN:1601,1608,_ZN12WPEFramework4Core4JSON6StringC2EPKcb
FN:161,164,_ZNK12WPEFramework4Core4JSON8IElement8ToStringERNSt7__cxx1112basic_stringIcSt11char_traitsIcESaIcEEE
FN:1621,1627,_ZN12WPEFramework4Core4JSON6StringC2EOS2_
FN:1629,1635,_ZN12WPEFramework4Core4JSON6StringC2ERKS2_
FN:1637,1637,_ZN12WPEFramework4Core4JSON6StringD0Ev
FN:1637,1637,_ZN12WPEFramework4Core4JSON6StringD2Ev
FN:1639,1645,_ZN12WPEFramework4Core4JSON6StringaSERKNSt7__cxx1112basic_stringIcSt11char_traitsIcESaIcEEE
FN:1659,1665,_ZN12WPEFramework4Core4JSON6StringaSEPKc
FN:166,170,_ZN12WPEFramework4Core4JSON8IElement10FromStringERKNSt7__cxx1112basic_stringIcSt11char_traitsIcESaIcEEE
FN:1677,1685,_ZN12WPEFramework4Core4JSON6StringaSEOS2_
FN:1687,1695,_ZN12WPEFramework4Core4JSON6StringaSERKS2_
FN:172,175,_ZN12WPEFramework4Core4JSON8IElement10FromStringERKNSt7__cxx1112basic_stringIcSt11char_traitsIcESaIcEEERNS0_12OptionalTypeINS1_5ErrorEEE
FN:1751,1757,_ZNK12WPEFramework4Core4JSON6String5ValueB5cxx11Ev
FN:1782,1785,_ZNK12WPEFramework4Core4JSON6String6IsNullEv
FN:1787,1790,_ZNK12WPEFramework4Core4JSON6String5IsSetEv
FN:1792,1796,_ZN12WPEFramework4Core4JSON6String5ClearEv
FN:1798,1801,_ZNK12WPEFramework4Core4JSON6String8IsQuotedEv
FN:1803,1811,_ZN12WPEFramework4Core4JSON6String9SetQuotedEb
FN:1814,1954,_ZNK12WPEFramework4Core4JSON6String9SerializeEPctRj
FN:1955,2125,_ZN12WPEFramework4Core4JSON6String11DeserializeEPKctRjRNS0_12OptionalTypeINS1_5ErrorEEE
FN:2120,2120,_ZZN12WPEFramework4Core4JSON6String11DeserializeEPKctRjRNS0_12OptionalTypeINS1_5ErrorEEEENKUlhE_clEh
FN:2128,2174,_ZNK12WPEFramework4Core4JSON6String9SerializeEPhtRj
FN:2176,2219,_ZN12WPEFramework4Core4JSON6String11DeserializeEPKhtRj
FN:2222,2234,_ZNK12WPEFramework4Core4JSON6String9IsEscapedERKNSt7__cxx1112basic_stringIcSt11char_traitsIcESaIcEEE
FN:2235,2246,_ZN12WPEFramework4Core4JSON6String7InScopeENS2_12ScopeBracketE
FN:2247,2257,_ZN12WPEFramework4Core4JSON6String8OutScopeENS2_12ScopeBracketE
FN:274,286,_ZN12WPEFramework4Core4JSON8IElement11DeserializeEPKctRj
FN:2909,2914,_ZN12WPEFramework4Core4JSON9ArrayTypeINS1_6StringEE17ConstIteratorTypeIS3_EC2ERKNSt7__cxx114listIS3_SaIS3_EEE
FN:2909,2914,_ZN12WPEFramework4Core4JSON9ArrayTypeINS_6Plugin24RegionalResolutionConfig6RegionEE17ConstIteratorTypeIS5_EC2ERKNSt7__cxx114listIS5_SaIS5_EEE
FN:291,291,_ZN12WPEFramework4Core4JSON12IMessagePackD0Ev
FN:291,291,_ZN12WPEFramework4Core4JSON12IMessagePackD2Ev
FN:2984,3002,_ZN12WPEFramework4Core4JSON9ArrayTypeINS1_6StringEE17ConstIteratorTypeIS3_E4NextEv
FN:2984,3002,_ZN12WPEFramework4Core4JSON9ArrayTypeINS_6Plugin24RegionalResolutionConfig6RegionEE17ConstIteratorTypeIS5_E4NextEv
FN:3004,3009,_ZNK12WPEFramework4Core4JSON9ArrayTypeINS1_6StringEE17ConstIteratorTypeIS3_E7CurrentEv
FN:3004,3009,_ZNK12WPEFramework4Core4JSON9ArrayTypeINS_6Plugin24RegionalResolutionConfig6RegionEE17ConstIteratorTypeIS5_E7CurrentEv
FN:3040,3045,_ZN12WPEFramework4Core4JSON9ArrayTypeINS1_6StringEE12IteratorTypeIS3_EC2ERNSt7__cxx114listIS3_SaIS3_EEE
FN:3040,3045,_ZN12WPEFramework4Core4JSON9ArrayTypeINS_6Plugin24RegionalResolutionConfig6RegionEE12IteratorTypeIS5_EC2ERNSt7__cxx114listIS5_SaIS5_EEE
FN:3087,3112,_ZN12WPEFramework4Core4JSON9ArrayTypeINS1_6StringEE12IteratorTypeIS3_E5ResetEj
FN:3087,3112,_ZN12WPEFramework4Core4JSON9ArrayTypeINS_6Plugin24RegionalResolutionConfig6RegionEE12IteratorTypeIS5_E5ResetEj
FN:3114,3132,_ZN12WPEFramework4Core4JSON9ArrayTypeINS1_6StringEE12IteratorTypeIS3_E4NextEv
FN:3114,3132,_ZN12WPEFramework4Core4JSON9ArrayTypeINS_6Plugin24RegionalResolutionConfig6RegionEE12IteratorTypeIS5_E4NextEv
FN:3141,3146,_ZN12WPEFramework4Core4JSON9ArrayTypeINS1_6StringEE12IteratorTypeIS3_E7CurrentEv
FN:3141,3146,_ZN12WPEFramework4Core4JSON9ArrayTypeINS_6Plugin24RegionalResolutionConfig6RegionEE12IteratorTypeIS5_E7CurrentEv
FN:3163,3169,_ZN12WPEFramework4Core4JSON9ArrayTypeINS1_6StringEEC2Ev
FN:3163,3169,_ZN12WPEFramework4Core4JSON9ArrayTypeINS_6Plugin24RegionalResolutionConfig6RegionEEC2Ev
FN:3179,3185,_ZN12WPEFramework4Core4JSON9ArrayTypeINS1_6StringEEC2ERKS4_
FN:3187,3187,_ZN12WPEFramework4Core4JSON9ArrayTypeINS1_6StringEED0Ev
FN:3187,3187,_ZN12WPEFramework4Core4JSON9ArrayTypeINS1_6StringEED2Ev
FN:3187,3187,_ZN12WPEFramework4Core4JSON9ArrayTypeINS_6Plugin24RegionalResolutionConfig6RegionEED0Ev
FN:3187,3187,_ZN12WPEFramework4Core4JSON9ArrayTypeINS_6Plugin24RegionalResolutionConfig6RegionEED2Ev
FN:3211,3214,_ZNK12WPEFramework4Core4JSON9ArrayTypeINS1_6StringEE5IsSetEv
FN:3211,3214,_ZNK12WPEFramework4Core4JSON9ArrayTypeINS_6Plugin24RegionalResolutionConfig6RegionEE5IsSetEv
FN:3216,3219,_ZNK12WPEFramework4Core4JSON9ArrayTypeINS1_6StringEE6IsNullEv
FN:3216,3219,_ZNK12WPEFramework4Core4JSON9ArrayTypeINS_6Plugin24RegionalResolutionConfig6RegionEE6IsNullEv
FN:3256,3260,_ZN12WPEFramework4Core4JSON9ArrayTypeINS1_6StringEE5ClearEv
FN:3256,3260,_ZN12WPEFramework4Core4JSON9ArrayTypeINS_6Plugin24RegionalResolutionConfig6RegionEE5ClearEv
FN:3262,3265,_ZNK12WPEFramework4Core4JSON9ArrayTypeINS1_6StringEE6LengthEv
FN:3262,3265,_ZNK12WPEFramework4Core4JSON9ArrayTypeINS_6Plugin24RegionalResolutionConfig6RegionEE6LengthEv
FN:3325,3328,_ZNK12WPEFramework4Core4JSON9ArrayTypeINS1_6StringEE8ElementsEv
FN:3325,3328,_ZNK12WPEFramework4Core4JSON9ArrayTypeINS_6Plugin24RegionalResolutionConfig6RegionEE8ElementsEv
FN:3396,3438,_ZNK12WPEFramework4Core4JSON9ArrayTypeINS1_6StringEE9SerializeEPctRj
FN:3396,3438,_ZNK12WPEFramework4Core4JSON9ArrayTypeINS_6Plugin24RegionalResolutionConfig6RegionEE9SerializeEPctRj
FN:3440,3522,_ZN12WPEFramework4Core4JSON9ArrayTypeINS1_6StringEE11DeserializeEPKctRjRNS0_12OptionalTypeINS1_5ErrorEEE
FN:3440,3522,_ZN12WPEFramework4Core4JSON9ArrayTypeINS_6Plugin24RegionalResolutionConfig6RegionEE11DeserializeEPKctRjRNS0_12OptionalTypeINS1_5ErrorEEE
FN:3525,3569,_ZNK12WPEFramework4Core4JSON9ArrayTypeINS1_6StringEE9SerializeEPhtRj
FN:3525,3569,_ZNK12WPEFramework4Core4JSON9ArrayTypeINS_6Plugin24RegionalResolutionConfig6RegionEE9SerializeEPhtRj
FN:3571,3615,_ZN12WPEFramework4Core4JSON9ArrayTypeINS1_6StringEE11DeserializeEPKhtRj
FN:3571,3615,_ZN12WPEFramework4Core4JSON9ArrayTypeINS_6Plugin24RegionalResolutionConfig6RegionEE11DeserializeEPKhtRj
FN:3718,3726,_ZN12WPEFramework4Core4JSON9ContainerC2Ev
FN:3727,3727,_ZN12WPEFramework4Core4JSON9ContainerD0Ev
FN:3727,3727,_ZN12WPEFramework4Core4JSON9ContainerD2Ev
FN:3745,3760,_ZNK12WPEFramework4Core4JSON9Container5IsSetEv
FN:3772,3775,_ZNK12WPEFramework4Core4JSON9Container6IsNullEv
FN:3787,3797,_ZN12WPEFramework4Core4JSON9Container5ClearEv
FN:3799,3802,_ZN12WPEFramework4Core4JSON9Container3AddEPKcPNS1_8IElementE
FN:3818,3876,_ZNK12WPEFramework4Core4JSON9Container9SerializeEPctRj
FN:3878,4033,_ZN12WPEFramework4Core4JSON9Container11DeserializeEPKctRjRNS0_12OptionalTypeINS1_5ErrorEEE
FN:4036,4108,_ZNK12WPEFramework4Core4JSON9Container9SerializeEPhtRj
FN:4110,4166,_ZN12WPEFramework4Core4JSON9Container11DeserializeEPKhtRj
FN:4169,4172,_ZN12WPEFramework4Core4JSON9Container5ResetEv
FN:4174,4198,_ZN12WPEFramework4Core4JSON9Container4FindEPKc
FN:4200,4207,_ZNK12WPEFramework4Core4JSON9Container8FindNextEv
FN:4209,4222,_ZNK12WPEFramework4Core4JSON9Container4SizeEv
FN:4224,4227,_ZN12WPEFramework4Core4JSON9Container7RequestEPKc
FN:4259,4264,_ZN12WPEFramework4Core4JSON7VariantC2Ev
FN:43,48,_ZN12WPEFramework4Core4JSON5ErrorC2EONSt7__cxx1112basic_stringIcSt11char_traitsIcESaIcEEE
FN:4338,4342,_ZN12WPEFramework4Core4JSON7VariantC2ERKS2_
FN:4346,4346,_ZN12WPEFramework4Core4JSON7VariantD0Ev
FN:4346,4346,_ZN12WPEFramework4Core4JSON7VariantD2Ev
FN:4348,4353,_ZN12WPEFramework4Core4JSON7VariantaSEOS2_
FN:4355,4360,_ZN12WPEFramework4Core4JSON7VariantaSERKS2_
FN:4365,4368,_ZNK12WPEFramework4Core4JSON7Variant7ContentEv
FN:4370,4377,_ZNK12WPEFramework4Core4JSON7Variant7BooleanEv
FN:4424,4427,_ZNK12WPEFramework4Core4JSON7Variant6StringB5cxx11Ev
FN:4440,4445,_ZN12WPEFramework4Core4JSON7Variant7BooleanEb
FN:4448,4453,_ZN12WPEFramework4Core4JSON7Variant6NumberIjEEvT_
FN:446,466,_ZN12WPEFramework4Core4JSONL11IsNullValueEPKctRjRt
FN:4473,4478,_ZN12WPEFramework4Core4JSON7Variant6StringEPKc
FN:4492,4496,_ZN12WPEFramework4Core4JSON7VariantaSIjEERS2_RKT_
FN:4498,4502,_ZN12WPEFramework4Core4JSON7VariantaSERKb
FN:4504,4508,_ZN12WPEFramework4Core4JSON7VariantaSERKNSt7__cxx1112basic_stringIcSt11char_traitsIcESaIcEEE
FN:4510,4514,_ZN12WPEFramework4Core4JSON7VariantaSEPKc
FN:4522,4526,_ZN12WPEFramework4Core4JSON7VariantaSERKNS1_16VariantContainerE
FN:4531,4534,_ZNK12WPEFramework4Core4JSON7Variant5IsSetEv
FN:4586,4591,_ZN12WPEFramework4Core4JSON16VariantContainer8IteratorC2ERKSt13unordered_mapINSt7__cxx1112basic_stringIcSt11char_traitsIcESaIcEEENS1_7VariantESt4hashISA_ESt8equal_toISA_ESaISt4pairIKSA_SB_EEE
FN:4648,4660,_ZN12WPEFramework4Core4JSON16VariantContainer8Iterator4NextEv
FN:4662,4665,_ZNK12WPEFramework4Core4JSON16VariantContainer8Iterator5LabelEv
FN:4667,4670,_ZNK12WPEFramework4Core4JSON16VariantContainer8Iterator7CurrentEv
FN:4679,4683,_ZN12WPEFramework4Core4JSON16VariantContainerC2Ev
FN:4740,4740,_ZN12WPEFramework4Core4JSON16VariantContainerD0Ev
FN:4740,4740,_ZN12WPEFramework4Core4JSON16VariantContainerD2Ev
FN:4809,4820,_ZNK12WPEFramework4Core4JSON16VariantContainer3GetEPKc
FN:4822,4834,_ZN12WPEFramework4Core4JSON16VariantContainerixEPKc
FN:4843,4850,_ZNK12WPEFramework4Core4JSON16VariantContainerixEPKc
FN:4852,4855,_ZNK12WPEFramework4Core4JSON16VariantContainer8HasLabelEPKc
FN:4857,4860,_ZNK12WPEFramework4Core4JSON16VariantContainer8VariantsEv
FN:4862,4866,_ZN12WPEFramework4Core4JSON16VariantContainer5ClearEv
FN:4870,4873,_ZN12WPEFramework4Core4JSON16VariantContainer4FindB5cxx11EPKc
FN:4875,4878,_ZNK12WPEFramework4Core4JSON16VariantContainer4FindB5cxx11EPKc
FN:4881,4892,_ZN12WPEFramework4Core4JSON16VariantContainer7RequestEPKc
FN:489,494,_ZN12WPEFramework4Core4JSON10NumberTypeIiLb1EL10NumberBase10EEC2Eib
FN:489,494,_ZN12WPEFramework4Core4JSON10NumberTypeIjLb0EL10NumberBase10EEC2Ejb
FN:4907,4913,_ZN12WPEFramework4Core4JSON7Variant6ObjectERKNS1_16VariantContainerE
FN:4915,4920,_ZNK12WPEFramework4Core4JSON7Variant6ObjectEv
FN:4981,5013,_ZN12WPEFramework4Core4JSON7Variant11DeserializeEPKctRjRNS0_12OptionalTypeINS1_5ErrorEEE
FN:507,507,_ZN12WPEFramework4Core4JSON10NumberTypeIiLb1EL10NumberBase10EED0Ev
FN:507,507,_ZN12WPEFramework4Core4JSON10NumberTypeIiLb1EL10NumberBase10EED2Ev
FN:507,507,_ZN12WPEFramework4Core4JSON10NumberTypeIjLb0EL10NumberBase10EED0Ev
FN:507,507,_ZN12WPEFramework4Core4JSON10NumberTypeIjLb0EL10NumberBase10EED2Ev
FN:518,525,_ZN12WPEFramework4Core4JSON10NumberTypeIiLb1EL10NumberBase10EEaSERKS4_
FN:52,52,_ZN12WPEFramework4Core4JSON5ErroraSERKS2_
FN:527,533,_ZN12WPEFramework4Core4JSON10NumberTypeIiLb1EL10NumberBase10EEaSERKi
FN:527,533,_ZN12WPEFramework4Core4JSON10NumberTypeIjLb0EL10NumberBase10EEaSERKj
FN:55,55,_ZNK12WPEFramework4Core4JSON5Error7MessageB5cxx11Ev
FN:552,555,_ZNK12WPEFramework4Core4JSON10NumberTypeIjLb0EL10NumberBase10EE5ValueEv
FN:571,574,_ZNK12WPEFramework4Core4JSON10NumberTypeIiLb1EL10NumberBase10EE5IsSetEv
FN:571,574,_ZNK12WPEFramework4Core4JSON10NumberTypeIjLb0EL10NumberBase10EE5IsSetEv
FN:576,579,_ZNK12WPEFramework4Core4JSON10NumberTypeIiLb1EL10NumberBase10EE6IsNullEv
FN:576,579,_ZNK12WPEFramework4Core4JSON10NumberTypeIjLb0EL10NumberBase10EE6IsNullEv
FN:581,585,_ZN12WPEFramework4Core4JSON10NumberTypeIiLb1EL10NumberBase10EE5ClearEv
FN:581,585,_ZN12WPEFramework4Core4JSON10NumberTypeIjLb0EL10NumberBase10EE5ClearEv
FN:589,650,_ZNK12WPEFramework4Core4JSON10NumberTypeIiLb1EL10NumberBase10EE9SerializeEPctRj
FN:589,650,_ZNK12WPEFramework4Core4JSON10NumberTypeIjLb0EL10NumberBase10EE9SerializeEPctRj
FN:61,67,_ZN12WPEFramework4Core4JSON5Error7ContextEPKcmm
FN:652,813,_ZN12WPEFramework4Core4JSON10NumberTypeIiLb1EL10NumberBase10EE11DeserializeEPKctRjRNS0_12OptionalTypeINS1_5ErrorEEE
FN:652,813,_ZN12WPEFramework4Core4JSON10NumberTypeIjLb0EL10NumberBase10EE11DeserializeEPKctRjRNS0_12OptionalTypeINS1_5ErrorEEE
FN:71,76,_ZN12WPEFramework4Core4JSON5ErrorC2Ev
FN:816,823,_ZNK12WPEFramework4Core4JSON10NumberTypeIiLb1EL10NumberBase10EE9SerializeEPhtRj
FN:816,823,_ZNK12WPEFramework4Core4JSON10NumberTypeIjLb0EL10NumberBase10EE9SerializeEPhtRj
FN:825,861,_ZN12WPEFramework4Core4JSON10NumberTypeIiLb1EL10NumberBase10EE11DeserializeEPKhtRj
FN:825,861,_ZN12WPEFramework4Core4JSON10NumberTypeIjLb0EL10NumberBase10EE11DeserializeEPKhtRj
FN:864,897,_ZNK12WPEFramework4Core4JSON10NumberTypeIiLb1EL10NumberBase10EE7ConvertEPctRji
FN:864,897,_ZNK12WPEFramework4Core4JSON10NumberTypeIjLb0EL10NumberBase10EE7ConvertEPctRjj
FN:899,902,_ZNK12WPEFramework4Core4JSON10NumberTypeIjLb0EL10NumberBase10EE7ConvertEPctRjRK17TemplateIntToTypeILj0EE
FN:904,907,_ZNK12WPEFramework4Core4JSON10NumberTypeIiLb1EL10NumberBase10EE7ConvertEPctRjRK17TemplateIntToTypeILj1EE
FN:909,950,_ZNK12WPEFramework4Core4JSON10NumberTypeIjLb0EL10NumberBase10EE7ConvertEPhtRjRK17TemplateIntToTypeILj0EE
FN:91,91,_ZN12WPEFramework4Core4JSON8IElementD0Ev
FN:91,91,_ZN12WPEFramework4Core4JSON8IElementD2Ev
FN:94,114,_ZN12WPEFramework4Core4JSON8IElement8ToStringIS2_EEbRKT_RNSt7__cxx1112basic_stringIcSt11char_traitsIcESaIcEEE
FN:952,989,_ZNK12WPEFramework4Core4JSON10NumberTypeIiLb1EL10NumberBase10EE7ConvertEPhtRjRK17TemplateIntToTypeILj1EE
FNDA:1073,_ZN12WPEFramework4Core4JSON8IElement10FromStringIS2_EEbRKNSt7__cxx1112basic_stringIcSt11char_traitsIcESaIcEEERT_RNS0_12OptionalTypeINS1_5ErrorEEE
FNDA:3878,_ZN12WPEFramework4Core4JSON6StringC2Eb
FNDA:0,_ZN12WPEFramework4Core4JSON6StringC2ERKNSt7__cxx1112basic_stringIcSt11char_traitsIcESaIcEEEb
FNDA:0,_ZN12WPEFramework4Core4JSON6StringC2EPKcb
FNDA:12,_ZNK12WPEFramework4Core4JSON8IElement8ToStringERNSt7__cxx1112basic_stringIcSt11char_traitsIcESaIcEEE
FNDA:0,_ZN12WPEFramework4Core4JSON6StringC2EOS2_
FNDA:6162,_ZN12WPEFramework4Core4JSON6StringC2ERKS2_
FNDA:0,_ZN12WPEFramework4Core4JSON6StringD0Ev
FNDA:10040,_ZN12WPEFramework4Core4JSON6StringD2Ev
FNDA:20,_ZN12WPEFramework4Core4JSON6StringaSERKNSt7__cxx1112basic_stringIcSt11char_traitsIcESaIcEEE
FNDA:2669,_ZN12WPEFramework4Core4JSON6StringaSEPKc
FNDA:1032,_ZN12WPEFramework4Core4JSON8IElement10FromStringERKNSt7__cxx1112basic_stringIcSt11char_traitsIcESaIcEEE
FNDA:2054,_ZN12WPEFramework4Core4JSON6StringaSEOS2_
FNDA:4,_ZN12WPEFramework4Core4JSON6StringaSERKS2_
FNDA:1073,_ZN12WPEFramework4Core4JSON8IElement10FromStringERKNSt7__cxx1112basic_stringIcSt11char_traitsIcESaIcEEERNS0_12OptionalTypeINS1_5ErrorEEE
FNDA:5195,_ZNK12WPEFramework4Core4JSON6String5ValueB5cxx11Ev
FNDA:7888,_ZNK12WPEFramework4Core4JSON6String6IsNullEv
FNDA:6700,_ZNK12WPEFramework4Core4JSON6String5IsSetEv
FNDA:446,_ZN12WPEFramework4Core4JSON6String5ClearEv
FNDA:3493,_ZNK12WPEFramework4Core4JSON6String8IsQuotedEv
FNDA:13,_ZN12WPEFramework4Core4JSON6String9SetQuotedEb
FNDA:52,_ZNK12WPEFramework4Core4JSON6String9SerializeEPctRj
FNDA:6778,_ZN12WPEFramework4Core4JSON6String11DeserializeEPKctRjRNS0_12OptionalTypeINS1_5ErrorEEE
FNDA:1714,_ZZN12WPEFramework4Core4JSON6String11DeserializeEPKctRjRNS0_12OptionalTypeINS1_5ErrorEEEENKUlhE_clEh
FNDA:0,_ZNK12WPEFramework4Core4JSON6String9SerializeEPhtRj
FNDA:0,_ZN12WPEFramework4Core4JSON6String11DeserializeEPKhtRj
FNDA:7686,_ZNK12WPEFramework4Core4JSON6String9IsEscapedERKNSt7__cxx1112basic_stringIcSt11char_traitsIcESaIcEEE
FNDA:1051,_ZN12WPEFramework4Core4JSON6String7InScopeENS2_12ScopeBracketE
FNDA:1051,_ZN12WPEFramework4Core4JSON6String8OutScopeENS2_12ScopeBracketE
FNDA:0,_ZN12WPEFramework4Core4JSON8IElement11DeserializeEPKctRj
FNDA:0,_ZN12WPEFramework4Core4JSON9ArrayTypeINS1_6StringEE17ConstIteratorTypeIS3_EC2ERKNSt7__cxx114listIS3_SaIS3_EEE
FNDA:0,_ZN12WPEFramework4Core4JSON9ArrayTypeINS_6Plugin24RegionalResolutionConfig6RegionEE17ConstIteratorTypeIS5_EC2ERKNSt7__cxx114listIS5_SaIS5_EEE
FNDA:0,_ZN12WPEFramework4Core4JSON12IMessagePackD0Ev
FNDA:11258,_ZN12WPEFramework4Core4JSON12IMessagePackD2Ev
FNDA:0,_ZN12WPEFramework4Core4JSON9ArrayTypeINS1_6StringEE17ConstIteratorTypeIS3_E4NextEv
FNDA:0,_ZN12WPEFramework4Core4JSON9ArrayTypeINS_6Plugin24RegionalResolutionConfig6RegionEE17ConstIteratorTypeIS5_E4NextEv
FNDA:0,_ZNK12WPEFramework4Core4JSON9ArrayTypeINS1_6StringEE17ConstIteratorTypeIS3_E7CurrentEv
FNDA:0,_ZNK12WPEFramework4Core4JSON9ArrayTypeINS_6Plugin24RegionalResolutionConfig6RegionEE17ConstIteratorTypeIS5_E7CurrentEv
FNDA:0,_ZN12WPEFramework4Core4JSON9ArrayTypeINS1_6StringEE12IteratorTypeIS3_EC2ERNSt7__cxx114listIS3_SaIS3_EEE
FNDA:0,_ZN12WPEFramework4Core4JSON9ArrayTypeINS_6Plugin24RegionalResolutionConfig6RegionEE12IteratorTypeIS5_EC2ERNSt7__cxx114listIS5_SaIS5_EEE
FNDA:0,_ZN12WPEFramework4Core4JSON9ArrayTypeINS1_6StringEE12IteratorTypeIS3_E5ResetEj
FNDA:0,_ZN12WPEFramework4Core4JSON9ArrayTypeINS_6Plugin24RegionalResolutionConfig6RegionEE12IteratorTypeIS5_E5ResetEj
FNDA:0,_ZN12WPEFramework4Core4JSON9ArrayTypeINS1_6StringEE12IteratorTypeIS3_E4NextEv
FNDA:0,_ZN12WPEFramework4Core4JSON9ArrayTypeINS_6Plugin24RegionalResolutionConfig6RegionEE12IteratorTypeIS5_E4NextEv
FNDA:0,_ZN12WPEFramework4Core4JSON9ArrayTypeINS1_6StringEE12IteratorTypeIS3_E7CurrentEv
FNDA:0,_ZN12WPEFramework4Core4JSON9ArrayTypeINS_6Plugin24RegionalResolutionConfig6RegionEE12IteratorTypeIS5_E7CurrentEv
FNDA:0,_ZN12WPEFramework4Core4JSON9ArrayTypeINS1_6StringEEC2Ev
FNDA:0,_ZN12WPEFramework4Core4JSON9ArrayTypeINS_6Plugin24RegionalResolutionConfig6RegionEEC2Ev
FNDA:0,_ZN12WPEFramework4Core4JSON9ArrayTypeINS1_6StringEEC2ERKS4_
FNDA:0,_ZN12WPEFramework4Core4JSON9ArrayTypeINS1_6StringEED0Ev
FNDA:0,_ZN12WPEFramework4Core4JSON9ArrayTypeINS1_6StringEED2Ev
FNDA:0,_ZN12WPEFramework4Core4JSON9ArrayTypeINS_6Plugin24RegionalResolutionConfig6RegionEED0Ev
FNDA:0,_ZN12WPEFramework4Core4JSON9ArrayTypeINS_6Plugin24RegionalResolutionConfig6RegionEED2Ev
FNDA:0,_ZNK12WPEFramework4Core4JSON9ArrayTypeINS1_6StringEE5IsSetEv
FNDA:0,_ZNK12WPEFramework4Core4JSON9ArrayTypeINS_6Plugin24RegionalResolutionConfig6RegionEE5IsSetEv
FNDA:0,_ZNK12WPEFramework4Core4JSON9ArrayTypeINS1_6StringEE6IsNullEv
FNDA:0,_ZNK12WPEFramework4Core4JSON9ArrayTypeINS_6Plugin24RegionalResolutionConfig6RegionEE6IsNullEv
FNDA:0,_ZN12WPEFramework4Core4JSON9ArrayTypeINS1_6StringEE5ClearEv
FNDA:0,_ZN12WPEFramework4Core4JSON9ArrayTypeINS_6Plugin24RegionalResolutionConfig6RegionEE5ClearEv
FNDA:0,_ZNK12WPEFramework4Core4JSON9ArrayTypeINS1_6StringEE6LengthEv
FNDA:0,_ZNK12WPEFramework4Core4JSON9ArrayTypeINS_6Plugin24RegionalResolutionConfig6RegionEE6LengthEv
FNDA:0,_ZNK12WPEFramework4Core4JSON9ArrayTypeINS1_6StringEE8ElementsEv
FNDA:0,_ZNK12WPEFramework4Core4JSON9ArrayTypeINS_6Plugin24RegionalResolutionConfig6RegionEE8ElementsEv
FNDA:0,_ZNK12WPEFramework4Core4JSON9ArrayTypeINS1_6StringEE9SerializeEPctRj
FNDA:0,_ZNK12WPEFramework4Core4JSON9ArrayTypeINS_6Plugin24RegionalResolutionConfig6RegionEE9SerializeEPctRj
FNDA:0,_ZN12WPEFramework4Core4JSON9ArrayTypeINS1_6StringEE11DeserializeEPKctRjRNS0_12OptionalTypeINS1_5ErrorEEE
FNDA:0,_ZN12WPEFramework4Core4JSON9ArrayTypeINS_6Plugin24RegionalResolutionConfig6RegionEE11DeserializeEPKctRjRNS0_12OptionalTypeINS1_5ErrorEEE
FNDA:0,_ZNK12WPEFramework4Core4JSON9ArrayTypeINS1_6StringEE9SerializeEPhtRj
FNDA:0,_ZNK12WPEFramework4Core4JSON9ArrayTypeINS_6Plugin24RegionalResolutionConfig6RegionEE9SerializeEPhtRj
FNDA:0,_ZN12WPEFramework4Core4JSON9ArrayTypeINS1_6StringEE11DeserializeEPKhtRj
FNDA:0,_ZN12WPEFramework4Core4JSON9ArrayTypeINS_6Plugin24RegionalResolutionConfig6RegionEE11DeserializeEPKhtRj
FNDA:1130,_ZN12WPEFramework4Core4JSON9ContainerC2Ev
FNDA:0,_ZN12WPEFramework4Core4JSON9ContainerD0Ev
FNDA:1130,_ZN12WPEFramework4Core4JSON9ContainerD2Ev
FNDA:19,_ZNK12WPEFramework4Core4JSON9Container5IsSetEv
FNDA:0,_ZNK12WPEFramework4Core4JSON9Container6IsNullEv
FNDA:68,_ZN12WPEFramework4Core4JSON9Container5ClearEv
FNDA:259,_ZN12WPEFramework4Core4JSON9Container3AddEPKcPNS1_8IElementE
FNDA:4,_ZNK12WPEFramework4Core4JSON9Container9SerializeEPctRj
FNDA:66,_ZN12WPEFramework4Core4JSON9Container11DeserializeEPKctRjRNS0_12OptionalTypeINS1_5ErrorEEE
FNDA:0,_ZNK12WPEFramework4Core4JSON9Container9SerializeEPhtRj
FNDA:0,_ZN12WPEFramework4Core4JSON9Container11DeserializeEPKhtRj
FNDA:0,_ZN12WPEFramework4Core4JSON9Container5ResetEv
FNDA:140,_ZN12WPEFramework4Core4JSON9Container4FindEPKc
FNDA:8,_ZNK12WPEFramework4Core4JSON9Container8FindNextEv
FNDA:0,_ZNK12WPEFramework4Core4JSON9Container4SizeEv
FNDA:0,_ZN12WPEFramework4Core4JSON9Container7RequestEPKc
FNDA:2656,_ZN12WPEFramework4Core4JSON7VariantC2Ev
FNDA:2,_ZN12WPEFramework4Core4JSON5ErrorC2EONSt7__cxx1112basic_stringIcSt11char_traitsIcESaIcEEE
FNDA:6162,_ZN12WPEFramework4Core4JSON7VariantC2ERKS2_
FNDA:0,_ZN12WPEFramework4Core4JSON7VariantD0Ev
FNDA:8818,_ZN12WPEFramework4Core4JSON7VariantD2Ev
FNDA:2054,_ZN12WPEFramework4Core4JSON7VariantaSEOS2_
FNDA:4,_ZN12WPEFramework4Core4JSON7VariantaSERKS2_
FNDA:6178,_ZNK12WPEFramework4Core4JSON7Variant7ContentEv
FNDA:660,_ZNK12WPEFramework4Core4JSON7Variant7BooleanEv
FNDA:0,_ZNK12WPEFramework4Core4JSON7Variant6StringB5cxx11Ev
FNDA:2,_ZN12WPEFramework4Core4JSON7Variant7BooleanEb
FNDA:4,_ZN12WPEFramework4Core4JSON7Variant6NumberIjEEvT_
FNDA:19,_ZN12WPEFramework4Core4JSONL11IsNullValueEPKctRjRt
FNDA:7,_ZN12WPEFramework4Core4JSON7Variant6StringEPKc
FNDA:4,_ZN12WPEFramework4Core4JSON7VariantaSIjEERS2_RKT_
FNDA:2,_ZN12WPEFramework4Core4JSON7VariantaSERKb
FNDA:7,_ZN12WPEFramework4Core4JSON7VariantaSERKNSt7__cxx1112basic_stringIcSt11char_traitsIcESaIcEEE
FNDA:0,_ZN12WPEFramework4Core4JSON7VariantaSEPKc
FNDA:4,_ZN12WPEFramework4Core4JSON7VariantaSERKNS1_16VariantContainerE
FNDA:6217,_ZNK12WPEFramework4Core4JSON7Variant5IsSetEv
FNDA:19,_ZN12WPEFramework4Core4JSON16VariantContainer8IteratorC2ERKSt13unordered_mapINSt7__cxx1112basic_stringIcSt11char_traitsIcESaIcEEENS1_7VariantESt4hashISA_ESt8equal_toISA_ESaISt4pairIKSA_SB_EEE
FNDA:1046,_ZN12WPEFramework4Core4JSON16VariantContainer8Iterator4NextEv
FNDA:1027,_ZNK12WPEFramework4Core4JSON16VariantContainer8Iterator5LabelEv
FNDA:1027,_ZNK12WPEFramework4Core4JSON16VariantContainer8Iterator7CurrentEv
FNDA:1064,_ZN12WPEFramework4Core4JSON16VariantContainerC2Ev
FNDA:0,_ZN12WPEFramework4Core4JSON16VariantContainerD0Ev
FNDA:1064,_ZN12WPEFramework4Core4JSON16VariantContainerD2Ev
FNDA:1027,_ZNK12WPEFramework4Core4JSON16VariantContainer3GetEPKc
FNDA:17,_ZN12WPEFramework4Core4JSON16VariantContainerixEPKc
FNDA:5136,_ZNK12WPEFramework4Core4JSON16VariantContainerixEPKc
FNDA:1,_ZNK12WPEFramework4Core4JSON16VariantContainer8HasLabelEPKc
FNDA:19,_ZNK12WPEFramework4Core4JSON16VariantContainer8VariantsEv
FNDA:0,_ZN12WPEFramework4Core4JSON16VariantContainer5ClearEv
FNDA:17,_ZN12WPEFramework4Core4JSON16VariantContainer4FindB5cxx11EPKc
FNDA:6164,_ZNK12WPEFramework4Core4JSON16VariantContainer4FindB5cxx11EPKc
FNDA:0,_ZN12WPEFramework4Core4JSON16VariantContainer7RequestEPKc
FNDA:4,_ZN12WPEFramework4Core4JSON10NumberTypeIiLb1EL10NumberBase10EEC2Eib
FNDA:84,_ZN12WPEFramework4Core4JSON10NumberTypeIjLb0EL10NumberBase10EEC2Ejb
FNDA:4,_ZN12WPEFramework4Core4JSON7Variant6ObjectERKNS1_16VariantContainerE
FNDA:1028,_ZNK12WPEFramework4Core4JSON7Variant6ObjectEv
FNDA:3299,_ZN12WPEFramework4Core4JSON7Variant11DeserializeEPKctRjRNS0_12OptionalTypeINS1_5ErrorEEE
FNDA:0,_ZN12WPEFramework4Core4JSON10NumberTypeIiLb1EL10NumberBase10EED0Ev
FNDA:4,_ZN12WPEFramework4Core4JSON10NumberTypeIiLb1EL10NumberBase10EED2Ev
FNDA:0,_ZN12WPEFramework4Core4JSON10NumberTypeIjLb0EL10NumberBase10EED0Ev
FNDA:84,_ZN12WPEFramework4Core4JSON10NumberTypeIjLb0EL10NumberBase10EED2Ev
FNDA:0,_ZN12WPEFramework4Core4JSON10NumberTypeIiLb1EL10NumberBase10EEaSERKS4_
FNDA:2,_ZN12WPEFramework4Core4JSON5ErroraSERKS2_
FNDA:4,_ZN12WPEFramework4Core4JSON10NumberTypeIiLb1EL10NumberBase10EEaSERKi
FNDA:0,_ZN12WPEFramework4Core4JSON10NumberTypeIjLb0EL10NumberBase10EEaSERKj
FNDA:1,_ZNK12WPEFramework4Core4JSON5Error7MessageB5cxx11Ev
FNDA:30,_ZNK12WPEFramework4Core4JSON10NumberTypeIjLb0EL10NumberBase10EE5ValueEv
FNDA:4,_ZNK12WPEFramework4Core4JSON10NumberTypeIiLb1EL10NumberBase10EE5IsSetEv
FNDA:30,_ZNK12WPEFramework4Core4JSON10NumberTypeIjLb0EL10NumberBase10EE5IsSetEv
FNDA:0,_ZNK12WPEFramework4Core4JSON10NumberTypeIiLb1EL10NumberBase10EE6IsNullEv
FNDA:0,_ZNK12WPEFramework4Core4JSON10NumberTypeIjLb0EL10NumberBase10EE6IsNullEv
FNDA:0,_ZN12WPEFramework4Core4JSON10NumberTypeIiLb1EL10NumberBase10EE5ClearEv
FNDA:92,_ZN12WPEFramework4Core4JSON10NumberTypeIjLb0EL10NumberBase10EE5ClearEv
FNDA:4,_ZNK12WPEFramework4Core4JSON10NumberTypeIiLb1EL10NumberBase10EE9SerializeEPctRj
FNDA:0,_ZNK12WPEFramework4Core4JSON10NumberTypeIjLb0EL10NumberBase10EE9SerializeEPctRj
FNDA:2,_ZN12WPEFramework4Core4JSON5Error7ContextEPKcmm
FNDA:0,_ZN12WPEFramework4Core4JSON10NumberTypeIiLb1EL10NumberBase10EE11DeserializeEPKctRjRNS0_12OptionalTypeINS1_5ErrorEEE
FNDA:38,_ZN12WPEFramework4Core4JSON10NumberTypeIjLb0EL10NumberBase10EE11DeserializeEPKctRjRNS0_12OptionalTypeINS1_5ErrorEEE
FNDA:1073,_ZN12WPEFramework4Core4JSON5ErrorC2Ev
FNDA:0,_ZNK12WPEFramework4Core4JSON10NumberTypeIiLb1EL10NumberBase10EE9SerializeEPhtRj
FNDA:0,_ZNK12WPEFramework4Core4JSON10NumberTypeIjLb0EL10NumberBase10EE9SerializeEPhtRj
FNDA:0,_ZN12WPEFramework4Core4JSON10NumberTypeIiLb1EL10NumberBase10EE11DeserializeEPKhtRj
FNDA:0,_ZN12WPEFramework4Core4JSON10NumberTypeIjLb0EL10NumberBase10EE11DeserializeEPKhtRj
FNDA:4,_ZNK12WPEFramework4Core4JSON10NumberTypeIiLb1EL10NumberBase10EE7ConvertEPctRji
FNDA:0,_ZNK12WPEFramework4Core4JSON10NumberTypeIjLb0EL10NumberBase10EE7ConvertEPctRjj
FNDA:0,_ZNK12WPEFramework4Core4JSON10NumberTypeIjLb0EL10NumberBase10EE7ConvertEPctRjRK17TemplateIntToTypeILj0EE
FNDA:4,_ZNK12WPEFramework4Core4JSON10NumberTypeIiLb1EL10NumberBase10EE7ConvertEPctRjRK17TemplateIntToTypeILj1EE
FNDA:0,_ZNK12WPEFramework4Core4JSON10NumberTypeIjLb0EL10NumberBase10EE7ConvertEPhtRjRK17TemplateIntToTypeILj0EE
FNDA:0,_ZN12WPEFramework4Core4JSON8IElementD0Ev
FNDA:11258,_ZN12WPEFramework4Core4JSON8IElementD2Ev
FNDA:12,_ZN12WPEFramework4Core4JSON8IElement8ToStringIS2_EEbRKT_RNSt7__cxx1112basic_stringIcSt11char_traitsIcESaIcEEE
FNDA:0,_ZNK12WPEFramework4Core4JSON10NumberTypeIiLb1EL10NumberBase10EE7ConvertEPhtRjRK17TemplateIntToTypeILj1EE
FNF:163
FNH:85
DA:43,2
DA:44,2
DA:45,2
DA:46,2
DA:48,2
DA:52,2
DA:55,1
DA:61,2
DA:63,2
DA:64,4
DA:65,2
DA:66,2
DA:67,2
DA:71,1073
DA:72,1073
DA:73,1073
DA:74,1073
DA:76,1073
DA:91,11258
DA:94,12
DA:98,12
DA:100,12
DA:104,12
DA:106,12
DA:109,12
DA:111,12
DA:113,12
DA:124,1073
DA:126,1073
DA:127,1073
DA:128,1073
DA:130,1073
DA:132,2165
DA:134,1092
DA:137,1092
DA:139,1092
DA:142,1092
DA:143,0
DA:145,1092
DA:148,1073
DA:149,0
DA:150,0
DA:153,1073
DA:154,3
DA:155,3
DA:158,2146
DA:161,12
DA:163,12
DA:166,1032
DA:168,1032
DA:169,2064
DA:170,1032
DA:172,1073
DA:174,1073
DA:274,0
DA:276,0
DA:277,0
DA:279,0
DA:280,0
DA:281,0
DA:282,0
DA:285,0
DA:286,0
DA:291,11258
DA:446,19
DA:448,19
DA:449,19
DA:450,19
DA:451,19
DA:452,19
DA:453,19
DA:454,19
DA:456,0
DA:457,0
DA:458,0
DA:462,19
DA:463,0
DA:465,19
DA:489,88
DA:490,88
DA:491,88
DA:492,88
DA:494,88
DA:507,88
DA:518,0
DA:520,0
DA:521,0
DA:522,0
DA:524,0
DA:527,4
DA:529,4
DA:530,4
DA:532,4
DA:552,30
DA:554,30
DA:571,34
DA:573,34
DA:576,0
DA:578,0
DA:581,92
DA:583,92
DA:584,92
DA:585,92
DA:589,4
DA:591,4
DA:593,4
DA:595,8
DA:597,4
DA:598,0
DA:599,0
DA:600,0
DA:601,0
DA:604,4
DA:605,2
DA:607,4
DA:640,4
DA:641,4
DA:644,4
DA:645,0
DA:646,0
DA:649,4
DA:652,38
DA:654,38
DA:657,76
DA:658,38
DA:659,38
DA:660,38
DA:662,38
DA:663,0
DA:664,0
DA:665,38
DA:666,0
DA:667,0
DA:668,38
DA:669,38
DA:670,38
DA:671,38
DA:672,0
DA:673,0
DA:674,0
DA:676,0
DA:677,0
DA:678,0
DA:679,0
DA:681,0
DA:682,0
DA:683,0
DA:684,0
DA:685,0
DA:686,0
DA:687,0
DA:688,0
DA:689,0
DA:690,0
DA:691,0
DA:692,0
DA:693,0
DA:694,0
DA:695,0
DA:696,0
DA:698,0
DA:699,0
DA:700,0
DA:701,0
DA:703,0
DA:704,0
DA:705,0
DA:706,0
DA:707,0
DA:708,0
DA:709,0
DA:710,0
DA:711,0
DA:712,0
DA:713,0
DA:714,0
DA:715,0
DA:716,0
DA:717,0
DA:719,0
DA:720,0
DA:721,0
DA:722,0
DA:724,0
DA:725,0
DA:726,0
DA:727,0
DA:728,0
DA:729,0
DA:730,0
DA:731,0
DA:732,0
DA:733,0
DA:734,0
DA:735,0
DA:736,0
DA:738,0
DA:739,0
DA:740,0
DA:741,0
DA:744,38
DA:747,38
DA:749,160
DA:754,122
DA:756,122
DA:762,84
DA:764,84
DA:765,38
DA:771,0
DA:773,0
DA:774,38
DA:775,0
DA:776,0
DA:777,38
DA:778,38
DA:781,0
DA:782,0
DA:783,0
DA:784,0
DA:790,122
DA:792,0
DA:793,0
DA:794,0
DA:798,38
DA:799,0
DA:800,0
DA:801,0
DA:804,38
DA:805,38
DA:806,0
DA:808,38
DA:809,38
DA:812,38
DA:816,0
DA:818,0
DA:819,0
DA:820,0
DA:822,0
DA:825,0
DA:827,0
DA:828,0
DA:830,0
DA:831,0
DA:833,0
DA:834,0
DA:835,0
DA:836,0
DA:837,0
DA:838,0
DA:839,0
DA:840,0
DA:841,0
DA:842,0
DA:843,0
DA:844,0
DA:845,0
DA:847,0
DA:851,0
DA:852,0
DA:853,0
DA:854,0
DA:857,0
DA:858,0
DA:860,0
DA:864,4
DA:866,4
DA:867,4
DA:868,4
DA:869,4
DA:871,13
DA:872,9
DA:875,4
DA:877,17
DA:878,13
DA:879,13
DA:881,13
DA:885,13
DA:887,13
DA:888,13
DA:889,13
DA:892,4
DA:893,4
DA:896,4
DA:899,0
DA:901,0
DA:904,4
DA:906,4
DA:909,0
DA:911,0
DA:912,0
DA:914,0
DA:915,0
DA:916,0
DA:917,0
DA:919,0
DA:922,0
DA:923,0
DA:924,0
DA:925,0
DA:926,0
DA:927,0
DA:928,0
DA:929,0
DA:930,0
DA:931,0
DA:932,0
DA:933,0
DA:934,0
DA:935,0
DA:936,0
DA:938,0
DA:942,0
DA:943,0
DA:945,0
DA:946,0
DA:949,0
DA:952,0
DA:954,0
DA:955,0
DA:957,0
DA:958,0
DA:959,0
DA:961,0
DA:962,0
DA:963,0
DA:964,0
DA:965,0
DA:966,0
DA:967,0
DA:968,0
DA:969,0
DA:970,0
DA:971,0
DA:972,0
DA:973,0
DA:974,0
DA:975,0
DA:977,0
DA:981,0
DA:982,0
DA:984,0
DA:985,0
DA:988,0
DA:1584,3878
DA:1585,7756
DA:1586,3878
DA:1587,3878
DA:1588,7756
DA:1590,3878
DA:1592,0
DA:1593,0
DA:1594,0
DA:1595,0
DA:1596,0
DA:1598,0
DA:1599,0
DA:1601,0
DA:1602,0
DA:1603,0
DA:1604,0
DA:1605,0
DA:1607,0
DA:1608,0
DA:1621,0
DA:1622,0
DA:1623,0
DA:1624,0
DA:1625,0
DA:1627,0
DA:1629,6162
DA:1630,12324
DA:1631,6162
DA:1632,6162
DA:1633,6162
DA:1635,6162
DA:1637,10040
DA:1639,20
DA:1641,20
DA:1642,20
DA:1644,20
DA:1659,2669
DA:1661,2669
DA:1662,2669
DA:1664,2669
DA:1677,2054
DA:1679,2054
DA:1680,2054
DA:1681,2054
DA:1682,2054
DA:1684,2054
DA:1687,4
DA:1689,4
DA:1690,4
DA:1691,4
DA:1692,4
DA:1694,4
DA:1751,5195
DA:1753,5195
DA:1754,1587
DA:1756,3608
DA:1782,7888
DA:1784,7888
DA:1787,6700
DA:1789,6700
DA:1792,446
DA:1794,446
DA:1795,446
DA:1796,446
DA:1798,3493
DA:1800,3493
DA:1803,13
DA:1805,13
DA:1806,7
DA:1809,6
DA:1811,13
DA:1814,52
DA:1816,52
DA:1818,52
DA:1820,52
DA:1821,52
DA:1822,52
DA:1823,52
DA:1825,40
DA:1827,52
DA:1828,52
DA:1831,52
DA:1833,638
DA:1834,586
DA:1837,586
DA:1839,395
DA:1842,586
DA:1843,586
DA:1844,586
DA:1846,0
DA:1848,0
DA:1849,0
DA:1851,0
DA:1853,0
DA:1854,0
DA:1855,0
DA:1856,0
DA:1857,0
DA:1858,0
DA:1859,0
DA:1861,0
DA:1863,0
DA:1864,0
DA:1866,0
DA:1868,0
DA:1871,0
DA:1872,0
DA:1874,0
DA:1878,0
DA:1880,0
DA:1885,0
DA:1889,0
DA:1891,0
DA:1892,0
DA:1897,0
DA:1898,0
DA:1899,0
DA:1900,0
DA:1904,0
DA:1905,0
DA:1911,0
DA:1913,0
DA:1916,0
DA:1918,0
DA:1921,0
DA:1923,0
DA:1925,0
DA:1926,0
DA:1927,0
DA:1931,0
DA:1932,0
DA:1933,0
DA:1935,0
DA:1941,52
DA:1943,52
DA:1944,12
DA:1946,40
DA:1947,40
DA:1948,40
DA:1953,52
DA:1955,6778
DA:1957,6778
DA:1958,6778
DA:1959,6778
DA:1961,6778
DA:1962,6778
DA:1963,6778
DA:1964,6778
DA:1965,6778
DA:1966,5064
DA:1967,5064
DA:1969,6778
DA:1973,213171
DA:1975,206393
DA:1978,206393
DA:1980,116078
DA:1982,56089
DA:1983,1051
DA:1984,0
DA:1987,55038
DA:1988,0
DA:1989,0
DA:1992,55038
DA:1994,3356
DA:1996,51682
DA:1997,1051
DA:1998,0
DA:2001,50631
DA:2002,0
DA:2003,0
DA:2008,116078
DA:2009,115413
DA:2011,59989
DA:2013,55424
DA:2015,14779
DA:2018,14779
DA:2024,115413
DA:2027,7686
DA:2030,115413
DA:2034,90315
DA:2036,90315
DA:2038,0
DA:2039,90315
DA:2041,5064
DA:2042,85251
DA:2043,0
DA:2046,85251
DA:2048,90315
DA:2050,0
DA:2052,0
DA:2053,0
DA:2057,0
DA:2058,0
DA:2059,0
DA:2060,0
DA:2061,0
DA:2062,0
DA:2063,0
DA:2064,0
DA:2065,0
DA:2066,0
DA:2067,0
DA:2068,0
DA:2070,0
DA:2072,0
DA:2076,0
DA:2078,0
DA:2079,0
DA:2082,0
DA:2083,0
DA:2084,0
DA:2085,0
DA:2088,0
DA:2094,0
DA:2097,0
DA:2099,0
DA:2100,0
DA:2103,0
DA:2105,0
DA:2112,6778
DA:2113,0
DA:2115,6778
DA:2116,6778
DA:2118,6778
DA:2120,3428
DA:2124,6778
DA:2128,0
DA:2130,0
DA:2131,0
DA:2132,0
DA:2133,0
DA:2134,0
DA:2135,0
DA:2136,0
DA:2137,0
DA:2138,0
DA:2139,0
DA:2140,0
DA:2141,0
DA:2142,0
DA:2143,0
DA:2144,0
DA:2145,0
DA:2147,0
DA:2151,0
DA:2152,0
DA:2153,0
DA:2154,0
DA:2157,0
DA:2158,0
DA:2159,0
DA:2160,0
DA:2161,0
DA:2162,0
DA:2163,0
DA:2164,0
DA:2167,0
DA:2168,0
DA:2173,0
DA:2176,0
DA:2178,0
DA:2179,0
DA:2180,0
DA:2181,0
DA:2182,0
DA:2183,0
DA:2184,0
DA:2185,0
DA:2186,0
DA:2187,0
DA:2188,0
DA:2189,0
DA:2190,0
DA:2191,0
DA:2192,0
DA:2193,0
DA:2194,0
DA:2195,0
DA:2197,0
DA:2201,0
DA:2202,0
DA:2203,0
DA:2204,0
DA:2207,0
DA:2208,0
DA:2209,0
DA:2212,0
DA:2213,0
DA:2214,0
DA:2218,0
DA:2222,7686
DA:2228,7686
DA:2229,7686
DA:2230,7686
DA:2231,0
DA:2233,7686
DA:2235,1051
DA:2236,1051
DA:2237,1051
DA:2239,1051
DA:2240,1051
DA:2241,1051
DA:2242,1051
DA:2243,1051
DA:2245,1051
DA:2247,1051
DA:2248,1051
DA:2249,1051
DA:2250,1051
DA:2251,1051
DA:2252,1051
DA:2253,1051
DA:2254,1051
DA:2256,1051
DA:2909,0
DA:2910,0
DA:2911,0
DA:2912,0
DA:2914,0
DA:2984,0
DA:2986,0
DA:2987,0
DA:2988,0
DA:2989,0
DA:2992,0
DA:2993,0
DA:2996,0
DA:2999,0
DA:3001,0
DA:3004,0
DA:3006,0
DA:3008,0
DA:3040,0
DA:3041,0
DA:3042,0
DA:3043,0
DA:3045,0
DA:3087,0
DA:3089,0
DA:3091,0
DA:3092,0
DA:3093,0
DA:3094,0
DA:3095,0
DA:3096,0
DA:3097,0
DA:3100,0
DA:3101,0
DA:3103,0
DA:3104,0
DA:3107,0
DA:3111,0
DA:3114,0
DA:3116,0
DA:3117,0
DA:3118,0
DA:3119,0
DA:3122,0
DA:3123,0
DA:3126,0
DA:3129,0
DA:3131,0
DA:3141,0
DA:3143,0
DA:3145,0
DA:3163,0
DA:3164,0
DA:3165,0
DA:3166,0
DA:3167,0
DA:3169,0
DA:3179,0
DA:3180,0
DA:3181,0
DA:3182,0
DA:3183,0
DA:3185,0
DA:3187,0
DA:3211,0
DA:3213,0
DA:3216,0
DA:3218,0
DA:3256,0
DA:3258,0
DA:3259,0
DA:3260,0
DA:3262,0
DA:3264,0
DA:3325,0
DA:3327,0
DA:3396,0
DA:3398,0
DA:3400,0
DA:3401,0
DA:3402,0
DA:3403,0
DA:3406,0
DA:3407,0
DA:3408,0
DA:3409,0
DA:3411,0
DA:3412,0
DA:3413,0
DA:3415,0
DA:3416,0
DA:3417,0
DA:3418,0
DA:3419,0
DA:3420,0
DA:3421,0
DA:3422,0
DA:3425,0
DA:3426,0
DA:3427,0
DA:3428,0
DA:3430,0
DA:3432,0
DA:3437,0
DA:3440,0
DA:3442,0
DA:3444,0
DA:3445,0
DA:3446,0
DA:3450,0
DA:3451,0
DA:3452,0
DA:3453,0
DA:3454,0
DA:3455,0
DA:3456,0
DA:3459,0
DA:3460,0
DA:3461,0
DA:3462,0
DA:3463,0
DA:3464,0
DA:3465,0
DA:3466,0
DA:3467,0
DA:3468,0
DA:3469,0
DA:3473,0
DA:3474,0
DA:3476,0
DA:3477,0
DA:3480,0
DA:3481,0
DA:3482,0
DA:3483,0
DA:3484,0
DA:3485,0
DA:3486,0
DA:3487,0
DA:3488,0
DA:3489,0
DA:3490,0
DA:3491,0
DA:3493,0
DA:3495,0
DA:3496,0
DA:3497,0
DA:3498,0
DA:3499,0
DA:3500,0
DA:3501,0
DA:3503,0
DA:3504,0
DA:3506,0
DA:3511,0
DA:3512,0
DA:3513,0
DA:3514,0
DA:3517,0
DA:3518,0
DA:3521,0
DA:3525,0
DA:3527,0
DA:3529,0
DA:3530,0
DA:3531,0
DA:3532,0
DA:3536,0
DA:3537,0
DA:3538,0
DA:3539,0
DA:3540,0
DA:3541,0
DA:3544,0
DA:3545,0
DA:3547,0
DA:3549,0
DA:3550,0
DA:3551,0
DA:3552,0
DA:3553,0
DA:3554,0
DA:3555,0
DA:3558,0
DA:3559,0
DA:3560,0
DA:3561,0
DA:3562,0
DA:3563,0
DA:3568,0
DA:3571,0
DA:3573,0
DA:3575,0
DA:3576,0
DA:3577,0
DA:3578,0
DA:3579,0
DA:3580,0
DA:3581,0
DA:3582,0
DA:3583,0
DA:3587,0
DA:3588,0
DA:3589,0
DA:3590,0
DA:3591,0
DA:3592,0
DA:3593,0
DA:3597,0
DA:3599,0
DA:3600,0
DA:3601,0
DA:3602,0
DA:3604,0
DA:3607,0
DA:3608,0
DA:3609,0
DA:3610,0
DA:3614,0
DA:3718,1130
DA:3719,2260
DA:3720,1130
DA:3721,1130
DA:3722,1130
DA:3723,2260
DA:3725,1130
DA:3726,1130
DA:3727,1130
DA:3745,19
DA:3747,19
DA:3749,19
DA:3750,19
DA:3752,19
DA:3753,0
DA:3756,19
DA:3759,19
DA:3772,0
DA:3774,0
DA:3787,68
DA:3789,68
DA:3792,320
DA:3793,252
DA:3794,252
DA:3796,68
DA:3797,68
DA:3799,259
DA:3801,259
DA:3802,259
DA:3818,4
DA:3820,4
DA:3822,4
DA:3823,0
DA:3824,0
DA:3825,0
DA:3828,4
DA:3829,4
DA:3830,4
DA:3832,4
DA:3833,4
DA:3834,4
DA:3835,4
DA:3836,4
DA:3838,0
DA:3839,0
DA:3842,36
DA:3843,32
DA:3844,16
DA:3845,16
DA:3846,16
DA:3847,16
DA:3848,16
DA:3849,8
DA:3850,8
DA:3851,8
DA:3853,8
DA:3854,4
DA:3855,4
DA:3856,4
DA:3857,4
DA:3859,4
DA:3864,4
DA:3865,4
DA:3866,4
DA:3867,4
DA:3868,4
DA:3870,0
DA:3875,4
DA:3878,66
DA:3880,66
DA:3882,66
DA:3883,120
DA:3884,54
DA:3888,66
DA:3889,0
DA:3890,66
DA:3891,66
DA:3892,66
DA:3893,66
DA:3894,19
DA:3897,19
DA:3898,0
DA:3899,0
DA:3900,0
DA:3901,0
DA:3902,0
DA:3903,0
DA:3904,47
DA:3905,47
DA:3906,47
DA:3907,47
DA:3908,47
DA:3912,628
DA:3913,564
DA:3915,725
DA:3916,161
DA:3919,564
DA:3920,564
DA:3921,45
DA:3922,45
DA:3923,0
DA:3924,0
DA:3925,45
DA:3926,0
DA:3927,0
DA:3929,45
DA:3930,45
DA:3931,45
DA:3932,45
DA:3933,95
DA:3934,95
DA:3935,0
DA:3936,0
DA:3937,0
DA:3938,95
DA:3939,0
DA:3940,0
DA:3941,0
DA:3943,95
DA:3945,95
DA:3946,95
DA:3947,140
DA:3948,140
DA:3949,0
DA:3950,0
DA:3951,0
DA:3952,140
DA:3953,0
DA:3954,0
DA:3955,0
DA:3957,140
DA:3959,140
DA:3960,140
DA:3961,284
DA:3962,284
DA:3963,142
DA:3964,0
DA:3970,142
DA:3971,2
DA:3972,2
DA:3973,2
DA:3974,2
DA:3975,2
DA:3977,140
DA:3979,140
DA:3981,140
DA:3982,0
DA:3985,142
DA:3986,0
DA:3987,0
DA:3988,0
DA:3989,0
DA:3990,0
DA:3992,142
DA:3994,282
DA:3995,282
DA:4000,564
DA:4001,282
DA:4002,282
DA:4003,282
DA:4004,142
DA:4005,142
DA:4006,0
DA:4008,142
DA:4010,140
DA:4011,140
DA:4014,140
DA:4017,282
DA:4020,564
DA:4021,2
DA:4027,66
DA:4028,2
DA:4029,2
DA:4032,66
DA:4036,0
DA:4038,0
DA:4040,0
DA:4041,0
DA:4042,0
DA:4043,0
DA:4047,0
DA:4048,0
DA:4049,0
DA:4050,0
DA:4051,0
DA:4052,0
DA:4053,0
DA:4056,0
DA:4057,0
DA:4059,0
DA:4060,0
DA:4061,0
DA:4063,0
DA:4067,0
DA:4068,0
DA:4069,0
DA:4070,0
DA:4071,0
DA:4072,0
DA:4073,0
DA:4076,0
DA:4077,0
DA:4078,0
DA:4079,0
DA:4080,0
DA:4081,0
DA:4083,0
DA:4085,0
DA:4086,0
DA:4087,0
DA:4088,0
DA:4089,0
DA:4092,0
DA:4094,0
DA:4095,0
DA:4096,0
DA:4097,0
DA:4099,0
DA:4100,0
DA:4107,0
DA:4110,0
DA:4112,0
DA:4114,0
DA:4115,0
DA:4116,0
DA:4117,0
DA:4118,0
DA:4119,0
DA:4120,0
DA:4121,0
DA:4123,0
DA:4126,0
DA:4127,0
DA:4128,0
DA:4129,0
DA:4130,0
DA:4131,0
DA:4132,0
DA:4136,0
DA:4138,0
DA:4139,0
DA:4140,0
DA:4141,0
DA:4142,0
DA:4143,0
DA:4144,0
DA:4146,0
DA:4147,0
DA:4148,0
DA:4152,0
DA:4153,0
DA:4154,0
DA:4158,0
DA:4159,0
DA:4160,0
DA:4161,0
DA:4165,0
DA:4169,0
DA:4171,0
DA:4172,0
DA:4174,140
DA:4176,140
DA:4178,140
DA:4180,527
DA:4181,387
DA:4184,140
DA:4185,140
DA:4187,0
DA:4188,0
DA:4190,0
DA:4191,0
DA:4192,0
DA:4193,0
DA:4197,140
DA:4200,8
DA:4202,8
DA:4203,12
DA:4204,4
DA:4206,8
DA:4209,0
DA:4211,0
DA:4212,0
DA:4213,0
DA:4214,0
DA:4215,0
DA:4216,0
DA:4218,0
DA:4221,0
DA:4224,0
DA:4226,0
DA:4259,2656
DA:4260,2656
DA:4261,2656
DA:4263,2656
DA:4264,2656
DA:4338,6162
DA:4339,6162
DA:4340,6162
DA:4342,6162
DA:4346,8818
DA:4348,2054
DA:4350,2054
DA:4351,2054
DA:4352,2054
DA:4355,4
DA:4357,4
DA:4358,4
DA:4359,4
DA:4365,6178
DA:4367,6178
DA:4370,660
DA:4372,660
DA:4373,660
DA:4374,660
DA:4376,660
DA:4424,0
DA:4426,0
DA:4440,2
DA:4442,2
DA:4443,2
DA:4444,2
DA:4445,2
DA:4448,4
DA:4450,4
DA:4451,4
DA:4452,4
DA:4453,4
DA:4473,7
DA:4475,7
DA:4476,7
DA:4477,7
DA:4478,7
DA:4492,4
DA:4494,4
DA:4495,4
DA:4498,2
DA:4500,2
DA:4501,2
DA:4504,7
DA:4506,7
DA:4507,7
DA:4510,0
DA:4512,0
DA:4513,0
DA:4522,4
DA:4524,4
DA:4525,4
DA:4531,6217
DA:4533,6217
DA:4586,19
DA:4587,19
DA:4588,19
DA:4589,19
DA:4591,19
DA:4648,1046
DA:4650,1046
DA:4651,1046
DA:4652,19
DA:4653,1027
DA:4654,1027
DA:4656,1046
DA:4659,0
DA:4662,1027
DA:4664,1027
DA:4667,1027
DA:4669,1027
DA:4679,1064
DA:4680,1064
DA:4681,1064
DA:4683,1064
DA:4740,1064
DA:4809,1027
DA:4811,1027
DA:4813,1027
DA:4815,1027
DA:4816,2
DA:4819,2054
DA:4820,0
DA:4822,17
DA:4824,17
DA:4826,17
DA:4827,17
DA:4828,17
DA:4829,17
DA:4830,17
DA:4833,34
DA:4843,5136
DA:4845,5136
DA:4847,5136
DA:4849,5136
DA:4852,1
DA:4854,1
DA:4857,19
DA:4859,19
DA:4862,0
DA:4864,0
DA:4865,0
DA:4866,0
DA:4870,17
DA:4872,51
DA:4875,6164
DA:4877,18492
DA:4881,0
DA:4885,0
DA:4886,0
DA:4887,0
DA:4889,0
DA:4891,0
DA:4907,4
DA:4909,4
DA:4910,4
DA:4911,4
DA:4912,4
DA:4913,4
DA:4915,1028
DA:4917,1028
DA:4918,1028
DA:4919,1028
DA:4920,0
DA:4981,3299
DA:4983,3299
DA:4986,3299
DA:4987,3299
DA:4988,1711
DA:4989,1711
DA:4990,0
DA:4992,1711
DA:4993,1049
DA:4995,662
DA:4996,0
DA:4998,662
DA:4999,660
DA:5001,2
DA:5002,0
DA:5005,2
DA:5007,1711
DA:5009,1588
DA:5012,3299
LF:1315
LH:563
end_of_record
TN:
SF:/home/kavia/workspace/code-generation/app-gateway2/dependencies/install/include/WPEFramework/core/JSONRPC.h
FN:158,176,_ZN12WPEFramework4Core7JSONRPC7MessageC2Ev
FN:194,194,_ZN12WPEFramework4Core7JSONRPC7MessageD0Ev
FN:194,194,_ZN12WPEFramework4Core7JSONRPC7MessageD2Ev
FN:197,212,_ZN12WPEFramework4Core7JSONRPC7Message8CallsignERKNSt7__cxx1112basic_stringIcSt11char_traitsIcESaIcEEE
FN:213,219,_ZN12WPEFramework4Core7JSONRPC7Message6MethodERKNSt7__cxx1112basic_stringIcSt11char_traitsIcESaIcEEE
FN:220,224,_ZN12WPEFramework4Core7JSONRPC7Message10FullMethodERKNSt7__cxx1112basic_stringIcSt11char_traitsIcESaIcEEE
FN:241,265,_ZN12WPEFramework4Core7JSONRPC7Message7VersionERKNSt7__cxx1112basic_stringIcSt11char_traitsIcESaIcEEE
FN:309,318,_ZN12WPEFramework4Core7JSONRPC7Message5ClearEv
FN:378,382,_ZN12WPEFramework4Core7JSONRPC7ContextC2EjjRKNSt7__cxx1112basic_stringIcSt11char_traitsIcESaIcEEE
FN:383,383,_ZN12WPEFramework4Core7JSONRPC7ContextD2Ev
FN:40,49,_ZN12WPEFramework4Core7JSONRPC7Message4InfoC2Ev
FN:427,430,_ZN12WPEFramework4Core7JSONRPC7Handler5Entry9FunctionsC2ERKSt8functionIFjRKNS1_7ContextERKNSt7__cxx1112basic_stringIcSt11char_traitsIcESaIcEEESG_RSE_EE
FN:439,446,_ZN12WPEFramework4Core7JSONRPC7Handler5Entry9Functions6AssignERKSt8functionIFjRKNS1_7ContextERKNSt7__cxx1112basic_stringIcSt11char_traitsIcESaIcEEESG_RSE_EEb
FN:448,450,_ZN12WPEFramework4Core7JSONRPC7Handler5Entry9FunctionsD2Ev
FN:462,466,_ZN12WPEFramework4Core7JSONRPC7Handler5EntryC2ERKSt8functionIFjRKNS1_7ContextERKNSt7__cxx1112basic_stringIcSt11char_traitsIcESaIcEEESF_RSD_EE
FN:477,481,_ZN12WPEFramework4Core7JSONRPC7Handler5EntryaSERKSt8functionIFjRKNS1_7ContextERKNSt7__cxx1112basic_stringIcSt11char_traitsIcESaIcEEESF_RSD_EE
FN:482,489,_ZN12WPEFramework4Core7JSONRPC7Handler5EntryD2Ev
FN:492,501,_ZN12WPEFramework4Core7JSONRPC7Handler5Entry6InvokeERKNS1_7ContextERKNSt7__cxx1112basic_stringIcSt11char_traitsIcESaIcEEESE_RSC_
FN:621,624,_ZNK12WPEFramework4Core7JSONRPC7Handler6ExistsERKNSt7__cxx1112basic_stringIcSt11char_traitsIcESaIcEEE
FN:625,628,_ZNK12WPEFramework4Core7JSONRPC7Handler17HasVersionSupportEh
FN:63,63,_ZN12WPEFramework4Core7JSONRPC7Message4InfoD0Ev
FN:63,63,_ZN12WPEFramework4Core7JSONRPC7Message4InfoD2Ev
FN:65,71,_ZN12WPEFramework4Core7JSONRPC7Message4InfoaSERKS3_
FN:712,723,_ZN12WPEFramework4Core7JSONRPC7Handler8RegisterERKNSt7__cxx1112basic_stringIcSt11char_traitsIcESaIcEEERKSt8functionIFjRKNS1_7ContextESA_SA_RS8_EE
FN:737,746,_ZN12WPEFramework4Core7JSONRPC7Handler10UnregisterERKNSt7__cxx1112basic_stringIcSt11char_traitsIcESaIcEEE
FN:74,79,_ZN12WPEFramework4Core7JSONRPC7Message4Info5ClearEv
FN:747,758,_ZN12WPEFramework4Core7JSONRPC7Handler6InvokeERKNS1_7ContextERKNSt7__cxx1112basic_stringIcSt11char_traitsIcESaIcEEESD_RSB_
FN:80,147,_ZN12WPEFramework4Core7JSONRPC7Message4Info8SetErrorEj
FNDA:0,_ZN12WPEFramework4Core7JSONRPC7MessageC2Ev
FNDA:0,_ZN12WPEFramework4Core7JSONRPC7MessageD0Ev
FNDA:0,_ZN12WPEFramework4Core7JSONRPC7MessageD2Ev
FNDA:0,_ZN12WPEFramework4Core7JSONRPC7Message8CallsignERKNSt7__cxx1112basic_stringIcSt11char_traitsIcESaIcEEE
FNDA:44,_ZN12WPEFramework4Core7JSONRPC7Message6MethodERKNSt7__cxx1112basic_stringIcSt11char_traitsIcESaIcEEE
FNDA:21,_ZN12WPEFramework4Core7JSONRPC7Message10FullMethodERKNSt7__cxx1112basic_stringIcSt11char_traitsIcESaIcEEE
FNDA:49,_ZN12WPEFramework4Core7JSONRPC7Message7VersionERKNSt7__cxx1112basic_stringIcSt11char_traitsIcESaIcEEE
FNDA:0,_ZN12WPEFramework4Core7JSONRPC7Message5ClearEv
FNDA:21,_ZN12WPEFramework4Core7JSONRPC7ContextC2EjjRKNSt7__cxx1112basic_stringIcSt11char_traitsIcESaIcEEE
FNDA:21,_ZN12WPEFramework4Core7JSONRPC7ContextD2Ev
FNDA:4,_ZN12WPEFramework4Core7JSONRPC7Message4InfoC2Ev
FNDA:52,_ZN12WPEFramework4Core7JSONRPC7Handler5Entry9FunctionsC2ERKSt8functionIFjRKNS1_7ContextERKNSt7__cxx1112basic_stringIcSt11char_traitsIcESaIcEEESG_RSE_EE
FNDA:26,_ZN12WPEFramework4Core7JSONRPC7Handler5Entry9Functions6AssignERKSt8functionIFjRKNS1_7ContextERKNSt7__cxx1112basic_stringIcSt11char_traitsIcESaIcEEESG_RSE_EEb
FNDA:0,_ZN12WPEFramework4Core7JSONRPC7Handler5Entry9FunctionsD2Ev
FNDA:52,_ZN12WPEFramework4Core7JSONRPC7Handler5EntryC2ERKSt8functionIFjRKNS1_7ContextERKNSt7__cxx1112basic_stringIcSt11char_traitsIcESaIcEEESF_RSD_EE
FNDA:26,_ZN12WPEFramework4Core7JSONRPC7Handler5EntryaSERKSt8functionIFjRKNS1_7ContextERKNSt7__cxx1112basic_stringIcSt11char_traitsIcESaIcEEESF_RSD_EE
FNDA:0,_ZN12WPEFramework4Core7JSONRPC7Handler5EntryD2Ev
FNDA:21,_ZN12WPEFramework4Core7JSONRPC7Handler5Entry6InvokeERKNS1_7ContextERKNSt7__cxx1112basic_stringIcSt11char_traitsIcESaIcEEESE_RSC_
FNDA:49,_ZNK12WPEFramework4Core7JSONRPC7Handler6ExistsERKNSt7__cxx1112basic_stringIcSt11char_traitsIcESaIcEEE
FNDA:0,_ZNK12WPEFramework4Core7JSONRPC7Handler17HasVersionSupportEh
FNDA:0,_ZN12WPEFramework4Core7JSONRPC7Message4InfoD0Ev
FNDA:4,_ZN12WPEFramework4Core7JSONRPC7Message4InfoD2Ev
FNDA:0,_ZN12WPEFramework4Core7JSONRPC7Message4InfoaSERKS3_
FNDA:52,_ZN12WPEFramework4Core7JSONRPC7Handler8RegisterERKNSt7__cxx1112basic_stringIcSt11char_traitsIcESaIcEEERKSt8functionIFjRKNS1_7ContextESA_SA_RS8_EE
FNDA:26,_ZN12WPEFramework4Core7JSONRPC7Handler10UnregisterERKNSt7__cxx1112basic_stringIcSt11char_traitsIcESaIcEEE
FNDA:0,_ZN12WPEFramework4Core7JSONRPC7Message4Info5ClearEv
FNDA:21,_ZN12WPEFramework4Core7JSONRPC7Handler6InvokeERKNS1_7ContextERKNSt7__cxx1112basic_stringIcSt11char_traitsIcESaIcEEESD_RSB_
FNDA:4,_ZN12WPEFramework4Core7JSONRPC7Message4Info8SetErrorEj
FNF:28
FNH:17
DA:40,4
DA:41,4
DA:42,4
DA:43,4
DA:44,8
DA:46,4
DA:47,4
DA:48,4
DA:49,4
DA:63,4
DA:65,0
DA:67,0
DA:68,0
DA:69,0
DA:70,0
DA:74,0
DA:76,0
DA:77,0
DA:78,0
DA:79,0
DA:80,4
DA:82,4
DA:83,0
DA:84,0
DA:85,0
DA:86,0
DA:87,0
DA:88,0
DA:89,0
DA:90,0
DA:91,0
DA:92,0
DA:93,0
DA:94,0
DA:95,1
DA:96,1
DA:97,1
DA:98,1
DA:99,1
DA:100,1
DA:101,1
DA:102,1
DA:103,0
DA:104,0
DA:105,0
DA:106,0
DA:107,0
DA:108,0
DA:109,0
DA:110,0
DA:111,0
DA:112,0
DA:113,0
DA:114,0
DA:115,0
DA:116,0
DA:117,0
DA:118,0
DA:119,0
DA:120,0
DA:121,0
DA:122,0
DA:123,0
DA:124,0
DA:125,0
DA:126,0
DA:127,2
DA:128,2
DA:136,2
DA:137,2
DA:139,0
DA:142,0
DA:144,2
DA:145,2
DA:147,4
DA:158,0
DA:159,0
DA:160,0
DA:161,0
DA:162,0
DA:163,0
DA:164,0
DA:165,0
DA:166,0
DA:168,0
DA:169,0
DA:170,0
DA:171,0
DA:172,0
DA:173,0
DA:175,0
DA:176,0
DA:194,0
DA:197,0
DA:199,0
DA:200,0
DA:201,0
DA:202,0
DA:203,0
DA:205,0
DA:206,0
DA:207,0
DA:208,0
DA:211,0
DA:213,44
DA:215,44
DA:216,44
DA:218,44
DA:220,21
DA:222,21
DA:223,21
DA:241,49
DA:243,49
DA:244,49
DA:247,49
DA:251,49
DA:254,49
DA:258,49
DA:259,0
DA:260,0
DA:264,49
DA:309,0
DA:311,0
DA:312,0
DA:313,0
DA:314,0
DA:315,0
DA:316,0
DA:317,0
DA:318,0
DA:378,21
DA:379,21
DA:380,21
DA:381,21
DA:382,21
DA:383,21
DA:427,52
DA:428,52
DA:430,52
DA:439,26
DA:440,26
DA:441,0
DA:442,0
DA:444,26
DA:446,26
DA:448,0
DA:450,0
DA:462,52
DA:463,52
DA:464,52
DA:466,52
DA:477,26
DA:478,26
DA:479,26
DA:480,26
DA:482,0
DA:484,0
DA:485,0
DA:487,0
DA:489,0
DA:492,21
DA:494,21
DA:495,21
DA:496,0
DA:498,21
DA:500,21
DA:621,49
DA:623,49
DA:625,0
DA:627,0
DA:712,52
DA:716,52
DA:717,104
DA:718,104
DA:720,52
DA:721,26
DA:723,52
DA:737,26
DA:739,26
DA:741,26
DA:743,26
DA:744,26
DA:746,26
DA:747,21
DA:749,21
DA:751,21
DA:753,21
DA:754,21
DA:755,21
DA:757,21
LF:190
LH:90
end_of_record
TN:
SF:/home/kavia/workspace/code-generation/app-gateway2/dependencies/install/include/WPEFramework/core/MessageStore.h
FN:287,287,_ZN12WPEFramework4Core9Messaging6IStoreD0Ev
FN:287,287,_ZN12WPEFramework4Core9Messaging6IStoreD2Ev
FNDA:0,_ZN12WPEFramework4Core9Messaging6IStoreD0Ev
FNDA:1,_ZN12WPEFramework4Core9Messaging6IStoreD2Ev
FNF:2
FNH:1
DA:287,1
LF:1
LH:1
end_of_record
TN:
SF:/home/kavia/workspace/code-generation/app-gateway2/dependencies/install/include/WPEFramework/core/NodeId.h
FN:222,229,_ZNK12WPEFramework4Core6NodeId10PortNumberEv
FNDA:0,_ZNK12WPEFramework4Core6NodeId10PortNumberEv
FNF:1
FNH:0
DA:222,0
DA:227,0
LF:2
LH:0
end_of_record
TN:
SF:/home/kavia/workspace/code-generation/app-gateway2/dependencies/install/include/WPEFramework/core/Number.h
FN:194,201,_ZN12WPEFramework4Core10NumberTypeItLb0EL10NumberBase0EE7ConvertEPKcjRtS2_
FN:207,214,_ZNK12WPEFramework4Core10NumberTypeIjLb0EL10NumberBase0EE4TextB5cxx11Ev
FN:249,252,_ZN12WPEFramework4Core10NumberTypeItLb0EL10NumberBase0EE5ValueEv
FN:367,370,_ZNK12WPEFramework4Core10NumberTypeIjLb0EL10NumberBase0EE8NegativeEv
FN:371,374,_ZNK12WPEFramework4Core10NumberTypeIjLb0EL10NumberBase0EE3AbsEv
FN:377,412,_ZNK12WPEFramework4Core10NumberTypeIjLb0EL10NumberBase0EE10FillBufferEPctS2_
FN:48,52,_ZN12WPEFramework4Core10NumberTypeIjLb0EL10NumberBase0EEC2Ej
FN:60,67,_ZN12WPEFramework4Core10NumberTypeItLb0EL10NumberBase0EEC2EPKcjS2_
FN:73,75,_ZN12WPEFramework4Core10NumberTypeIjLb0EL10NumberBase0EED2Ev
FN:73,75,_ZN12WPEFramework4Core10NumberTypeItLb0EL10NumberBase0EED2Ev
FN:739,808,_ZN12WPEFramework4Core10NumberTypeItLb0EL10NumberBase0EE7ConvertItEEjPKcjRT_S2_RK17TemplateIntToTypeILj0EE
FN:813,816,_ZNK12WPEFramework4Core10NumberTypeIjLb0EL10NumberBase0EE8TypedAbsERK17TemplateIntToTypeILj0EE
FN:821,824,_ZNK12WPEFramework4Core10NumberTypeIjLb0EL10NumberBase0EE13TypedNegativeERK17TemplateIntToTypeILj0EE
FNDA:0,_ZN12WPEFramework4Core10NumberTypeItLb0EL10NumberBase0EE7ConvertEPKcjRtS2_
FNDA:4,_ZNK12WPEFramework4Core10NumberTypeIjLb0EL10NumberBase0EE4TextB5cxx11Ev
FNDA:0,_ZN12WPEFramework4Core10NumberTypeItLb0EL10NumberBase0EE5ValueEv
FNDA:8,_ZNK12WPEFramework4Core10NumberTypeIjLb0EL10NumberBase0EE8NegativeEv
FNDA:4,_ZNK12WPEFramework4Core10NumberTypeIjLb0EL10NumberBase0EE3AbsEv
FNDA:4,_ZNK12WPEFramework4Core10NumberTypeIjLb0EL10NumberBase0EE10FillBufferEPctS2_
FNDA:8,_ZN12WPEFramework4Core10NumberTypeIjLb0EL10NumberBase0EEC2Ej
FNDA:0,_ZN12WPEFramework4Core10NumberTypeItLb0EL10NumberBase0EEC2EPKcjS2_
FNDA:8,_ZN12WPEFramework4Core10NumberTypeIjLb0EL10NumberBase0EED2Ev
FNDA:0,_ZN12WPEFramework4Core10NumberTypeItLb0EL10NumberBase0EED2Ev
FNDA:0,_ZN12WPEFramework4Core10NumberTypeItLb0EL10NumberBase0EE7ConvertItEEjPKcjRT_S2_RK17TemplateIntToTypeILj0EE
FNDA:4,_ZNK12WPEFramework4Core10NumberTypeIjLb0EL10NumberBase0EE8TypedAbsERK17TemplateIntToTypeILj0EE
FNDA:8,_ZNK12WPEFramework4Core10NumberTypeIjLb0EL10NumberBase0EE13TypedNegativeERK17TemplateIntToTypeILj0EE
FNF:13
FNH:8
DA:48,8
DA:50,8
DA:52,8
DA:60,0
DA:64,0
DA:66,0
DA:67,0
DA:73,8
DA:75,8
DA:194,0
DA:200,0
DA:207,4
DA:211,4
DA:213,8
DA:249,0
DA:251,0
DA:367,8
DA:369,8
DA:371,4
DA:373,4
DA:377,4
DA:379,4
DA:380,4
DA:381,4
DA:382,4
DA:385,4
DA:389,8
DA:390,8
DA:391,8
DA:393,0
DA:395,8
DA:396,8
DA:398,8
DA:400,4
DA:401,0
DA:402,0
DA:404,0
DA:407,4
DA:408,0
DA:411,4
DA:739,0
DA:747,0
DA:748,0
DA:749,0
DA:750,0
DA:751,0
DA:754,0
DA:757,0
DA:758,0
DA:760,0
DA:761,0
DA:763,0
DA:764,0
DA:767,0
DA:768,0
DA:771,0
DA:772,0
DA:774,0
DA:775,0
DA:777,0
DA:779,0
DA:780,0
DA:782,0
DA:783,0
DA:785,0
DA:787,0
DA:788,0
DA:790,0
DA:791,0
DA:793,0
DA:795,0
DA:796,0
DA:801,0
DA:802,0
DA:803,0
DA:807,0
DA:813,4
DA:815,4
DA:821,8
DA:823,8
LF:80
LH:31
end_of_record
TN:
SF:/home/kavia/workspace/code-generation/app-gateway2/dependencies/install/include/WPEFramework/core/Optional.h
FN:109,112,_ZN12WPEFramework4Core12OptionalTypeINS0_19TokenizedStringListILc44ELb1EEEE5ValueEv
FN:109,112,_ZN12WPEFramework4Core12OptionalTypeINS0_4JSON5ErrorEE5ValueEv
FN:109,112,_ZN12WPEFramework4Core12OptionalTypeINS_3Web7Request10connectionEE5ValueEv
FN:109,112,_ZN12WPEFramework4Core12OptionalTypeINS_3Web7Request7upgradeEE5ValueEv
FN:109,112,_ZN12WPEFramework4Core12OptionalTypeINSt7__cxx1112basic_stringIcSt11char_traitsIcESaIcEEEE5ValueEv
FN:30,34,_ZN12WPEFramework4Core12OptionalTypeINS0_19TokenizedStringListILc44ELb1EEEEC2Ev
FN:30,34,_ZN12WPEFramework4Core12OptionalTypeINS0_3URLEEC2Ev
FN:30,34,_ZN12WPEFramework4Core12OptionalTypeINS0_4JSON5ErrorEEC2Ev
FN:30,34,_ZN12WPEFramework4Core12OptionalTypeINS0_4TimeEEC2Ev
FN:30,34,_ZN12WPEFramework4Core12OptionalTypeINS_3Web13AuthorizationEEC2Ev
FN:30,34,_ZN12WPEFramework4Core12OptionalTypeINS_3Web13EncodingTypesEEC2Ev
FN:30,34,_ZN12WPEFramework4Core12OptionalTypeINS_3Web13TransferTypesEEC2Ev
FN:30,34,_ZN12WPEFramework4Core12OptionalTypeINS_3Web14CharacterTypesEEC2Ev
FN:30,34,_ZN12WPEFramework4Core12OptionalTypeINS_3Web7Request10connectionEEC2Ev
FN:30,34,_ZN12WPEFramework4Core12OptionalTypeINS_3Web7Request7upgradeEEC2Ev
FN:30,34,_ZN12WPEFramework4Core12OptionalTypeINS_3Web8Response10connectionEEC2Ev
FN:30,34,_ZN12WPEFramework4Core12OptionalTypeINS_3Web8Response7upgradeEEC2Ev
FN:30,34,_ZN12WPEFramework4Core12OptionalTypeINS_3Web9MIMETypesEEC2Ev
FN:30,34,_ZN12WPEFramework4Core12OptionalTypeINS_3Web9SignatureEEC2Ev
FN:30,34,_ZN12WPEFramework4Core12OptionalTypeINSt7__cxx1112basic_stringIcSt11char_traitsIcESaIcEEEEC2Ev
FN:30,34,_ZN12WPEFramework4Core12OptionalTypeIjEC2Ev
FN:30,34,_ZN12WPEFramework4Core12OptionalTypeItEC2Ev
FN:48,50,_ZN12WPEFramework4Core12OptionalTypeINS0_19TokenizedStringListILc44ELb1EEEED2Ev
FN:48,50,_ZN12WPEFramework4Core12OptionalTypeINS0_3URLEED2Ev
FN:48,50,_ZN12WPEFramework4Core12OptionalTypeINS0_4JSON5ErrorEED2Ev
FN:48,50,_ZN12WPEFramework4Core12OptionalTypeINS0_4TimeEED2Ev
FN:48,50,_ZN12WPEFramework4Core12OptionalTypeINS_3Web13AuthorizationEED2Ev
FN:48,50,_ZN12WPEFramework4Core12OptionalTypeINS_3Web13EncodingTypesEED2Ev
FN:48,50,_ZN12WPEFramework4Core12OptionalTypeINS_3Web13TransferTypesEED2Ev
FN:48,50,_ZN12WPEFramework4Core12OptionalTypeINS_3Web14CharacterTypesEED2Ev
FN:48,50,_ZN12WPEFramework4Core12OptionalTypeINS_3Web7Request10connectionEED2Ev
FN:48,50,_ZN12WPEFramework4Core12OptionalTypeINS_3Web7Request7upgradeEED2Ev
FN:48,50,_ZN12WPEFramework4Core12OptionalTypeINS_3Web8Response10connectionEED2Ev
FN:48,50,_ZN12WPEFramework4Core12OptionalTypeINS_3Web8Response7upgradeEED2Ev
FN:48,50,_ZN12WPEFramework4Core12OptionalTypeINS_3Web9MIMETypesEED2Ev
FN:48,50,_ZN12WPEFramework4Core12OptionalTypeINS_3Web9SignatureEED2Ev
FN:48,50,_ZN12WPEFramework4Core12OptionalTypeINSt7__cxx1112basic_stringIcSt11char_traitsIcESaIcEEEED2Ev
FN:48,50,_ZN12WPEFramework4Core12OptionalTypeIjED2Ev
FN:48,50,_ZN12WPEFramework4Core12OptionalTypeItED2Ev
FN:52,58,_ZN12WPEFramework4Core12OptionalTypeINSt7__cxx1112basic_stringIcSt11char_traitsIcESaIcEEEEaSERKS8_
FN:52,58,_ZN12WPEFramework4Core12OptionalTypeItEaSERKS2_
FN:60,66,_ZN12WPEFramework4Core12OptionalTypeINS0_4JSON5ErrorEEaSERKS3_
FN:60,66,_ZN12WPEFramework4Core12OptionalTypeINS_3Web8Response10connectionEEaSERKS4_
FN:60,66,_ZN12WPEFramework4Core12OptionalTypeINS_3Web8Response7upgradeEEaSERKS4_
FN:60,66,_ZN12WPEFramework4Core12OptionalTypeINSt7__cxx1112basic_stringIcSt11char_traitsIcESaIcEEEEaSERKS7_
FN:89,92,_ZNK12WPEFramework4Core12OptionalTypeINS0_4JSON5ErrorEE5IsSetEv
FN:89,92,_ZNK12WPEFramework4Core12OptionalTypeINS_3Web7Request10connectionEE5IsSetEv
FN:89,92,_ZNK12WPEFramework4Core12OptionalTypeINS_3Web7Request7upgradeEE5IsSetEv
FN:89,92,_ZNK12WPEFramework4Core12OptionalTypeINSt7__cxx1112basic_stringIcSt11char_traitsIcESaIcEEEE5IsSetEv
FN:93,97,_ZN12WPEFramework4Core12OptionalTypeINS0_19TokenizedStringListILc44ELb1EEEE5ClearEv
FN:93,97,_ZN12WPEFramework4Core12OptionalTypeINS0_3URLEE5ClearEv
FN:93,97,_ZN12WPEFramework4Core12OptionalTypeINS0_4TimeEE5ClearEv
FN:93,97,_ZN12WPEFramework4Core12OptionalTypeINS_3Web13AuthorizationEE5ClearEv
FN:93,97,_ZN12WPEFramework4Core12OptionalTypeINS_3Web13EncodingTypesEE5ClearEv
FN:93,97,_ZN12WPEFramework4Core12OptionalTypeINS_3Web13TransferTypesEE5ClearEv
FN:93,97,_ZN12WPEFramework4Core12OptionalTypeINS_3Web14CharacterTypesEE5ClearEv
FN:93,97,_ZN12WPEFramework4Core12OptionalTypeINS_3Web7Request10connectionEE5ClearEv
FN:93,97,_ZN12WPEFramework4Core12OptionalTypeINS_3Web7Request7upgradeEE5ClearEv
FN:93,97,_ZN12WPEFramework4Core12OptionalTypeINS_3Web8Response10connectionEE5ClearEv
FN:93,97,_ZN12WPEFramework4Core12OptionalTypeINS_3Web8Response7upgradeEE5ClearEv
FN:93,97,_ZN12WPEFramework4Core12OptionalTypeINS_3Web9MIMETypesEE5ClearEv
FN:93,97,_ZN12WPEFramework4Core12OptionalTypeINS_3Web9SignatureEE5ClearEv
FN:93,97,_ZN12WPEFramework4Core12OptionalTypeINSt7__cxx1112basic_stringIcSt11char_traitsIcESaIcEEEE5ClearEv
FN:93,97,_ZN12WPEFramework4Core12OptionalTypeIjE5ClearEv
FN:93,97,_ZN12WPEFramework4Core12OptionalTypeItE5ClearEv
FNDA:0,_ZN12WPEFramework4Core12OptionalTypeINS0_19TokenizedStringListILc44ELb1EEEE5ValueEv
FNDA:6,_ZN12WPEFramework4Core12OptionalTypeINS0_4JSON5ErrorEE5ValueEv
FNDA:0,_ZN12WPEFramework4Core12OptionalTypeINS_3Web7Request10connectionEE5ValueEv
FNDA:0,_ZN12WPEFramework4Core12OptionalTypeINS_3Web7Request7upgradeEE5ValueEv
FNDA:0,_ZN12WPEFramework4Core12OptionalTypeINSt7__cxx1112basic_stringIcSt11char_traitsIcESaIcEEEE5ValueEv
FNDA:0,_ZN12WPEFramework4Core12OptionalTypeINS0_19TokenizedStringListILc44ELb1EEEEC2Ev
FNDA:0,_ZN12WPEFramework4Core12OptionalTypeINS0_3URLEEC2Ev
FNDA:1073,_ZN12WPEFramework4Core12OptionalTypeINS0_4JSON5ErrorEEC2Ev
FNDA:0,_ZN12WPEFramework4Core12OptionalTypeINS0_4TimeEEC2Ev
FNDA:0,_ZN12WPEFramework4Core12OptionalTypeINS_3Web13AuthorizationEEC2Ev
FNDA:0,_ZN12WPEFramework4Core12OptionalTypeINS_3Web13EncodingTypesEEC2Ev
FNDA:0,_ZN12WPEFramework4Core12OptionalTypeINS_3Web13TransferTypesEEC2Ev
FNDA:0,_ZN12WPEFramework4Core12OptionalTypeINS_3Web14CharacterTypesEEC2Ev
FNDA:0,_ZN12WPEFramework4Core12OptionalTypeINS_3Web7Request10connectionEEC2Ev
FNDA:0,_ZN12WPEFramework4Core12OptionalTypeINS_3Web7Request7upgradeEEC2Ev
FNDA:0,_ZN12WPEFramework4Core12OptionalTypeINS_3Web8Response10connectionEEC2Ev
FNDA:0,_ZN12WPEFramework4Core12OptionalTypeINS_3Web8Response7upgradeEEC2Ev
FNDA:0,_ZN12WPEFramework4Core12OptionalTypeINS_3Web9MIMETypesEEC2Ev
FNDA:0,_ZN12WPEFramework4Core12OptionalTypeINS_3Web9SignatureEEC2Ev
FNDA:4,_ZN12WPEFramework4Core12OptionalTypeINSt7__cxx1112basic_stringIcSt11char_traitsIcESaIcEEEEC2Ev
FNDA:0,_ZN12WPEFramework4Core12OptionalTypeIjEC2Ev
FNDA:0,_ZN12WPEFramework4Core12OptionalTypeItEC2Ev
FNDA:0,_ZN12WPEFramework4Core12OptionalTypeINS0_19TokenizedStringListILc44ELb1EEEED2Ev
FNDA:0,_ZN12WPEFramework4Core12OptionalTypeINS0_3URLEED2Ev
FNDA:1073,_ZN12WPEFramework4Core12OptionalTypeINS0_4JSON5ErrorEED2Ev
FNDA:0,_ZN12WPEFramework4Core12OptionalTypeINS0_4TimeEED2Ev
FNDA:0,_ZN12WPEFramework4Core12OptionalTypeINS_3Web13AuthorizationEED2Ev
FNDA:0,_ZN12WPEFramework4Core12OptionalTypeINS_3Web13EncodingTypesEED2Ev
FNDA:0,_ZN12WPEFramework4Core12OptionalTypeINS_3Web13TransferTypesEED2Ev
FNDA:0,_ZN12WPEFramework4Core12OptionalTypeINS_3Web14CharacterTypesEED2Ev
FNDA:0,_ZN12WPEFramework4Core12OptionalTypeINS_3Web7Request10connectionEED2Ev
FNDA:0,_ZN12WPEFramework4Core12OptionalTypeINS_3Web7Request7upgradeEED2Ev
FNDA:0,_ZN12WPEFramework4Core12OptionalTypeINS_3Web8Response10connectionEED2Ev
FNDA:0,_ZN12WPEFramework4Core12OptionalTypeINS_3Web8Response7upgradeEED2Ev
FNDA:0,_ZN12WPEFramework4Core12OptionalTypeINS_3Web9MIMETypesEED2Ev
FNDA:0,_ZN12WPEFramework4Core12OptionalTypeINS_3Web9SignatureEED2Ev
FNDA:4,_ZN12WPEFramework4Core12OptionalTypeINSt7__cxx1112basic_stringIcSt11char_traitsIcESaIcEEEED2Ev
FNDA:0,_ZN12WPEFramework4Core12OptionalTypeIjED2Ev
FNDA:0,_ZN12WPEFramework4Core12OptionalTypeItED2Ev
FNDA:0,_ZN12WPEFramework4Core12OptionalTypeINSt7__cxx1112basic_stringIcSt11char_traitsIcESaIcEEEEaSERKS8_
FNDA:0,_ZN12WPEFramework4Core12OptionalTypeItEaSERKS2_
FNDA:2,_ZN12WPEFramework4Core12OptionalTypeINS0_4JSON5ErrorEEaSERKS3_
FNDA:0,_ZN12WPEFramework4Core12OptionalTypeINS_3Web8Response10connectionEEaSERKS4_
FNDA:0,_ZN12WPEFramework4Core12OptionalTypeINS_3Web8Response7upgradeEEaSERKS4_
FNDA:0,_ZN12WPEFramework4Core12OptionalTypeINSt7__cxx1112basic_stringIcSt11char_traitsIcESaIcEEEEaSERKS7_
FNDA:3895,_ZNK12WPEFramework4Core12OptionalTypeINS0_4JSON5ErrorEE5IsSetEv
FNDA:0,_ZNK12WPEFramework4Core12OptionalTypeINS_3Web7Request10connectionEE5IsSetEv
FNDA:0,_ZNK12WPEFramework4Core12OptionalTypeINS_3Web7Request7upgradeEE5IsSetEv
FNDA:0,_ZNK12WPEFramework4Core12OptionalTypeINSt7__cxx1112basic_stringIcSt11char_traitsIcESaIcEEEE5IsSetEv
FNDA:0,_ZN12WPEFramework4Core12OptionalTypeINS0_19TokenizedStringListILc44ELb1EEEE5ClearEv
FNDA:0,_ZN12WPEFramework4Core12OptionalTypeINS0_3URLEE5ClearEv
FNDA:0,_ZN12WPEFramework4Core12OptionalTypeINS0_4TimeEE5ClearEv
FNDA:0,_ZN12WPEFramework4Core12OptionalTypeINS_3Web13AuthorizationEE5ClearEv
FNDA:0,_ZN12WPEFramework4Core12OptionalTypeINS_3Web13EncodingTypesEE5ClearEv
FNDA:0,_ZN12WPEFramework4Core12OptionalTypeINS_3Web13TransferTypesEE5ClearEv
FNDA:0,_ZN12WPEFramework4Core12OptionalTypeINS_3Web14CharacterTypesEE5ClearEv
FNDA:0,_ZN12WPEFramework4Core12OptionalTypeINS_3Web7Request10connectionEE5ClearEv
FNDA:0,_ZN12WPEFramework4Core12OptionalTypeINS_3Web7Request7upgradeEE5ClearEv
FNDA:0,_ZN12WPEFramework4Core12OptionalTypeINS_3Web8Response10connectionEE5ClearEv
FNDA:0,_ZN12WPEFramework4Core12OptionalTypeINS_3Web8Response7upgradeEE5ClearEv
FNDA:0,_ZN12WPEFramework4Core12OptionalTypeINS_3Web9MIMETypesEE5ClearEv
FNDA:0,_ZN12WPEFramework4Core12OptionalTypeINS_3Web9SignatureEE5ClearEv
FNDA:0,_ZN12WPEFramework4Core12OptionalTypeINSt7__cxx1112basic_stringIcSt11char_traitsIcESaIcEEEE5ClearEv
FNDA:0,_ZN12WPEFramework4Core12OptionalTypeIjE5ClearEv
FNDA:0,_ZN12WPEFramework4Core12OptionalTypeItE5ClearEv
FNF:65
FNH:7
DA:30,1077
DA:31,1077
DA:32,1077
DA:34,1077
DA:48,1077
DA:50,1077
DA:52,0
DA:54,0
DA:55,0
DA:57,0
DA:60,2
DA:62,2
DA:63,2
DA:65,2
DA:89,3895
DA:91,3895
DA:93,0
DA:95,0
DA:96,0
DA:97,0
DA:109,6
DA:111,6
LF:22
LH:14
end_of_record
TN:
SF:/home/kavia/workspace/code-generation/app-gateway2/dependencies/install/include/WPEFramework/core/Parser.h
FN:116,262,_ZN12WPEFramework4Core10ParserTypeINS0_32TerminatorCarriageReturnLineFeedENS_3Web7Request12DeserializerEE11DeserializeEPKht
FN:279,282,_ZN12WPEFramework4Core10ParserTypeINS0_32TerminatorCarriageReturnLineFeedENS_3Web7Request12DeserializerEE10__CompleteIS5_EENS0_10TypeTraits9enable_ifIXntsrNS6_11hasCompleteIT_bJRKNSt7__cxx1112basic_stringIcSt11char_traitsIcESaIcEEEKcEEE5valueEbE4typeESJ_c
FN:60,68,_ZN12WPEFramework4Core10ParserTypeINS0_32TerminatorCarriageReturnLineFeedENS_3Web7Request12DeserializerEEC2ERS5_
FN:69,69,_ZN12WPEFramework4Core10ParserTypeINS0_32TerminatorCarriageReturnLineFeedENS_3Web7Request12DeserializerEED2Ev
FNDA:0,_ZN12WPEFramework4Core10ParserTypeINS0_32TerminatorCarriageReturnLineFeedENS_3Web7Request12DeserializerEE11DeserializeEPKht
FNDA:0,_ZN12WPEFramework4Core10ParserTypeINS0_32TerminatorCarriageReturnLineFeedENS_3Web7Request12DeserializerEE10__CompleteIS5_EENS0_10TypeTraits9enable_ifIXntsrNS6_11hasCompleteIT_bJRKNSt7__cxx1112basic_stringIcSt11char_traitsIcESaIcEEEKcEEE5valueEbE4typeESJ_c
FNDA:0,_ZN12WPEFramework4Core10ParserTypeINS0_32TerminatorCarriageReturnLineFeedENS_3Web7Request12DeserializerEEC2ERS5_
FNDA:0,_ZN12WPEFramework4Core10ParserTypeINS0_32TerminatorCarriageReturnLineFeedENS_3Web7Request12DeserializerEED2Ev
FNF:4
FNH:0
DA:60,0
DA:61,0
DA:62,0
DA:63,0
DA:64,0
DA:65,0
DA:66,0
DA:68,0
DA:69,0
DA:116,0
DA:118,0
DA:120,0
DA:123,0
DA:124,0
DA:126,0
DA:129,0
DA:130,0
DA:132,0
DA:133,0
DA:134,0
DA:138,0
DA:139,0
DA:140,0
DA:141,0
DA:145,0
DA:146,0
DA:150,0
DA:151,0
DA:153,0
DA:154,0
DA:155,0
DA:156,0
DA:158,0
DA:162,0
DA:163,0
DA:164,0
DA:167,0
DA:169,0
DA:172,0
DA:173,0
DA:175,0
DA:177,0
DA:178,0
DA:180,0
DA:181,0
DA:182,0
DA:184,0
DA:185,0
DA:187,0
DA:188,0
DA:189,0
DA:190,0
DA:193,0
DA:197,0
DA:198,0
DA:199,0
DA:201,0
DA:202,0
DA:205,0
DA:209,0
DA:210,0
DA:213,0
DA:215,0
DA:216,0
DA:217,0
DA:218,0
DA:219,0
DA:220,0
DA:221,0
DA:223,0
DA:224,0
DA:225,0
DA:226,0
DA:227,0
DA:229,0
DA:230,0
DA:231,0
DA:232,0
DA:235,0
DA:236,0
DA:237,0
DA:240,0
DA:244,0
DA:246,0
DA:250,0
DA:251,0
DA:257,0
DA:261,0
DA:279,0
DA:281,0
LF:90
LH:0
end_of_record
TN:
SF:/home/kavia/workspace/code-generation/app-gateway2/dependencies/install/include/WPEFramework/core/Portability.h
FN:755,755,_ZN12WPEFramework4Core4VoidC2IJEEEDpOT_
FN:764,764,_ZN12WPEFramework4Core17IReferenceCountedD0Ev
FN:764,764,_ZN12WPEFramework4Core17IReferenceCountedD2Ev
FN:779,779,_ZN12WPEFramework4Core8IUnknownD0Ev
FN:779,779,_ZN12WPEFramework4Core8IUnknownD2Ev
FN:784,793,_ZN12WPEFramework4Core8IUnknown14QueryInterfaceINS_10PluginHost11IDispatcherEEEPT_v
FN:784,793,_ZN12WPEFramework4Core8IUnknown14QueryInterfaceINS_8Exchange14IConfigurationEEEPT_v
FN:784,793,_ZN12WPEFramework4Core8IUnknown14QueryInterfaceINS_8Exchange19IAppGatewayResolverEEEPT_v
FN:784,793,_ZN12WPEFramework4Core8IUnknown14QueryInterfaceINS_8Exchange20IAppGatewayResponderEEEPT_v
FN:896,899,_ZN12WPEFramework4Core8_Err2StrILj4294967295EEEPKcv
FN:896,899,_ZN12WPEFramework4Core8_Err2StrILj50EEEPKcv
FN:896,899,_ZN12WPEFramework4Core8_Err2StrILj52EEEPKcv
FN:896,899,_ZN12WPEFramework4Core8_Err2StrILj54EEEPKcv
FN:896,899,_ZN12WPEFramework4Core8_Err2StrILj55EEEPKcv
FN:896,899,_ZN12WPEFramework4Core8_Err2StrILj56EEEPKcv
FN:904,904,_ZN12WPEFramework4Core8_Err2StrILj0EEEPKcv
FN:904,904,_ZN12WPEFramework4Core8_Err2StrILj10EEEPKcv
FN:904,904,_ZN12WPEFramework4Core8_Err2StrILj11EEEPKcv
FN:904,904,_ZN12WPEFramework4Core8_Err2StrILj12EEEPKcv
FN:904,904,_ZN12WPEFramework4Core8_Err2StrILj13EEEPKcv
FN:904,904,_ZN12WPEFramework4Core8_Err2StrILj14EEEPKcv
FN:904,904,_ZN12WPEFramework4Core8_Err2StrILj15EEEPKcv
FN:904,904,_ZN12WPEFramework4Core8_Err2StrILj16EEEPKcv
FN:904,904,_ZN12WPEFramework4Core8_Err2StrILj17EEEPKcv
FN:904,904,_ZN12WPEFramework4Core8_Err2StrILj18EEEPKcv
FN:904,904,_ZN12WPEFramework4Core8_Err2StrILj19EEEPKcv
FN:904,904,_ZN12WPEFramework4Core8_Err2StrILj1EEEPKcv
FN:904,904,_ZN12WPEFramework4Core8_Err2StrILj20EEEPKcv
FN:904,904,_ZN12WPEFramework4Core8_Err2StrILj21EEEPKcv
FN:904,904,_ZN12WPEFramework4Core8_Err2StrILj22EEEPKcv
FN:904,904,_ZN12WPEFramework4Core8_Err2StrILj23EEEPKcv
FN:904,904,_ZN12WPEFramework4Core8_Err2StrILj24EEEPKcv
FN:904,904,_ZN12WPEFramework4Core8_Err2StrILj25EEEPKcv
FN:904,904,_ZN12WPEFramework4Core8_Err2StrILj26EEEPKcv
FN:904,904,_ZN12WPEFramework4Core8_Err2StrILj27EEEPKcv
FN:904,904,_ZN12WPEFramework4Core8_Err2StrILj28EEEPKcv
FN:904,904,_ZN12WPEFramework4Core8_Err2StrILj29EEEPKcv
FN:904,904,_ZN12WPEFramework4Core8_Err2StrILj2EEEPKcv
FN:904,904,_ZN12WPEFramework4Core8_Err2StrILj30EEEPKcv
FN:904,904,_ZN12WPEFramework4Core8_Err2StrILj31EEEPKcv
FN:904,904,_ZN12WPEFramework4Core8_Err2StrILj32EEEPKcv
FN:904,904,_ZN12WPEFramework4Core8_Err2StrILj33EEEPKcv
FN:904,904,_ZN12WPEFramework4Core8_Err2StrILj34EEEPKcv
FN:904,904,_ZN12WPEFramework4Core8_Err2StrILj35EEEPKcv
FN:904,904,_ZN12WPEFramework4Core8_Err2StrILj36EEEPKcv
FN:904,904,_ZN12WPEFramework4Core8_Err2StrILj37EEEPKcv
FN:904,904,_ZN12WPEFramework4Core8_Err2StrILj38EEEPKcv
FN:904,904,_ZN12WPEFramework4Core8_Err2StrILj39EEEPKcv
FN:904,904,_ZN12WPEFramework4Core8_Err2StrILj3EEEPKcv
FN:904,904,_ZN12WPEFramework4Core8_Err2StrILj40EEEPKcv
FN:904,904,_ZN12WPEFramework4Core8_Err2StrILj41EEEPKcv
FN:904,904,_ZN12WPEFramework4Core8_Err2StrILj42EEEPKcv
FN:904,904,_ZN12WPEFramework4Core8_Err2StrILj43EEEPKcv
FN:904,904,_ZN12WPEFramework4Core8_Err2StrILj44EEEPKcv
FN:904,904,_ZN12WPEFramework4Core8_Err2StrILj45EEEPKcv
FN:904,904,_ZN12WPEFramework4Core8_Err2StrILj46EEEPKcv
FN:904,904,_ZN12WPEFramework4Core8_Err2StrILj47EEEPKcv
FN:904,904,_ZN12WPEFramework4Core8_Err2StrILj48EEEPKcv
FN:904,904,_ZN12WPEFramework4Core8_Err2StrILj49EEEPKcv
FN:904,904,_ZN12WPEFramework4Core8_Err2StrILj4EEEPKcv
FN:904,904,_ZN12WPEFramework4Core8_Err2StrILj51EEEPKcv
FN:904,904,_ZN12WPEFramework4Core8_Err2StrILj53EEEPKcv
FN:904,904,_ZN12WPEFramework4Core8_Err2StrILj57EEEPKcv
FN:904,904,_ZN12WPEFramework4Core8_Err2StrILj58EEEPKcv
FN:904,904,_ZN12WPEFramework4Core8_Err2StrILj5EEEPKcv
FN:904,904,_ZN12WPEFramework4Core8_Err2StrILj6EEEPKcv
FN:904,904,_ZN12WPEFramework4Core8_Err2StrILj7EEEPKcv
FN:904,904,_ZN12WPEFramework4Core8_Err2StrILj8EEEPKcv
FN:904,904,_ZN12WPEFramework4Core8_Err2StrILj9EEEPKcv
FN:907,910,_ZN12WPEFramework4Core20_bogus_ErrorToStringILj10EEEPKcj
FN:907,910,_ZN12WPEFramework4Core20_bogus_ErrorToStringILj11EEEPKcj
FN:907,910,_ZN12WPEFramework4Core20_bogus_ErrorToStringILj12EEEPKcj
FN:907,910,_ZN12WPEFramework4Core20_bogus_ErrorToStringILj13EEEPKcj
FN:907,910,_ZN12WPEFramework4Core20_bogus_ErrorToStringILj14EEEPKcj
FN:907,910,_ZN12WPEFramework4Core20_bogus_ErrorToStringILj15EEEPKcj
FN:907,910,_ZN12WPEFramework4Core20_bogus_ErrorToStringILj16EEEPKcj
FN:907,910,_ZN12WPEFramework4Core20_bogus_ErrorToStringILj17EEEPKcj
FN:907,910,_ZN12WPEFramework4Core20_bogus_ErrorToStringILj18EEEPKcj
FN:907,910,_ZN12WPEFramework4Core20_bogus_ErrorToStringILj19EEEPKcj
FN:907,910,_ZN12WPEFramework4Core20_bogus_ErrorToStringILj1EEEPKcj
FN:907,910,_ZN12WPEFramework4Core20_bogus_ErrorToStringILj20EEEPKcj
FN:907,910,_ZN12WPEFramework4Core20_bogus_ErrorToStringILj21EEEPKcj
FN:907,910,_ZN12WPEFramework4Core20_bogus_ErrorToStringILj22EEEPKcj
FN:907,910,_ZN12WPEFramework4Core20_bogus_ErrorToStringILj23EEEPKcj
FN:907,910,_ZN12WPEFramework4Core20_bogus_ErrorToStringILj24EEEPKcj
FN:907,910,_ZN12WPEFramework4Core20_bogus_ErrorToStringILj25EEEPKcj
FN:907,910,_ZN12WPEFramework4Core20_bogus_ErrorToStringILj26EEEPKcj
FN:907,910,_ZN12WPEFramework4Core20_bogus_ErrorToStringILj27EEEPKcj
FN:907,910,_ZN12WPEFramework4Core20_bogus_ErrorToStringILj28EEEPKcj
FN:907,910,_ZN12WPEFramework4Core20_bogus_ErrorToStringILj29EEEPKcj
FN:907,910,_ZN12WPEFramework4Core20_bogus_ErrorToStringILj2EEEPKcj
FN:907,910,_ZN12WPEFramework4Core20_bogus_ErrorToStringILj30EEEPKcj
FN:907,910,_ZN12WPEFramework4Core20_bogus_ErrorToStringILj31EEEPKcj
FN:907,910,_ZN12WPEFramework4Core20_bogus_ErrorToStringILj32EEEPKcj
FN:907,910,_ZN12WPEFramework4Core20_bogus_ErrorToStringILj33EEEPKcj
FN:907,910,_ZN12WPEFramework4Core20_bogus_ErrorToStringILj34EEEPKcj
FN:907,910,_ZN12WPEFramework4Core20_bogus_ErrorToStringILj35EEEPKcj
FN:907,910,_ZN12WPEFramework4Core20_bogus_ErrorToStringILj36EEEPKcj
FN:907,910,_ZN12WPEFramework4Core20_bogus_ErrorToStringILj37EEEPKcj
FN:907,910,_ZN12WPEFramework4Core20_bogus_ErrorToStringILj38EEEPKcj
FN:907,910,_ZN12WPEFramework4Core20_bogus_ErrorToStringILj39EEEPKcj
FN:907,910,_ZN12WPEFramework4Core20_bogus_ErrorToStringILj3EEEPKcj
FN:907,910,_ZN12WPEFramework4Core20_bogus_ErrorToStringILj40EEEPKcj
FN:907,910,_ZN12WPEFramework4Core20_bogus_ErrorToStringILj41EEEPKcj
FN:907,910,_ZN12WPEFramework4Core20_bogus_ErrorToStringILj42EEEPKcj
FN:907,910,_ZN12WPEFramework4Core20_bogus_ErrorToStringILj43EEEPKcj
FN:907,910,_ZN12WPEFramework4Core20_bogus_ErrorToStringILj44EEEPKcj
FN:907,910,_ZN12WPEFramework4Core20_bogus_ErrorToStringILj45EEEPKcj
FN:907,910,_ZN12WPEFramework4Core20_bogus_ErrorToStringILj46EEEPKcj
FN:907,910,_ZN12WPEFramework4Core20_bogus_ErrorToStringILj47EEEPKcj
FN:907,910,_ZN12WPEFramework4Core20_bogus_ErrorToStringILj48EEEPKcj
FN:907,910,_ZN12WPEFramework4Core20_bogus_ErrorToStringILj49EEEPKcj
FN:907,910,_ZN12WPEFramework4Core20_bogus_ErrorToStringILj4EEEPKcj
FN:907,910,_ZN12WPEFramework4Core20_bogus_ErrorToStringILj50EEEPKcj
FN:907,910,_ZN12WPEFramework4Core20_bogus_ErrorToStringILj51EEEPKcj
FN:907,910,_ZN12WPEFramework4Core20_bogus_ErrorToStringILj52EEEPKcj
FN:907,910,_ZN12WPEFramework4Core20_bogus_ErrorToStringILj53EEEPKcj
FN:907,910,_ZN12WPEFramework4Core20_bogus_ErrorToStringILj54EEEPKcj
FN:907,910,_ZN12WPEFramework4Core20_bogus_ErrorToStringILj55EEEPKcj
FN:907,910,_ZN12WPEFramework4Core20_bogus_ErrorToStringILj56EEEPKcj
FN:907,910,_ZN12WPEFramework4Core20_bogus_ErrorToStringILj57EEEPKcj
FN:907,910,_ZN12WPEFramework4Core20_bogus_ErrorToStringILj58EEEPKcj
FN:907,910,_ZN12WPEFramework4Core20_bogus_ErrorToStringILj5EEEPKcj
FN:907,910,_ZN12WPEFramework4Core20_bogus_ErrorToStringILj6EEEPKcj
FN:907,910,_ZN12WPEFramework4Core20_bogus_ErrorToStringILj7EEEPKcj
FN:907,910,_ZN12WPEFramework4Core20_bogus_ErrorToStringILj8EEEPKcj
FN:907,910,_ZN12WPEFramework4Core20_bogus_ErrorToStringILj9EEEPKcj
FN:913,916,_ZN12WPEFramework4Core20_bogus_ErrorToStringILj0EEEPKcj
FN:918,921,_ZN12WPEFramework4Core13ErrorToStringEj
FNDA:35,_ZN12WPEFramework4Core4VoidC2IJEEEDpOT_
FNDA:0,_ZN12WPEFramework4Core17IReferenceCountedD0Ev
FNDA:75,_ZN12WPEFramework4Core17IReferenceCountedD2Ev
FNDA:0,_ZN12WPEFramework4Core8IUnknownD0Ev
FNDA:68,_ZN12WPEFramework4Core8IUnknownD2Ev
FNDA:17,_ZN12WPEFramework4Core8IUnknown14QueryInterfaceINS_10PluginHost11IDispatcherEEEPT_v
FNDA:52,_ZN12WPEFramework4Core8IUnknown14QueryInterfaceINS_8Exchange14IConfigurationEEEPT_v
FNDA:0,_ZN12WPEFramework4Core8IUnknown14QueryInterfaceINS_8Exchange19IAppGatewayResolverEEEPT_v
FNDA:8,_ZN12WPEFramework4Core8IUnknown14QueryInterfaceINS_8Exchange20IAppGatewayResponderEEEPT_v
FNDA:0,_ZN12WPEFramework4Core8_Err2StrILj4294967295EEEPKcv
FNDA:0,_ZN12WPEFramework4Core8_Err2StrILj50EEEPKcv
FNDA:0,_ZN12WPEFramework4Core8_Err2StrILj52EEEPKcv
FNDA:0,_ZN12WPEFramework4Core8_Err2StrILj54EEEPKcv
FNDA:0,_ZN12WPEFramework4Core8_Err2StrILj55EEEPKcv
FNDA:0,_ZN12WPEFramework4Core8_Err2StrILj56EEEPKcv
FNDA:0,_ZN12WPEFramework4Core8_Err2StrILj0EEEPKcv
FNDA:0,_ZN12WPEFramework4Core8_Err2StrILj10EEEPKcv
FNDA:0,_ZN12WPEFramework4Core8_Err2StrILj11EEEPKcv
FNDA:0,_ZN12WPEFramework4Core8_Err2StrILj12EEEPKcv
FNDA:0,_ZN12WPEFramework4Core8_Err2StrILj13EEEPKcv
FNDA:0,_ZN12WPEFramework4Core8_Err2StrILj14EEEPKcv
FNDA:0,_ZN12WPEFramework4Core8_Err2StrILj15EEEPKcv
FNDA:0,_ZN12WPEFramework4Core8_Err2StrILj16EEEPKcv
FNDA:0,_ZN12WPEFramework4Core8_Err2StrILj17EEEPKcv
FNDA:0,_ZN12WPEFramework4Core8_Err2StrILj18EEEPKcv
FNDA:0,_ZN12WPEFramework4Core8_Err2StrILj19EEEPKcv
FNDA:0,_ZN12WPEFramework4Core8_Err2StrILj1EEEPKcv
FNDA:0,_ZN12WPEFramework4Core8_Err2StrILj20EEEPKcv
FNDA:0,_ZN12WPEFramework4Core8_Err2StrILj21EEEPKcv
FNDA:0,_ZN12WPEFramework4Core8_Err2StrILj22EEEPKcv
FNDA:0,_ZN12WPEFramework4Core8_Err2StrILj23EEEPKcv
FNDA:0,_ZN12WPEFramework4Core8_Err2StrILj24EEEPKcv
FNDA:0,_ZN12WPEFramework4Core8_Err2StrILj25EEEPKcv
FNDA:0,_ZN12WPEFramework4Core8_Err2StrILj26EEEPKcv
FNDA:0,_ZN12WPEFramework4Core8_Err2StrILj27EEEPKcv
FNDA:0,_ZN12WPEFramework4Core8_Err2StrILj28EEEPKcv
FNDA:0,_ZN12WPEFramework4Core8_Err2StrILj29EEEPKcv
FNDA:1,_ZN12WPEFramework4Core8_Err2StrILj2EEEPKcv
FNDA:0,_ZN12WPEFramework4Core8_Err2StrILj30EEEPKcv
FNDA:0,_ZN12WPEFramework4Core8_Err2StrILj31EEEPKcv
FNDA:0,_ZN12WPEFramework4Core8_Err2StrILj32EEEPKcv
FNDA:0,_ZN12WPEFramework4Core8_Err2StrILj33EEEPKcv
FNDA:0,_ZN12WPEFramework4Core8_Err2StrILj34EEEPKcv
FNDA:0,_ZN12WPEFramework4Core8_Err2StrILj35EEEPKcv
FNDA:0,_ZN12WPEFramework4Core8_Err2StrILj36EEEPKcv
FNDA:0,_ZN12WPEFramework4Core8_Err2StrILj37EEEPKcv
FNDA:0,_ZN12WPEFramework4Core8_Err2StrILj38EEEPKcv
FNDA:0,_ZN12WPEFramework4Core8_Err2StrILj39EEEPKcv
FNDA:0,_ZN12WPEFramework4Core8_Err2StrILj3EEEPKcv
FNDA:0,_ZN12WPEFramework4Core8_Err2StrILj40EEEPKcv
FNDA:0,_ZN12WPEFramework4Core8_Err2StrILj41EEEPKcv
FNDA:0,_ZN12WPEFramework4Core8_Err2StrILj42EEEPKcv
FNDA:0,_ZN12WPEFramework4Core8_Err2StrILj43EEEPKcv
FNDA:1,_ZN12WPEFramework4Core8_Err2StrILj44EEEPKcv
FNDA:0,_ZN12WPEFramework4Core8_Err2StrILj45EEEPKcv
FNDA:0,_ZN12WPEFramework4Core8_Err2StrILj46EEEPKcv
FNDA:0,_ZN12WPEFramework4Core8_Err2StrILj47EEEPKcv
FNDA:0,_ZN12WPEFramework4Core8_Err2StrILj48EEEPKcv
FNDA:0,_ZN12WPEFramework4Core8_Err2StrILj49EEEPKcv
FNDA:0,_ZN12WPEFramework4Core8_Err2StrILj4EEEPKcv
FNDA:0,_ZN12WPEFramework4Core8_Err2StrILj51EEEPKcv
FNDA:0,_ZN12WPEFramework4Core8_Err2StrILj53EEEPKcv
FNDA:0,_ZN12WPEFramework4Core8_Err2StrILj57EEEPKcv
FNDA:0,_ZN12WPEFramework4Core8_Err2StrILj58EEEPKcv
FNDA:0,_ZN12WPEFramework4Core8_Err2StrILj5EEEPKcv
FNDA:0,_ZN12WPEFramework4Core8_Err2StrILj6EEEPKcv
FNDA:0,_ZN12WPEFramework4Core8_Err2StrILj7EEEPKcv
FNDA:0,_ZN12WPEFramework4Core8_Err2StrILj8EEEPKcv
FNDA:0,_ZN12WPEFramework4Core8_Err2StrILj9EEEPKcv
FNDA:1,_ZN12WPEFramework4Core20_bogus_ErrorToStringILj10EEEPKcj
FNDA:1,_ZN12WPEFramework4Core20_bogus_ErrorToStringILj11EEEPKcj
FNDA:1,_ZN12WPEFramework4Core20_bogus_ErrorToStringILj12EEEPKcj
FNDA:1,_ZN12WPEFramework4Core20_bogus_ErrorToStringILj13EEEPKcj
FNDA:1,_ZN12WPEFramework4Core20_bogus_ErrorToStringILj14EEEPKcj
FNDA:1,_ZN12WPEFramework4Core20_bogus_ErrorToStringILj15EEEPKcj
FNDA:1,_ZN12WPEFramework4Core20_bogus_ErrorToStringILj16EEEPKcj
FNDA:1,_ZN12WPEFramework4Core20_bogus_ErrorToStringILj17EEEPKcj
FNDA:1,_ZN12WPEFramework4Core20_bogus_ErrorToStringILj18EEEPKcj
FNDA:1,_ZN12WPEFramework4Core20_bogus_ErrorToStringILj19EEEPKcj
FNDA:0,_ZN12WPEFramework4Core20_bogus_ErrorToStringILj1EEEPKcj
FNDA:1,_ZN12WPEFramework4Core20_bogus_ErrorToStringILj20EEEPKcj
FNDA:1,_ZN12WPEFramework4Core20_bogus_ErrorToStringILj21EEEPKcj
FNDA:1,_ZN12WPEFramework4Core20_bogus_ErrorToStringILj22EEEPKcj
FNDA:1,_ZN12WPEFramework4Core20_bogus_ErrorToStringILj23EEEPKcj
FNDA:1,_ZN12WPEFramework4Core20_bogus_ErrorToStringILj24EEEPKcj
FNDA:1,_ZN12WPEFramework4Core20_bogus_ErrorToStringILj25EEEPKcj
FNDA:1,_ZN12WPEFramework4Core20_bogus_ErrorToStringILj26EEEPKcj
FNDA:1,_ZN12WPEFramework4Core20_bogus_ErrorToStringILj27EEEPKcj
FNDA:1,_ZN12WPEFramework4Core20_bogus_ErrorToStringILj28EEEPKcj
FNDA:1,_ZN12WPEFramework4Core20_bogus_ErrorToStringILj29EEEPKcj
FNDA:1,_ZN12WPEFramework4Core20_bogus_ErrorToStringILj2EEEPKcj
FNDA:1,_ZN12WPEFramework4Core20_bogus_ErrorToStringILj30EEEPKcj
FNDA:1,_ZN12WPEFramework4Core20_bogus_ErrorToStringILj31EEEPKcj
FNDA:1,_ZN12WPEFramework4Core20_bogus_ErrorToStringILj32EEEPKcj
FNDA:1,_ZN12WPEFramework4Core20_bogus_ErrorToStringILj33EEEPKcj
FNDA:1,_ZN12WPEFramework4Core20_bogus_ErrorToStringILj34EEEPKcj
FNDA:1,_ZN12WPEFramework4Core20_bogus_ErrorToStringILj35EEEPKcj
FNDA:1,_ZN12WPEFramework4Core20_bogus_ErrorToStringILj36EEEPKcj
FNDA:1,_ZN12WPEFramework4Core20_bogus_ErrorToStringILj37EEEPKcj
FNDA:1,_ZN12WPEFramework4Core20_bogus_ErrorToStringILj38EEEPKcj
FNDA:1,_ZN12WPEFramework4Core20_bogus_ErrorToStringILj39EEEPKcj
FNDA:1,_ZN12WPEFramework4Core20_bogus_ErrorToStringILj3EEEPKcj
FNDA:1,_ZN12WPEFramework4Core20_bogus_ErrorToStringILj40EEEPKcj
FNDA:1,_ZN12WPEFramework4Core20_bogus_ErrorToStringILj41EEEPKcj
FNDA:1,_ZN12WPEFramework4Core20_bogus_ErrorToStringILj42EEEPKcj
FNDA:1,_ZN12WPEFramework4Core20_bogus_ErrorToStringILj43EEEPKcj
FNDA:2,_ZN12WPEFramework4Core20_bogus_ErrorToStringILj44EEEPKcj
FNDA:2,_ZN12WPEFramework4Core20_bogus_ErrorToStringILj45EEEPKcj
FNDA:2,_ZN12WPEFramework4Core20_bogus_ErrorToStringILj46EEEPKcj
FNDA:2,_ZN12WPEFramework4Core20_bogus_ErrorToStringILj47EEEPKcj
FNDA:2,_ZN12WPEFramework4Core20_bogus_ErrorToStringILj48EEEPKcj
FNDA:2,_ZN12WPEFramework4Core20_bogus_ErrorToStringILj49EEEPKcj
FNDA:1,_ZN12WPEFramework4Core20_bogus_ErrorToStringILj4EEEPKcj
FNDA:2,_ZN12WPEFramework4Core20_bogus_ErrorToStringILj50EEEPKcj
FNDA:2,_ZN12WPEFramework4Core20_bogus_ErrorToStringILj51EEEPKcj
FNDA:2,_ZN12WPEFramework4Core20_bogus_ErrorToStringILj52EEEPKcj
FNDA:2,_ZN12WPEFramework4Core20_bogus_ErrorToStringILj53EEEPKcj
FNDA:2,_ZN12WPEFramework4Core20_bogus_ErrorToStringILj54EEEPKcj
FNDA:2,_ZN12WPEFramework4Core20_bogus_ErrorToStringILj55EEEPKcj
FNDA:2,_ZN12WPEFramework4Core20_bogus_ErrorToStringILj56EEEPKcj
FNDA:2,_ZN12WPEFramework4Core20_bogus_ErrorToStringILj57EEEPKcj
FNDA:2,_ZN12WPEFramework4Core20_bogus_ErrorToStringILj58EEEPKcj
FNDA:1,_ZN12WPEFramework4Core20_bogus_ErrorToStringILj5EEEPKcj
FNDA:1,_ZN12WPEFramework4Core20_bogus_ErrorToStringILj6EEEPKcj
FNDA:1,_ZN12WPEFramework4Core20_bogus_ErrorToStringILj7EEEPKcj
FNDA:1,_ZN12WPEFramework4Core20_bogus_ErrorToStringILj8EEEPKcj
FNDA:1,_ZN12WPEFramework4Core20_bogus_ErrorToStringILj9EEEPKcj
FNDA:0,_ZN12WPEFramework4Core20_bogus_ErrorToStringILj0EEEPKcj
FNDA:2,_ZN12WPEFramework4Core13ErrorToStringEj
FNF:129
FNH:66
DA:755,35
DA:764,75
DA:779,68
DA:784,77
DA:786,77
DA:788,77
DA:789,77
DA:792,0
DA:896,0
DA:898,0
DA:904,2
DA:907,72
DA:909,72
DA:913,0
DA:915,0
DA:918,2
DA:920,2
LF:17
LH:12
end_of_record
TN:
SF:/home/kavia/workspace/code-generation/app-gateway2/dependencies/install/include/WPEFramework/core/Proxy.h
FN:102,107,_ZN12WPEFramework4Core11ProxyObjectIN26WebSocketConnectionManager15WebSocketServerEEC2IJRiRKNS0_6NodeIdEPNS0_16SocketServerTypeIS3_EEEEEDpOT_
FN:102,107,_ZN12WPEFramework4Core11ProxyObjectINS0_15ServiceMetadataINS_6Plugin10AppGatewayEE21ServiceImplementationIS4_EEEC1IJRKNS0_7LibraryERPKNS0_16IServiceMetadataEEEEDpOT_
FN:102,107,_ZN12WPEFramework4Core11ProxyObjectINS0_15ServiceMetadataINS_6Plugin24AppGatewayImplementationEE21ServiceImplementationIS4_EEEC1IJRKNS0_7LibraryERPKNS0_16IServiceMetadataEEEEDpOT_
FN:102,107,_ZN12WPEFramework4Core11ProxyObjectINS0_15ServiceMetadataINS_6Plugin33AppGatewayResponderImplementationEE21ServiceImplementationIS4_EEEC1IJRKNS0_7LibraryERPKNS0_16IServiceMetadataEEEEDpOT_
FN:102,107,_ZN12WPEFramework4Core11ProxyObjectINS0_18ProxyContainerTypeINS0_13ProxyPoolTypeINS_3Web12JSONBodyTypeINS0_7JSONRPC7MessageEEEEES8_S8_EEEC2IJRS9_EEEDpOT_
FN:102,107,_ZN12WPEFramework4Core11ProxyObjectINS0_18ProxyContainerTypeINS0_13ProxyPoolTypeINS_3Web7RequestEEES5_S5_EEEC2IJRS6_EEEDpOT_
FN:102,107,_ZN12WPEFramework4Core11ProxyObjectINS0_7JSONRPC7MessageEEC2IJEEEDpOT_
FN:102,107,_ZN12WPEFramework4Core11ProxyObjectINS0_7ServiceINS_6Plugin10AppGatewayEEEEC1IJEEEDpOT_
FN:102,107,_ZN12WPEFramework4Core11ProxyObjectINS0_7ServiceINS_6Plugin24AppGatewayImplementationEEEEC1IJEEEDpOT_
FN:102,107,_ZN12WPEFramework4Core11ProxyObjectINS_3Web8ResponseEEC2IJEEEDpOT_
FN:102,107,_ZN12WPEFramework4Core11ProxyObjectINS_6Plugin24AppGatewayImplementation10RespondJobEEC2IJRPS3_RKNS_8Exchange14GatewayContextERKNSt7__cxx1112basic_stringIcSt11char_traitsIcESaIcEEESK_EEEDpOT_
FN:102,107,_ZN12WPEFramework4Core11ProxyObjectINS_6Plugin33AppGatewayResponderImplementation10RequestJobEEC2IJRPS3_RKjSA_RKNSt7__cxx1112basic_stringIcSt11char_traitsIcESaIcEEESI_EEEDpOT_
FN:102,107,_ZN12WPEFramework4Core11ProxyObjectINS_6Plugin33AppGatewayResponderImplementation10RespondJobEEC2IJRPS3_RKjSA_RKNSt7__cxx1112basic_stringIcSt11char_traitsIcESaIcEEEEEEDpOT_
FN:102,107,_ZN12WPEFramework4Core11ProxyObjectINS_6Plugin33AppGatewayResponderImplementation31ConnectionStatusNotificationJobEEC2IJRPS3_RKjRKNSt7__cxx1112basic_stringIcSt11char_traitsIcESaIcEEERKbEEEDpOT_
FN:102,107,_ZN12WPEFramework4Core11ProxyObjectINS_6Plugin33AppGatewayResponderImplementation7EmitJobEEC2IJRPS3_RKjRKNSt7__cxx1112basic_stringIcSt11char_traitsIcESaIcEEESI_EEEDpOT_
FN:102,107,_ZN12WPEFramework4Core11ProxyObjectINS_6Plugin33AppGatewayResponderImplementation8WsMsgJobEEC2IJRPS3_RKNSt7__cxx1112basic_stringIcSt11char_traitsIcESaIcEEESG_RKjSI_EEEDpOT_
FN:102,107,_ZN12WPEFramework4Core11ProxyObjectINS_6Plugin8MetadataINS2_10AppGatewayEE20PluginImplementationIS4_EEEC1IJRKNS0_7LibraryERPKNS0_16IServiceMetadataEEEEDpOT_
FN:108,119,_ZN12WPEFramework4Core11ProxyObjectIN26WebSocketConnectionManager15WebSocketServerEED0Ev
FN:108,119,_ZN12WPEFramework4Core11ProxyObjectIN26WebSocketConnectionManager15WebSocketServerEED2Ev
FN:108,119,_ZN12WPEFramework4Core11ProxyObjectINS0_15ServiceMetadataINS_6Plugin10AppGatewayEE21ServiceImplementationIS4_EEED0Ev
FN:108,119,_ZN12WPEFramework4Core11ProxyObjectINS0_15ServiceMetadataINS_6Plugin10AppGatewayEE21ServiceImplementationIS4_EEED1Ev
FN:108,119,_ZN12WPEFramework4Core11ProxyObjectINS0_15ServiceMetadataINS_6Plugin24AppGatewayImplementationEE21ServiceImplementationIS4_EEED0Ev
FN:108,119,_ZN12WPEFramework4Core11ProxyObjectINS0_15ServiceMetadataINS_6Plugin24AppGatewayImplementationEE21ServiceImplementationIS4_EEED1Ev
FN:108,119,_ZN12WPEFramework4Core11ProxyObjectINS0_15ServiceMetadataINS_6Plugin33AppGatewayResponderImplementationEE21ServiceImplementationIS4_EEED0Ev
FN:108,119,_ZN12WPEFramework4Core11ProxyObjectINS0_15ServiceMetadataINS_6Plugin33AppGatewayResponderImplementationEE21ServiceImplementationIS4_EEED1Ev
FN:108,119,_ZN12WPEFramework4Core11ProxyObjectINS0_18ProxyContainerTypeINS0_13ProxyPoolTypeINS_3Web12JSONBodyTypeINS0_7JSONRPC7MessageEEEEES8_S8_EEED0Ev
FN:108,119,_ZN12WPEFramework4Core11ProxyObjectINS0_18ProxyContainerTypeINS0_13ProxyPoolTypeINS_3Web12JSONBodyTypeINS0_7JSONRPC7MessageEEEEES8_S8_EEED2Ev
FN:108,119,_ZN12WPEFramework4Core11ProxyObjectINS0_18ProxyContainerTypeINS0_13ProxyPoolTypeINS_3Web7RequestEEES5_S5_EEED0Ev
FN:108,119,_ZN12WPEFramework4Core11ProxyObjectINS0_18ProxyContainerTypeINS0_13ProxyPoolTypeINS_3Web7RequestEEES5_S5_EEED2Ev
FN:108,119,_ZN12WPEFramework4Core11ProxyObjectINS0_7JSONRPC7MessageEED0Ev
FN:108,119,_ZN12WPEFramework4Core11ProxyObjectINS0_7JSONRPC7MessageEED2Ev
FN:108,119,_ZN12WPEFramework4Core11ProxyObjectINS0_7ServiceINS_6Plugin10AppGatewayEEEED0Ev
FN:108,119,_ZN12WPEFramework4Core11ProxyObjectINS0_7ServiceINS_6Plugin10AppGatewayEEEED1Ev
FN:108,119,_ZN12WPEFramework4Core11ProxyObjectINS0_7ServiceINS_6Plugin24AppGatewayImplementationEEEED0Ev
FN:108,119,_ZN12WPEFramework4Core11ProxyObjectINS0_7ServiceINS_6Plugin24AppGatewayImplementationEEEED1Ev
FN:108,119,_ZN12WPEFramework4Core11ProxyObjectINS_3Web8ResponseEED0Ev
FN:108,119,_ZN12WPEFramework4Core11ProxyObjectINS_3Web8ResponseEED2Ev
FN:108,119,_ZN12WPEFramework4Core11ProxyObjectINS_6Plugin24AppGatewayImplementation10RespondJobEED0Ev
FN:108,119,_ZN12WPEFramework4Core11ProxyObjectINS_6Plugin24AppGatewayImplementation10RespondJobEED2Ev
FN:108,119,_ZN12WPEFramework4Core11ProxyObjectINS_6Plugin33AppGatewayResponderImplementation10RequestJobEED0Ev
FN:108,119,_ZN12WPEFramework4Core11ProxyObjectINS_6Plugin33AppGatewayResponderImplementation10RequestJobEED2Ev
FN:108,119,_ZN12WPEFramework4Core11ProxyObjectINS_6Plugin33AppGatewayResponderImplementation10RespondJobEED0Ev
FN:108,119,_ZN12WPEFramework4Core11ProxyObjectINS_6Plugin33AppGatewayResponderImplementation10RespondJobEED2Ev
FN:108,119,_ZN12WPEFramework4Core11ProxyObjectINS_6Plugin33AppGatewayResponderImplementation31ConnectionStatusNotificationJobEED0Ev
FN:108,119,_ZN12WPEFramework4Core11ProxyObjectINS_6Plugin33AppGatewayResponderImplementation31ConnectionStatusNotificationJobEED2Ev
FN:108,119,_ZN12WPEFramework4Core11ProxyObjectINS_6Plugin33AppGatewayResponderImplementation7EmitJobEED0Ev
FN:108,119,_ZN12WPEFramework4Core11ProxyObjectINS_6Plugin33AppGatewayResponderImplementation7EmitJobEED2Ev
FN:108,119,_ZN12WPEFramework4Core11ProxyObjectINS_6Plugin33AppGatewayResponderImplementation8WsMsgJobEED0Ev
FN:108,119,_ZN12WPEFramework4Core11ProxyObjectINS_6Plugin33AppGatewayResponderImplementation8WsMsgJobEED2Ev
FN:108,119,_ZN12WPEFramework4Core11ProxyObjectINS_6Plugin8MetadataINS2_10AppGatewayEE20PluginImplementationIS4_EEED0Ev
FN:108,119,_ZN12WPEFramework4Core11ProxyObjectINS_6Plugin8MetadataINS2_10AppGatewayEE20PluginImplementationIS4_EEED1Ev
FN:1214,1218,_ZN12WPEFramework4Core18ProxyContainerTypeINS0_13ProxyPoolTypeINS_3Web12JSONBodyTypeINS0_7JSONRPC7MessageEEEEES7_S7_EC2IJEEERS8_DpOT_
FN:1214,1218,_ZN12WPEFramework4Core18ProxyContainerTypeINS0_13ProxyPoolTypeINS_3Web7RequestEEES4_S4_EC2IJEEERS5_DpOT_
FN:1219,1223,_ZN12WPEFramework4Core18ProxyContainerTypeINS0_13ProxyPoolTypeINS_3Web12JSONBodyTypeINS0_7JSONRPC7MessageEEEEES7_S7_ED0Ev
FN:1219,1223,_ZN12WPEFramework4Core18ProxyContainerTypeINS0_13ProxyPoolTypeINS_3Web12JSONBodyTypeINS0_7JSONRPC7MessageEEEEES7_S7_ED2Ev
FN:1219,1223,_ZN12WPEFramework4Core18ProxyContainerTypeINS0_13ProxyPoolTypeINS_3Web7RequestEEES4_S4_ED2Ev
FN:122,130,_ZNK12WPEFramework4Core11ProxyObjectIN26WebSocketConnectionManager15WebSocketServerEE6AddRefEv
FN:122,130,_ZNK12WPEFramework4Core11ProxyObjectINS0_15ServiceMetadataINS_6Plugin10AppGatewayEE21ServiceImplementationIS4_EEE6AddRefEv
FN:122,130,_ZNK12WPEFramework4Core11ProxyObjectINS0_15ServiceMetadataINS_6Plugin24AppGatewayImplementationEE21ServiceImplementationIS4_EEE6AddRefEv
FN:122,130,_ZNK12WPEFramework4Core11ProxyObjectINS0_15ServiceMetadataINS_6Plugin33AppGatewayResponderImplementationEE21ServiceImplementationIS4_EEE6AddRefEv
FN:122,130,_ZNK12WPEFramework4Core11ProxyObjectINS0_18ProxyContainerTypeINS0_13ProxyPoolTypeINS_3Web12JSONBodyTypeINS0_7JSONRPC7MessageEEEEES8_S8_EEE6AddRefEv
FN:122,130,_ZNK12WPEFramework4Core11ProxyObjectINS0_18ProxyContainerTypeINS0_13ProxyPoolTypeINS_3Web7RequestEEES5_S5_EEE6AddRefEv
FN:122,130,_ZNK12WPEFramework4Core11ProxyObjectINS0_7JSONRPC7MessageEE6AddRefEv
FN:122,130,_ZNK12WPEFramework4Core11ProxyObjectINS0_7ServiceINS_6Plugin10AppGatewayEEEE6AddRefEv
FN:122,130,_ZNK12WPEFramework4Core11ProxyObjectINS0_7ServiceINS_6Plugin24AppGatewayImplementationEEEE6AddRefEv
FN:122,130,_ZNK12WPEFramework4Core11ProxyObjectINS_3Web8ResponseEE6AddRefEv
FN:122,130,_ZNK12WPEFramework4Core11ProxyObjectINS_6Plugin24AppGatewayImplementation10RespondJobEE6AddRefEv
FN:122,130,_ZNK12WPEFramework4Core11ProxyObjectINS_6Plugin33AppGatewayResponderImplementation10RequestJobEE6AddRefEv
FN:122,130,_ZNK12WPEFramework4Core11ProxyObjectINS_6Plugin33AppGatewayResponderImplementation10RespondJobEE6AddRefEv
FN:122,130,_ZNK12WPEFramework4Core11ProxyObjectINS_6Plugin33AppGatewayResponderImplementation31ConnectionStatusNotificationJobEE6AddRefEv
FN:122,130,_ZNK12WPEFramework4Core11ProxyObjectINS_6Plugin33AppGatewayResponderImplementation7EmitJobEE6AddRefEv
FN:122,130,_ZNK12WPEFramework4Core11ProxyObjectINS_6Plugin33AppGatewayResponderImplementation8WsMsgJobEE6AddRefEv
FN:122,130,_ZNK12WPEFramework4Core11ProxyObjectINS_6Plugin8MetadataINS2_10AppGatewayEE20PluginImplementationIS4_EEE6AddRefEv
FN:1229,1237,_ZN12WPEFramework4Core18ProxyContainerTypeINS0_13ProxyPoolTypeINS_3Web12JSONBodyTypeINS0_7JSONRPC7MessageEEEEES7_S7_E6UnlinkEv
FN:1239,1241,_ZNK12WPEFramework4Core18ProxyContainerTypeINS0_13ProxyPoolTypeINS_3Web12JSONBodyTypeINS0_7JSONRPC7MessageEEEEES7_S7_E13IsInitializedEv
FN:1239,1241,_ZNK12WPEFramework4Core18ProxyContainerTypeINS0_13ProxyPoolTypeINS_3Web7RequestEEES4_S4_E13IsInitializedEv
FN:1242,1244,_ZN12WPEFramework4Core18ProxyContainerTypeINS0_13ProxyPoolTypeINS_3Web12JSONBodyTypeINS0_7JSONRPC7MessageEEEEES7_S7_E5ClearEv
FN:1242,1244,_ZN12WPEFramework4Core18ProxyContainerTypeINS0_13ProxyPoolTypeINS_3Web7RequestEEES4_S4_E5ClearEv
FN:1245,1247,_ZN12WPEFramework4Core18ProxyContainerTypeINS0_13ProxyPoolTypeINS_3Web12JSONBodyTypeINS0_7JSONRPC7MessageEEEEES7_S7_E10InitializeEv
FN:1245,1247,_ZN12WPEFramework4Core18ProxyContainerTypeINS0_13ProxyPoolTypeINS_3Web7RequestEEES4_S4_E10InitializeEv
FN:1248,1250,_ZN12WPEFramework4Core18ProxyContainerTypeINS0_13ProxyPoolTypeINS_3Web12JSONBodyTypeINS0_7JSONRPC7MessageEEEEES7_S7_E12DeinitializeEv
FN:1248,1250,_ZN12WPEFramework4Core18ProxyContainerTypeINS0_13ProxyPoolTypeINS_3Web7RequestEEES4_S4_E12DeinitializeEv
FN:1251,1253,_ZN12WPEFramework4Core18ProxyContainerTypeINS0_13ProxyPoolTypeINS_3Web12JSONBodyTypeINS0_7JSONRPC7MessageEEEEES7_S7_E7AcquireERNS0_9ProxyTypeIS9_EE
FN:1251,1253,_ZN12WPEFramework4Core18ProxyContainerTypeINS0_13ProxyPoolTypeINS_3Web7RequestEEES4_S4_E7AcquireERNS0_9ProxyTypeIS6_EE
FN:1254,1262,_ZN12WPEFramework4Core18ProxyContainerTypeINS0_13ProxyPoolTypeINS_3Web12JSONBodyTypeINS0_7JSONRPC7MessageEEEEES7_S7_E10RelinquishERNS0_9ProxyTypeIS9_EE
FN:1254,1262,_ZN12WPEFramework4Core18ProxyContainerTypeINS0_13ProxyPoolTypeINS_3Web7RequestEEES4_S4_E10RelinquishERNS0_9ProxyTypeIS6_EE
FN:1272,1274,_ZN12WPEFramework4Core18ProxyContainerTypeINS0_13ProxyPoolTypeINS_3Web12JSONBodyTypeINS0_7JSONRPC7MessageEEEEES7_S7_E6NotifyERNS0_9ProxyTypeIS9_EERK17TemplateIntToTypeILj1EE
FN:1272,1274,_ZN12WPEFramework4Core18ProxyContainerTypeINS0_13ProxyPoolTypeINS_3Web7RequestEEES4_S4_E6NotifyERNS0_9ProxyTypeIS6_EERK17TemplateIntToTypeILj1EE
FN:1289,1292,_ZN12WPEFramework4Core18ProxyContainerTypeINS0_13ProxyPoolTypeINS_3Web12JSONBodyTypeINS0_7JSONRPC7MessageEEEEES7_S7_E7__ClearIS7_EENS0_10TypeTraits9enable_ifIXsrNS9_8hasClearIT_vJEEE5valueEvE4typeEv
FN:1289,1292,_ZN12WPEFramework4Core18ProxyContainerTypeINS0_13ProxyPoolTypeINS_3Web7RequestEEES4_S4_E7__ClearIS4_EENS0_10TypeTraits9enable_ifIXsrNS6_8hasClearIT_vJEEE5valueEvE4typeEv
FN:131,145,_ZNK12WPEFramework4Core11ProxyObjectIN26WebSocketConnectionManager15WebSocketServerEE7ReleaseEv
FN:131,145,_ZNK12WPEFramework4Core11ProxyObjectINS0_15ServiceMetadataINS_6Plugin10AppGatewayEE21ServiceImplementationIS4_EEE7ReleaseEv
FN:131,145,_ZNK12WPEFramework4Core11ProxyObjectINS0_15ServiceMetadataINS_6Plugin24AppGatewayImplementationEE21ServiceImplementationIS4_EEE7ReleaseEv
FN:131,145,_ZNK12WPEFramework4Core11ProxyObjectINS0_15ServiceMetadataINS_6Plugin33AppGatewayResponderImplementationEE21ServiceImplementationIS4_EEE7ReleaseEv
FN:131,145,_ZNK12WPEFramework4Core11ProxyObjectINS0_18ProxyContainerTypeINS0_13ProxyPoolTypeINS_3Web12JSONBodyTypeINS0_7JSONRPC7MessageEEEEES8_S8_EEE7ReleaseEv
FN:131,145,_ZNK12WPEFramework4Core11ProxyObjectINS0_18ProxyContainerTypeINS0_13ProxyPoolTypeINS_3Web7RequestEEES5_S5_EEE7ReleaseEv
FN:131,145,_ZNK12WPEFramework4Core11ProxyObjectINS0_7JSONRPC7MessageEE7ReleaseEv
FN:131,145,_ZNK12WPEFramework4Core11ProxyObjectINS0_7ServiceINS_6Plugin10AppGatewayEEEE7ReleaseEv
FN:131,145,_ZNK12WPEFramework4Core11ProxyObjectINS0_7ServiceINS_6Plugin24AppGatewayImplementationEEEE7ReleaseEv
FN:131,145,_ZNK12WPEFramework4Core11ProxyObjectINS_3Web8ResponseEE7ReleaseEv
FN:131,145,_ZNK12WPEFramework4Core11ProxyObjectINS_6Plugin24AppGatewayImplementation10RespondJobEE7ReleaseEv
FN:131,145,_ZNK12WPEFramework4Core11ProxyObjectINS_6Plugin33AppGatewayResponderImplementation10RequestJobEE7ReleaseEv
FN:131,145,_ZNK12WPEFramework4Core11ProxyObjectINS_6Plugin33AppGatewayResponderImplementation10RespondJobEE7ReleaseEv
FN:131,145,_ZNK12WPEFramework4Core11ProxyObjectINS_6Plugin33AppGatewayResponderImplementation31ConnectionStatusNotificationJobEE7ReleaseEv
FN:131,145,_ZNK12WPEFramework4Core11ProxyObjectINS_6Plugin33AppGatewayResponderImplementation7EmitJobEE7ReleaseEv
FN:131,145,_ZNK12WPEFramework4Core11ProxyObjectINS_6Plugin33AppGatewayResponderImplementation8WsMsgJobEE7ReleaseEv
FN:131,145,_ZNK12WPEFramework4Core11ProxyObjectINS_6Plugin8MetadataINS2_10AppGatewayEE20PluginImplementationIS4_EEE7ReleaseEv
FN:1312,1315,_ZN12WPEFramework4Core18ProxyContainerTypeINS0_13ProxyPoolTypeINS_3Web12JSONBodyTypeINS0_7JSONRPC7MessageEEEEES7_S7_E12__InitializeIS7_EENS0_10TypeTraits9enable_ifIXntsrNS9_13hasInitializeIT_jJEEE5valueEjE4typeEv
FN:1312,1315,_ZN12WPEFramework4Core18ProxyContainerTypeINS0_13ProxyPoolTypeINS_3Web7RequestEEES4_S4_E12__InitializeIS4_EENS0_10TypeTraits9enable_ifIXntsrNS6_13hasInitializeIT_jJEEE5valueEjE4typeEv
FN:1330,1332,_ZN12WPEFramework4Core18ProxyContainerTypeINS0_13ProxyPoolTypeINS_3Web12JSONBodyTypeINS0_7JSONRPC7MessageEEEEES7_S7_E14__DeinitializeIS7_EENS0_10TypeTraits9enable_ifIXntsrNS9_15hasDeinitializeIT_vJEEE5valueEvE4typeEv
FN:1330,1332,_ZN12WPEFramework4Core18ProxyContainerTypeINS0_13ProxyPoolTypeINS_3Web7RequestEEES4_S4_E14__DeinitializeIS4_EENS0_10TypeTraits9enable_ifIXntsrNS6_15hasDeinitializeIT_vJEEE5valueEvE4typeEv
FN:1347,1350,_ZNK12WPEFramework4Core18ProxyContainerTypeINS0_13ProxyPoolTypeINS_3Web12JSONBodyTypeINS0_7JSONRPC7MessageEEEEES7_S7_E15__IsInitializedIS7_EENS0_10TypeTraits9enable_ifIXntsrNS9_16hasIsInitializedIKT_bJEEE5valueEbE4typeEv
FN:1347,1350,_ZNK12WPEFramework4Core18ProxyContainerTypeINS0_13ProxyPoolTypeINS_3Web7RequestEEES4_S4_E15__IsInitializedIS4_EENS0_10TypeTraits9enable_ifIXntsrNS6_16hasIsInitializedIKT_bJEEE5valueEbE4typeEv
FN:1373,1375,_ZN12WPEFramework4Core18ProxyContainerTypeINS0_13ProxyPoolTypeINS_3Web12JSONBodyTypeINS0_7JSONRPC7MessageEEEEES7_S7_E9__AcquireIS7_EENS0_10TypeTraits9enable_ifIXntsrNS9_10hasAcquireIT_vJRNS0_9ProxyTypeIS7_EEEEE5valueEvE4typeERNSF_IS9_EE
FN:1373,1375,_ZN12WPEFramework4Core18ProxyContainerTypeINS0_13ProxyPoolTypeINS_3Web7RequestEEES4_S4_E9__AcquireIS4_EENS0_10TypeTraits9enable_ifIXntsrNS6_10hasAcquireIT_vJRNS0_9ProxyTypeIS4_EEEEE5valueEvE4typeERNSC_IS6_EE
FN:1396,1398,_ZN12WPEFramework4Core18ProxyContainerTypeINS0_13ProxyPoolTypeINS_3Web12JSONBodyTypeINS0_7JSONRPC7MessageEEEEES7_S7_E12__RelinquishIS7_EENS0_10TypeTraits9enable_ifIXntsrNS9_13hasRelinquishIT_vJRNS0_9ProxyTypeIS7_EEEEE5valueEvE4typeERNSF_IS9_EE
FN:1396,1398,_ZN12WPEFramework4Core18ProxyContainerTypeINS0_13ProxyPoolTypeINS_3Web7RequestEEES4_S4_E12__RelinquishIS4_EENS0_10TypeTraits9enable_ifIXntsrNS6_13hasRelinquishIT_vJRNS0_9ProxyTypeIS4_EEEEE5valueEvE4typeERNSC_IS6_EE
FN:1413,1415,_ZN12WPEFramework4Core18ProxyContainerTypeINS0_13ProxyPoolTypeINS_3Web12JSONBodyTypeINS0_7JSONRPC7MessageEEEEES7_S7_E8__UnlinkIS7_EENS0_10TypeTraits9enable_ifIXntsrNS9_9hasUnlinkIT_vJEEE5valueEvE4typeEv
FN:1413,1415,_ZN12WPEFramework4Core18ProxyContainerTypeINS0_13ProxyPoolTypeINS_3Web7RequestEEES4_S4_E8__UnlinkIS4_EENS0_10TypeTraits9enable_ifIXntsrNS6_9hasUnlinkIT_vJEEE5valueEvE4typeEv
FN:1432,1443,_ZN12WPEFramework4Core13ProxyPoolTypeINS_3Web12JSONBodyTypeINS0_7JSONRPC7MessageEEEEC2IJEEEjDpOT_
FN:1444,1474,_ZN12WPEFramework4Core13ProxyPoolTypeINS_3Web12JSONBodyTypeINS0_7JSONRPC7MessageEEEED2Ev
FN:1478,1515,_ZN12WPEFramework4Core13ProxyPoolTypeINS_3Web12JSONBodyTypeINS0_7JSONRPC7MessageEEEE7ElementIJEEENS0_9ProxyTypeIS6_EEDpOT_
FN:1478,1515,_ZN12WPEFramework4Core13ProxyPoolTypeINS_3Web7RequestEE7ElementIJEEENS0_9ProxyTypeIS3_EEDpOT_
FN:1524,1542,_ZN12WPEFramework4Core13ProxyPoolTypeINS_3Web12JSONBodyTypeINS0_7JSONRPC7MessageEEEE6NotifyERNS0_9ProxyTypeINS0_18ProxyContainerTypeIS7_S6_S6_EEEE
FN:1524,1542,_ZN12WPEFramework4Core13ProxyPoolTypeINS_3Web7RequestEE6NotifyERNS0_9ProxyTypeINS0_18ProxyContainerTypeIS4_S3_S3_EEEE
FN:179,182,_ZN12WPEFramework4Core11ProxyObjectINS0_18ProxyContainerTypeINS0_13ProxyPoolTypeINS_3Web12JSONBodyTypeINS0_7JSONRPC7MessageEEEEES8_S8_EEE5ClearEv
FN:179,182,_ZN12WPEFramework4Core11ProxyObjectINS0_7JSONRPC7MessageEE5ClearEv
FN:183,186,_ZNK12WPEFramework4Core11ProxyObjectIN26WebSocketConnectionManager15WebSocketServerEE13IsInitializedEv
FN:183,186,_ZNK12WPEFramework4Core11ProxyObjectINS0_15ServiceMetadataINS_6Plugin10AppGatewayEE21ServiceImplementationIS4_EEE13IsInitializedEv
FN:183,186,_ZNK12WPEFramework4Core11ProxyObjectINS0_15ServiceMetadataINS_6Plugin24AppGatewayImplementationEE21ServiceImplementationIS4_EEE13IsInitializedEv
FN:183,186,_ZNK12WPEFramework4Core11ProxyObjectINS0_15ServiceMetadataINS_6Plugin33AppGatewayResponderImplementationEE21ServiceImplementationIS4_EEE13IsInitializedEv
FN:183,186,_ZNK12WPEFramework4Core11ProxyObjectINS0_18ProxyContainerTypeINS0_13ProxyPoolTypeINS_3Web12JSONBodyTypeINS0_7JSONRPC7MessageEEEEES8_S8_EEE13IsInitializedEv
FN:183,186,_ZNK12WPEFramework4Core11ProxyObjectINS0_18ProxyContainerTypeINS0_13ProxyPoolTypeINS_3Web7RequestEEES5_S5_EEE13IsInitializedEv
FN:183,186,_ZNK12WPEFramework4Core11ProxyObjectINS0_7JSONRPC7MessageEE13IsInitializedEv
FN:183,186,_ZNK12WPEFramework4Core11ProxyObjectINS0_7ServiceINS_6Plugin10AppGatewayEEEE13IsInitializedEv
FN:183,186,_ZNK12WPEFramework4Core11ProxyObjectINS0_7ServiceINS_6Plugin24AppGatewayImplementationEEEE13IsInitializedEv
FN:183,186,_ZNK12WPEFramework4Core11ProxyObjectINS_3Web8ResponseEE13IsInitializedEv
FN:183,186,_ZNK12WPEFramework4Core11ProxyObjectINS_6Plugin24AppGatewayImplementation10RespondJobEE13IsInitializedEv
FN:183,186,_ZNK12WPEFramework4Core11ProxyObjectINS_6Plugin33AppGatewayResponderImplementation10RequestJobEE13IsInitializedEv
FN:183,186,_ZNK12WPEFramework4Core11ProxyObjectINS_6Plugin33AppGatewayResponderImplementation10RespondJobEE13IsInitializedEv
FN:183,186,_ZNK12WPEFramework4Core11ProxyObjectINS_6Plugin33AppGatewayResponderImplementation31ConnectionStatusNotificationJobEE13IsInitializedEv
FN:183,186,_ZNK12WPEFramework4Core11ProxyObjectINS_6Plugin33AppGatewayResponderImplementation7EmitJobEE13IsInitializedEv
FN:183,186,_ZNK12WPEFramework4Core11ProxyObjectINS_6Plugin33AppGatewayResponderImplementation8WsMsgJobEE13IsInitializedEv
FN:183,186,_ZNK12WPEFramework4Core11ProxyObjectINS_6Plugin8MetadataINS2_10AppGatewayEE20PluginImplementationIS4_EEE13IsInitializedEv
FN:208,211,_ZN12WPEFramework4Core11ProxyObjectINS0_18ProxyContainerTypeINS0_13ProxyPoolTypeINS_3Web12JSONBodyTypeINS0_7JSONRPC7MessageEEEEES8_S8_EEE7__ClearISA_EENS0_10TypeTraits9enable_ifIXsrNSB_8hasClearIT_vJEEE5valueEvE4typeEv
FN:208,211,_ZN12WPEFramework4Core11ProxyObjectINS0_7JSONRPC7MessageEE7__ClearIS3_EENS0_10TypeTraits9enable_ifIXsrNS4_8hasClearIT_vJEEE5valueEvE4typeEv
FN:225,228,_ZN12WPEFramework4Core11ProxyObjectINS0_18ProxyContainerTypeINS0_13ProxyPoolTypeINS_3Web12JSONBodyTypeINS0_7JSONRPC7MessageEEEEES8_S8_EEE12__InitializeISA_EENS0_10TypeTraits9enable_ifIXsrNSB_13hasInitializeIT_jJEEE5valueEjE4typeEv
FN:225,228,_ZN12WPEFramework4Core11ProxyObjectINS0_18ProxyContainerTypeINS0_13ProxyPoolTypeINS_3Web7RequestEEES5_S5_EEE12__InitializeIS7_EENS0_10TypeTraits9enable_ifIXsrNS8_13hasInitializeIT_jJEEE5valueEjE4typeEv
FN:231,234,_ZN12WPEFramework4Core11ProxyObjectIN26WebSocketConnectionManager15WebSocketServerEE12__InitializeIS3_EENS0_10TypeTraits9enable_ifIXntsrNS4_13hasInitializeIT_jJEEE5valueEjE4typeEv
FN:231,234,_ZN12WPEFramework4Core11ProxyObjectINS0_15ServiceMetadataINS_6Plugin10AppGatewayEE21ServiceImplementationIS4_EEE12__InitializeIS7_EENS0_10TypeTraits9enable_ifIXntsrNS8_13hasInitializeIT_jJEEE5valueEjE4typeEv
FN:231,234,_ZN12WPEFramework4Core11ProxyObjectINS0_15ServiceMetadataINS_6Plugin24AppGatewayImplementationEE21ServiceImplementationIS4_EEE12__InitializeIS7_EENS0_10TypeTraits9enable_ifIXntsrNS8_13hasInitializeIT_jJEEE5valueEjE4typeEv
FN:231,234,_ZN12WPEFramework4Core11ProxyObjectINS0_15ServiceMetadataINS_6Plugin33AppGatewayResponderImplementationEE21ServiceImplementationIS4_EEE12__InitializeIS7_EENS0_10TypeTraits9enable_ifIXntsrNS8_13hasInitializeIT_jJEEE5valueEjE4typeEv
FN:231,234,_ZN12WPEFramework4Core11ProxyObjectINS0_7JSONRPC7MessageEE12__InitializeIS3_EENS0_10TypeTraits9enable_ifIXntsrNS4_13hasInitializeIT_jJEEE5valueEjE4typeEv
FN:231,234,_ZN12WPEFramework4Core11ProxyObjectINS0_7ServiceINS_6Plugin10AppGatewayEEEE12__InitializeIS5_EENS0_10TypeTraits9enable_ifIXntsrNS6_13hasInitializeIT_jJEEE5valueEjE4typeEv
FN:231,234,_ZN12WPEFramework4Core11ProxyObjectINS0_7ServiceINS_6Plugin24AppGatewayImplementationEEEE12__InitializeIS5_EENS0_10TypeTraits9enable_ifIXntsrNS6_13hasInitializeIT_jJEEE5valueEjE4typeEv
FN:231,234,_ZN12WPEFramework4Core11ProxyObjectINS_3Web8ResponseEE12__InitializeIS3_EENS0_10TypeTraits9enable_ifIXntsrNS4_13hasInitializeIT_jJEEE5valueEjE4typeEv
FN:231,234,_ZN12WPEFramework4Core11ProxyObjectINS_6Plugin24AppGatewayImplementation10RespondJobEE12__InitializeIS4_EENS0_10TypeTraits9enable_ifIXntsrNS5_13hasInitializeIT_jJEEE5valueEjE4typeEv
FN:231,234,_ZN12WPEFramework4Core11ProxyObjectINS_6Plugin33AppGatewayResponderImplementation10RequestJobEE12__InitializeIS4_EENS0_10TypeTraits9enable_ifIXntsrNS5_13hasInitializeIT_jJEEE5valueEjE4typeEv
FN:231,234,_ZN12WPEFramework4Core11ProxyObjectINS_6Plugin33AppGatewayResponderImplementation10RespondJobEE12__InitializeIS4_EENS0_10TypeTraits9enable_ifIXntsrNS5_13hasInitializeIT_jJEEE5valueEjE4typeEv
FN:231,234,_ZN12WPEFramework4Core11ProxyObjectINS_6Plugin33AppGatewayResponderImplementation31ConnectionStatusNotificationJobEE12__InitializeIS4_EENS0_10TypeTraits9enable_ifIXntsrNS5_13hasInitializeIT_jJEEE5valueEjE4typeEv
FN:231,234,_ZN12WPEFramework4Core11ProxyObjectINS_6Plugin33AppGatewayResponderImplementation7EmitJobEE12__InitializeIS4_EENS0_10TypeTraits9enable_ifIXntsrNS5_13hasInitializeIT_jJEEE5valueEjE4typeEv
FN:231,234,_ZN12WPEFramework4Core11ProxyObjectINS_6Plugin33AppGatewayResponderImplementation8WsMsgJobEE12__InitializeIS4_EENS0_10TypeTraits9enable_ifIXntsrNS5_13hasInitializeIT_jJEEE5valueEjE4typeEv
FN:231,234,_ZN12WPEFramework4Core11ProxyObjectINS_6Plugin8MetadataINS2_10AppGatewayEE20PluginImplementationIS4_EEE12__InitializeIS7_EENS0_10TypeTraits9enable_ifIXntsrNS8_13hasInitializeIT_jJEEE5valueEjE4typeEv
FN:243,246,_ZN12WPEFramework4Core11ProxyObjectINS0_18ProxyContainerTypeINS0_13ProxyPoolTypeINS_3Web12JSONBodyTypeINS0_7JSONRPC7MessageEEEEES8_S8_EEE14__DeinitializeISA_EENS0_10TypeTraits9enable_ifIXsrNSB_15hasDeinitializeIT_vJEEE5valueEvE4typeEv
FN:243,246,_ZN12WPEFramework4Core11ProxyObjectINS0_18ProxyContainerTypeINS0_13ProxyPoolTypeINS_3Web7RequestEEES5_S5_EEE14__DeinitializeIS7_EENS0_10TypeTraits9enable_ifIXsrNS8_15hasDeinitializeIT_vJEEE5valueEvE4typeEv
FN:249,251,_ZN12WPEFramework4Core11ProxyObjectIN26WebSocketConnectionManager15WebSocketServerEE14__DeinitializeIS3_EENS0_10TypeTraits9enable_ifIXntsrNS4_15hasDeinitializeIT_vJEEE5valueEvE4typeEv
FN:249,251,_ZN12WPEFramework4Core11ProxyObjectINS0_15ServiceMetadataINS_6Plugin10AppGatewayEE21ServiceImplementationIS4_EEE14__DeinitializeIS7_EENS0_10TypeTraits9enable_ifIXntsrNS8_15hasDeinitializeIT_vJEEE5valueEvE4typeEv
FN:249,251,_ZN12WPEFramework4Core11ProxyObjectINS0_15ServiceMetadataINS_6Plugin24AppGatewayImplementationEE21ServiceImplementationIS4_EEE14__DeinitializeIS7_EENS0_10TypeTraits9enable_ifIXntsrNS8_15hasDeinitializeIT_vJEEE5valueEvE4typeEv
FN:249,251,_ZN12WPEFramework4Core11ProxyObjectINS0_15ServiceMetadataINS_6Plugin33AppGatewayResponderImplementationEE21ServiceImplementationIS4_EEE14__DeinitializeIS7_EENS0_10TypeTraits9enable_ifIXntsrNS8_15hasDeinitializeIT_vJEEE5valueEvE4typeEv
FN:249,251,_ZN12WPEFramework4Core11ProxyObjectINS0_7JSONRPC7MessageEE14__DeinitializeIS3_EENS0_10TypeTraits9enable_ifIXntsrNS4_15hasDeinitializeIT_vJEEE5valueEvE4typeEv
FN:249,251,_ZN12WPEFramework4Core11ProxyObjectINS0_7ServiceINS_6Plugin10AppGatewayEEEE14__DeinitializeIS5_EENS0_10TypeTraits9enable_ifIXntsrNS6_15hasDeinitializeIT_vJEEE5valueEvE4typeEv
FN:249,251,_ZN12WPEFramework4Core11ProxyObjectINS0_7ServiceINS_6Plugin24AppGatewayImplementationEEEE14__DeinitializeIS5_EENS0_10TypeTraits9enable_ifIXntsrNS6_15hasDeinitializeIT_vJEEE5valueEvE4typeEv
FN:249,251,_ZN12WPEFramework4Core11ProxyObjectINS_3Web8ResponseEE14__DeinitializeIS3_EENS0_10TypeTraits9enable_ifIXntsrNS4_15hasDeinitializeIT_vJEEE5valueEvE4typeEv
FN:249,251,_ZN12WPEFramework4Core11ProxyObjectINS_6Plugin24AppGatewayImplementation10RespondJobEE14__DeinitializeIS4_EENS0_10TypeTraits9enable_ifIXntsrNS5_15hasDeinitializeIT_vJEEE5valueEvE4typeEv
FN:249,251,_ZN12WPEFramework4Core11ProxyObjectINS_6Plugin33AppGatewayResponderImplementation10RequestJobEE14__DeinitializeIS4_EENS0_10TypeTraits9enable_ifIXntsrNS5_15hasDeinitializeIT_vJEEE5valueEvE4typeEv
FN:249,251,_ZN12WPEFramework4Core11ProxyObjectINS_6Plugin33AppGatewayResponderImplementation10RespondJobEE14__DeinitializeIS4_EENS0_10TypeTraits9enable_ifIXntsrNS5_15hasDeinitializeIT_vJEEE5valueEvE4typeEv
FN:249,251,_ZN12WPEFramework4Core11ProxyObjectINS_6Plugin33AppGatewayResponderImplementation31ConnectionStatusNotificationJobEE14__DeinitializeIS4_EENS0_10TypeTraits9enable_ifIXntsrNS5_15hasDeinitializeIT_vJEEE5valueEvE4typeEv
FN:249,251,_ZN12WPEFramework4Core11ProxyObjectINS_6Plugin33AppGatewayResponderImplementation7EmitJobEE14__DeinitializeIS4_EENS0_10TypeTraits9enable_ifIXntsrNS5_15hasDeinitializeIT_vJEEE5valueEvE4typeEv
FN:249,251,_ZN12WPEFramework4Core11ProxyObjectINS_6Plugin33AppGatewayResponderImplementation8WsMsgJobEE14__DeinitializeIS4_EENS0_10TypeTraits9enable_ifIXntsrNS5_15hasDeinitializeIT_vJEEE5valueEvE4typeEv
FN:249,251,_ZN12WPEFramework4Core11ProxyObjectINS_6Plugin8MetadataINS2_10AppGatewayEE20PluginImplementationIS4_EEE14__DeinitializeIS7_EENS0_10TypeTraits9enable_ifIXntsrNS8_15hasDeinitializeIT_vJEEE5valueEvE4typeEv
FN:260,263,_ZN12WPEFramework4Core11ProxyObjectINS0_15ServiceMetadataINS_6Plugin10AppGatewayEE21ServiceImplementationIS4_EEE12__DestructedIS7_EENS0_10TypeTraits9enable_ifIXsrNS8_13hasDestructedIT_vJEEE5valueEvE4typeEv
FN:260,263,_ZN12WPEFramework4Core11ProxyObjectINS0_15ServiceMetadataINS_6Plugin24AppGatewayImplementationEE21ServiceImplementationIS4_EEE12__DestructedIS7_EENS0_10TypeTraits9enable_ifIXsrNS8_13hasDestructedIT_vJEEE5valueEvE4typeEv
FN:260,263,_ZN12WPEFramework4Core11ProxyObjectINS0_15ServiceMetadataINS_6Plugin33AppGatewayResponderImplementationEE21ServiceImplementationIS4_EEE12__DestructedIS7_EENS0_10TypeTraits9enable_ifIXsrNS8_13hasDestructedIT_vJEEE5valueEvE4typeEv
FN:260,263,_ZN12WPEFramework4Core11ProxyObjectINS_6Plugin8MetadataINS2_10AppGatewayEE20PluginImplementationIS4_EEE12__DestructedIS7_EENS0_10TypeTraits9enable_ifIXsrNS8_13hasDestructedIT_vJEEE5valueEvE4typeEv
FN:266,268,_ZN12WPEFramework4Core11ProxyObjectIN26WebSocketConnectionManager15WebSocketServerEE12__DestructedIS3_EENS0_10TypeTraits9enable_ifIXntsrNS4_13hasDestructedIT_vJEEE5valueEvE4typeEv
FN:266,268,_ZN12WPEFramework4Core11ProxyObjectINS0_18ProxyContainerTypeINS0_13ProxyPoolTypeINS_3Web12JSONBodyTypeINS0_7JSONRPC7MessageEEEEES8_S8_EEE12__DestructedISA_EENS0_10TypeTraits9enable_ifIXntsrNSB_13hasDestructedIT_vJEEE5valueEvE4typeEv
FN:266,268,_ZN12WPEFramework4Core11ProxyObjectINS0_18ProxyContainerTypeINS0_13ProxyPoolTypeINS_3Web7RequestEEES5_S5_EEE12__DestructedIS7_EENS0_10TypeTraits9enable_ifIXntsrNS8_13hasDestructedIT_vJEEE5valueEvE4typeEv
FN:266,268,_ZN12WPEFramework4Core11ProxyObjectINS0_7JSONRPC7MessageEE12__DestructedIS3_EENS0_10TypeTraits9enable_ifIXntsrNS4_13hasDestructedIT_vJEEE5valueEvE4typeEv
FN:266,268,_ZN12WPEFramework4Core11ProxyObjectINS0_7ServiceINS_6Plugin10AppGatewayEEEE12__DestructedIS5_EENS0_10TypeTraits9enable_ifIXntsrNS6_13hasDestructedIT_vJEEE5valueEvE4typeEv
FN:266,268,_ZN12WPEFramework4Core11ProxyObjectINS0_7ServiceINS_6Plugin24AppGatewayImplementationEEEE12__DestructedIS5_EENS0_10TypeTraits9enable_ifIXntsrNS6_13hasDestructedIT_vJEEE5valueEvE4typeEv
FN:266,268,_ZN12WPEFramework4Core11ProxyObjectINS_3Web8ResponseEE12__DestructedIS3_EENS0_10TypeTraits9enable_ifIXntsrNS4_13hasDestructedIT_vJEEE5valueEvE4typeEv
FN:266,268,_ZN12WPEFramework4Core11ProxyObjectINS_6Plugin24AppGatewayImplementation10RespondJobEE12__DestructedIS4_EENS0_10TypeTraits9enable_ifIXntsrNS5_13hasDestructedIT_vJEEE5valueEvE4typeEv
FN:266,268,_ZN12WPEFramework4Core11ProxyObjectINS_6Plugin33AppGatewayResponderImplementation10RequestJobEE12__DestructedIS4_EENS0_10TypeTraits9enable_ifIXntsrNS5_13hasDestructedIT_vJEEE5valueEvE4typeEv
FN:266,268,_ZN12WPEFramework4Core11ProxyObjectINS_6Plugin33AppGatewayResponderImplementation10RespondJobEE12__DestructedIS4_EENS0_10TypeTraits9enable_ifIXntsrNS5_13hasDestructedIT_vJEEE5valueEvE4typeEv
FN:266,268,_ZN12WPEFramework4Core11ProxyObjectINS_6Plugin33AppGatewayResponderImplementation31ConnectionStatusNotificationJobEE12__DestructedIS4_EENS0_10TypeTraits9enable_ifIXntsrNS5_13hasDestructedIT_vJEEE5valueEvE4typeEv
FN:266,268,_ZN12WPEFramework4Core11ProxyObjectINS_6Plugin33AppGatewayResponderImplementation7EmitJobEE12__DestructedIS4_EENS0_10TypeTraits9enable_ifIXntsrNS5_13hasDestructedIT_vJEEE5valueEvE4typeEv
FN:266,268,_ZN12WPEFramework4Core11ProxyObjectINS_6Plugin33AppGatewayResponderImplementation8WsMsgJobEE12__DestructedIS4_EENS0_10TypeTraits9enable_ifIXntsrNS5_13hasDestructedIT_vJEEE5valueEvE4typeEv
FN:278,281,_ZNK12WPEFramework4Core11ProxyObjectINS0_18ProxyContainerTypeINS0_13ProxyPoolTypeINS_3Web12JSONBodyTypeINS0_7JSONRPC7MessageEEEEES8_S8_EEE15__IsInitializedISA_EENS0_10TypeTraits9enable_ifIXsrNSB_16hasIsInitializedIKT_bJEEE5valueEbE4typeEv
FN:278,281,_ZNK12WPEFramework4Core11ProxyObjectINS0_18ProxyContainerTypeINS0_13ProxyPoolTypeINS_3Web7RequestEEES5_S5_EEE15__IsInitializedIS7_EENS0_10TypeTraits9enable_ifIXsrNS8_16hasIsInitializedIKT_bJEEE5valueEbE4typeEv
FN:284,287,_ZNK12WPEFramework4Core11ProxyObjectIN26WebSocketConnectionManager15WebSocketServerEE15__IsInitializedIS3_EENS0_10TypeTraits9enable_ifIXntsrNS4_16hasIsInitializedIKT_bJEEE5valueEbE4typeEv
FN:284,287,_ZNK12WPEFramework4Core11ProxyObjectINS0_15ServiceMetadataINS_6Plugin10AppGatewayEE21ServiceImplementationIS4_EEE15__IsInitializedIS7_EENS0_10TypeTraits9enable_ifIXntsrNS8_16hasIsInitializedIKT_bJEEE5valueEbE4typeEv
FN:284,287,_ZNK12WPEFramework4Core11ProxyObjectINS0_15ServiceMetadataINS_6Plugin24AppGatewayImplementationEE21ServiceImplementationIS4_EEE15__IsInitializedIS7_EENS0_10TypeTraits9enable_ifIXntsrNS8_16hasIsInitializedIKT_bJEEE5valueEbE4typeEv
FN:284,287,_ZNK12WPEFramework4Core11ProxyObjectINS0_15ServiceMetadataINS_6Plugin33AppGatewayResponderImplementationEE21ServiceImplementationIS4_EEE15__IsInitializedIS7_EENS0_10TypeTraits9enable_ifIXntsrNS8_16hasIsInitializedIKT_bJEEE5valueEbE4typeEv
FN:284,287,_ZNK12WPEFramework4Core11ProxyObjectINS0_7JSONRPC7MessageEE15__IsInitializedIS3_EENS0_10TypeTraits9enable_ifIXntsrNS4_16hasIsInitializedIKT_bJEEE5valueEbE4typeEv
FN:284,287,_ZNK12WPEFramework4Core11ProxyObjectINS0_7ServiceINS_6Plugin10AppGatewayEEEE15__IsInitializedIS5_EENS0_10TypeTraits9enable_ifIXntsrNS6_16hasIsInitializedIKT_bJEEE5valueEbE4typeEv
FN:284,287,_ZNK12WPEFramework4Core11ProxyObjectINS0_7ServiceINS_6Plugin24AppGatewayImplementationEEEE15__IsInitializedIS5_EENS0_10TypeTraits9enable_ifIXntsrNS6_16hasIsInitializedIKT_bJEEE5valueEbE4typeEv
FN:284,287,_ZNK12WPEFramework4Core11ProxyObjectINS_3Web8ResponseEE15__IsInitializedIS3_EENS0_10TypeTraits9enable_ifIXntsrNS4_16hasIsInitializedIKT_bJEEE5valueEbE4typeEv
FN:284,287,_ZNK12WPEFramework4Core11ProxyObjectINS_6Plugin24AppGatewayImplementation10RespondJobEE15__IsInitializedIS4_EENS0_10TypeTraits9enable_ifIXntsrNS5_16hasIsInitializedIKT_bJEEE5valueEbE4typeEv
FN:284,287,_ZNK12WPEFramework4Core11ProxyObjectINS_6Plugin33AppGatewayResponderImplementation10RequestJobEE15__IsInitializedIS4_EENS0_10TypeTraits9enable_ifIXntsrNS5_16hasIsInitializedIKT_bJEEE5valueEbE4typeEv
FN:284,287,_ZNK12WPEFramework4Core11ProxyObjectINS_6Plugin33AppGatewayResponderImplementation10RespondJobEE15__IsInitializedIS4_EENS0_10TypeTraits9enable_ifIXntsrNS5_16hasIsInitializedIKT_bJEEE5valueEbE4typeEv
FN:284,287,_ZNK12WPEFramework4Core11ProxyObjectINS_6Plugin33AppGatewayResponderImplementation31ConnectionStatusNotificationJobEE15__IsInitializedIS4_EENS0_10TypeTraits9enable_ifIXntsrNS5_16hasIsInitializedIKT_bJEEE5valueEbE4typeEv
FN:284,287,_ZNK12WPEFramework4Core11ProxyObjectINS_6Plugin33AppGatewayResponderImplementation7EmitJobEE15__IsInitializedIS4_EENS0_10TypeTraits9enable_ifIXntsrNS5_16hasIsInitializedIKT_bJEEE5valueEbE4typeEv
FN:284,287,_ZNK12WPEFramework4Core11ProxyObjectINS_6Plugin33AppGatewayResponderImplementation8WsMsgJobEE15__IsInitializedIS4_EENS0_10TypeTraits9enable_ifIXntsrNS5_16hasIsInitializedIKT_bJEEE5valueEbE4typeEv
FN:284,287,_ZNK12WPEFramework4Core11ProxyObjectINS_6Plugin8MetadataINS2_10AppGatewayEE20PluginImplementationIS4_EEE15__IsInitializedIS7_EENS0_10TypeTraits9enable_ifIXntsrNS8_16hasIsInitializedIKT_bJEEE5valueEbE4typeEv
FN:296,302,_ZN12WPEFramework4Core11ProxyObjectINS0_18ProxyContainerTypeINS0_13ProxyPoolTypeINS_3Web12JSONBodyTypeINS0_7JSONRPC7MessageEEEEES8_S8_EEE9__AcquireISA_EENS0_10TypeTraits9enable_ifIXsrNSB_10hasAcquireIT_vJRNS0_9ProxyTypeISG_EEEEE5valueEvE4typeEv
FN:296,302,_ZN12WPEFramework4Core11ProxyObjectINS0_18ProxyContainerTypeINS0_13ProxyPoolTypeINS_3Web7RequestEEES5_S5_EEE9__AcquireIS7_EENS0_10TypeTraits9enable_ifIXsrNS8_10hasAcquireIT_vJRNS0_9ProxyTypeISD_EEEEE5valueEvE4typeEv
FN:305,307,_ZN12WPEFramework4Core11ProxyObjectIN26WebSocketConnectionManager15WebSocketServerEE9__AcquireIS3_EENS0_10TypeTraits9enable_ifIXntsrNS4_10hasAcquireIT_vJRNS0_9ProxyTypeIS9_EEEEE5valueEvE4typeEv
FN:305,307,_ZN12WPEFramework4Core11ProxyObjectINS0_15ServiceMetadataINS_6Plugin10AppGatewayEE21ServiceImplementationIS4_EEE9__AcquireIS7_EENS0_10TypeTraits9enable_ifIXntsrNS8_10hasAcquireIT_vJRNS0_9ProxyTypeISD_EEEEE5valueEvE4typeEv
FN:305,307,_ZN12WPEFramework4Core11ProxyObjectINS0_15ServiceMetadataINS_6Plugin24AppGatewayImplementationEE21ServiceImplementationIS4_EEE9__AcquireIS7_EENS0_10TypeTraits9enable_ifIXntsrNS8_10hasAcquireIT_vJRNS0_9ProxyTypeISD_EEEEE5valueEvE4typeEv
FN:305,307,_ZN12WPEFramework4Core11ProxyObjectINS0_15ServiceMetadataINS_6Plugin33AppGatewayResponderImplementationEE21ServiceImplementationIS4_EEE9__AcquireIS7_EENS0_10TypeTraits9enable_ifIXntsrNS8_10hasAcquireIT_vJRNS0_9ProxyTypeISD_EEEEE5valueEvE4typeEv
FN:305,307,_ZN12WPEFramework4Core11ProxyObjectINS0_7JSONRPC7MessageEE9__AcquireIS3_EENS0_10TypeTraits9enable_ifIXntsrNS4_10hasAcquireIT_vJRNS0_9ProxyTypeIS9_EEEEE5valueEvE4typeEv
FN:305,307,_ZN12WPEFramework4Core11ProxyObjectINS0_7ServiceINS_6Plugin10AppGatewayEEEE9__AcquireIS5_EENS0_10TypeTraits9enable_ifIXntsrNS6_10hasAcquireIT_vJRNS0_9ProxyTypeISB_EEEEE5valueEvE4typeEv
FN:305,307,_ZN12WPEFramework4Core11ProxyObjectINS0_7ServiceINS_6Plugin24AppGatewayImplementationEEEE9__AcquireIS5_EENS0_10TypeTraits9enable_ifIXntsrNS6_10hasAcquireIT_vJRNS0_9ProxyTypeISB_EEEEE5valueEvE4typeEv
FN:305,307,_ZN12WPEFramework4Core11ProxyObjectINS_3Web8ResponseEE9__AcquireIS3_EENS0_10TypeTraits9enable_ifIXntsrNS4_10hasAcquireIT_vJRNS0_9ProxyTypeIS9_EEEEE5valueEvE4typeEv
FN:305,307,_ZN12WPEFramework4Core11ProxyObjectINS_6Plugin24AppGatewayImplementation10RespondJobEE9__AcquireIS4_EENS0_10TypeTraits9enable_ifIXntsrNS5_10hasAcquireIT_vJRNS0_9ProxyTypeISA_EEEEE5valueEvE4typeEv
FN:305,307,_ZN12WPEFramework4Core11ProxyObjectINS_6Plugin33AppGatewayResponderImplementation10RequestJobEE9__AcquireIS4_EENS0_10TypeTraits9enable_ifIXntsrNS5_10hasAcquireIT_vJRNS0_9ProxyTypeISA_EEEEE5valueEvE4typeEv
FN:305,307,_ZN12WPEFramework4Core11ProxyObjectINS_6Plugin33AppGatewayResponderImplementation10RespondJobEE9__AcquireIS4_EENS0_10TypeTraits9enable_ifIXntsrNS5_10hasAcquireIT_vJRNS0_9ProxyTypeISA_EEEEE5valueEvE4typeEv
FN:305,307,_ZN12WPEFramework4Core11ProxyObjectINS_6Plugin33AppGatewayResponderImplementation31ConnectionStatusNotificationJobEE9__AcquireIS4_EENS0_10TypeTraits9enable_ifIXntsrNS5_10hasAcquireIT_vJRNS0_9ProxyTypeISA_EEEEE5valueEvE4typeEv
FN:305,307,_ZN12WPEFramework4Core11ProxyObjectINS_6Plugin33AppGatewayResponderImplementation7EmitJobEE9__AcquireIS4_EENS0_10TypeTraits9enable_ifIXntsrNS5_10hasAcquireIT_vJRNS0_9ProxyTypeISA_EEEEE5valueEvE4typeEv
FN:305,307,_ZN12WPEFramework4Core11ProxyObjectINS_6Plugin33AppGatewayResponderImplementation8WsMsgJobEE9__AcquireIS4_EENS0_10TypeTraits9enable_ifIXntsrNS5_10hasAcquireIT_vJRNS0_9ProxyTypeISA_EEEEE5valueEvE4typeEv
FN:305,307,_ZN12WPEFramework4Core11ProxyObjectINS_6Plugin8MetadataINS2_10AppGatewayEE20PluginImplementationIS4_EEE9__AcquireIS7_EENS0_10TypeTraits9enable_ifIXntsrNS8_10hasAcquireIT_vJRNS0_9ProxyTypeISD_EEEEE5valueEvE4typeEv
FN:316,322,_ZN12WPEFramework4Core11ProxyObjectINS0_18ProxyContainerTypeINS0_13ProxyPoolTypeINS_3Web12JSONBodyTypeINS0_7JSONRPC7MessageEEEEES8_S8_EEE12__RelinquishISA_EENS0_10TypeTraits9enable_ifIXsrNSB_13hasRelinquishIT_vJRNS0_9ProxyTypeISG_EEEEE5valueEvE4typeEv
FN:316,322,_ZN12WPEFramework4Core11ProxyObjectINS0_18ProxyContainerTypeINS0_13ProxyPoolTypeINS_3Web7RequestEEES5_S5_EEE12__RelinquishIS7_EENS0_10TypeTraits9enable_ifIXsrNS8_13hasRelinquishIT_vJRNS0_9ProxyTypeISD_EEEEE5valueEvE4typeEv
FN:325,327,_ZN12WPEFramework4Core11ProxyObjectIN26WebSocketConnectionManager15WebSocketServerEE12__RelinquishIS3_EENS0_10TypeTraits9enable_ifIXntsrNS4_13hasRelinquishIT_vJRNS0_9ProxyTypeIS9_EEEEE5valueEvE4typeEv
FN:325,327,_ZN12WPEFramework4Core11ProxyObjectINS0_15ServiceMetadataINS_6Plugin10AppGatewayEE21ServiceImplementationIS4_EEE12__RelinquishIS7_EENS0_10TypeTraits9enable_ifIXntsrNS8_13hasRelinquishIT_vJRNS0_9ProxyTypeISD_EEEEE5valueEvE4typeEv
FN:325,327,_ZN12WPEFramework4Core11ProxyObjectINS0_15ServiceMetadataINS_6Plugin24AppGatewayImplementationEE21ServiceImplementationIS4_EEE12__RelinquishIS7_EENS0_10TypeTraits9enable_ifIXntsrNS8_13hasRelinquishIT_vJRNS0_9ProxyTypeISD_EEEEE5valueEvE4typeEv
FN:325,327,_ZN12WPEFramework4Core11ProxyObjectINS0_15ServiceMetadataINS_6Plugin33AppGatewayResponderImplementationEE21ServiceImplementationIS4_EEE12__RelinquishIS7_EENS0_10TypeTraits9enable_ifIXntsrNS8_13hasRelinquishIT_vJRNS0_9ProxyTypeISD_EEEEE5valueEvE4typeEv
FN:325,327,_ZN12WPEFramework4Core11ProxyObjectINS0_7JSONRPC7MessageEE12__RelinquishIS3_EENS0_10TypeTraits9enable_ifIXntsrNS4_13hasRelinquishIT_vJRNS0_9ProxyTypeIS9_EEEEE5valueEvE4typeEv
FN:325,327,_ZN12WPEFramework4Core11ProxyObjectINS0_7ServiceINS_6Plugin10AppGatewayEEEE12__RelinquishIS5_EENS0_10TypeTraits9enable_ifIXntsrNS6_13hasRelinquishIT_vJRNS0_9ProxyTypeISB_EEEEE5valueEvE4typeEv
FN:325,327,_ZN12WPEFramework4Core11ProxyObjectINS0_7ServiceINS_6Plugin24AppGatewayImplementationEEEE12__RelinquishIS5_EENS0_10TypeTraits9enable_ifIXntsrNS6_13hasRelinquishIT_vJRNS0_9ProxyTypeISB_EEEEE5valueEvE4typeEv
FN:325,327,_ZN12WPEFramework4Core11ProxyObjectINS_3Web8ResponseEE12__RelinquishIS3_EENS0_10TypeTraits9enable_ifIXntsrNS4_13hasRelinquishIT_vJRNS0_9ProxyTypeIS9_EEEEE5valueEvE4typeEv
FN:325,327,_ZN12WPEFramework4Core11ProxyObjectINS_6Plugin24AppGatewayImplementation10RespondJobEE12__RelinquishIS4_EENS0_10TypeTraits9enable_ifIXntsrNS5_13hasRelinquishIT_vJRNS0_9ProxyTypeISA_EEEEE5valueEvE4typeEv
FN:325,327,_ZN12WPEFramework4Core11ProxyObjectINS_6Plugin33AppGatewayResponderImplementation10RequestJobEE12__RelinquishIS4_EENS0_10TypeTraits9enable_ifIXntsrNS5_13hasRelinquishIT_vJRNS0_9ProxyTypeISA_EEEEE5valueEvE4typeEv
FN:325,327,_ZN12WPEFramework4Core11ProxyObjectINS_6Plugin33AppGatewayResponderImplementation10RespondJobEE12__RelinquishIS4_EENS0_10TypeTraits9enable_ifIXntsrNS5_13hasRelinquishIT_vJRNS0_9ProxyTypeISA_EEEEE5valueEvE4typeEv
FN:325,327,_ZN12WPEFramework4Core11ProxyObjectINS_6Plugin33AppGatewayResponderImplementation31ConnectionStatusNotificationJobEE12__RelinquishIS4_EENS0_10TypeTraits9enable_ifIXntsrNS5_13hasRelinquishIT_vJRNS0_9ProxyTypeISA_EEEEE5valueEvE4typeEv
FN:325,327,_ZN12WPEFramework4Core11ProxyObjectINS_6Plugin33AppGatewayResponderImplementation7EmitJobEE12__RelinquishIS4_EENS0_10TypeTraits9enable_ifIXntsrNS5_13hasRelinquishIT_vJRNS0_9ProxyTypeISA_EEEEE5valueEvE4typeEv
FN:325,327,_ZN12WPEFramework4Core11ProxyObjectINS_6Plugin33AppGatewayResponderImplementation8WsMsgJobEE12__RelinquishIS4_EENS0_10TypeTraits9enable_ifIXntsrNS5_13hasRelinquishIT_vJRNS0_9ProxyTypeISA_EEEEE5valueEvE4typeEv
FN:325,327,_ZN12WPEFramework4Core11ProxyObjectINS_6Plugin8MetadataINS2_10AppGatewayEE20PluginImplementationIS4_EEE12__RelinquishIS7_EENS0_10TypeTraits9enable_ifIXntsrNS8_13hasRelinquishIT_vJRNS0_9ProxyTypeISD_EEEEE5valueEvE4typeEv
FN:354,362,_ZN12WPEFramework4Core9ProxyTypeINS0_18ProxyContainerTypeINS0_13ProxyPoolTypeINS_3Web12JSONBodyTypeINS0_7JSONRPC7MessageEEEEES8_S8_EEE4LoadISA_EEvRNS0_11ProxyObjectIT_EE
FN:354,362,_ZN12WPEFramework4Core9ProxyTypeINS0_18ProxyContainerTypeINS0_13ProxyPoolTypeINS_3Web7RequestEEES5_S5_EEE4LoadIS7_EEvRNS0_11ProxyObjectIT_EE
FN:363,367,_ZN12WPEFramework4Core9ProxyTypeINS0_18ProxyContainerTypeINS0_13ProxyPoolTypeINS_3Web12JSONBodyTypeINS0_7JSONRPC7MessageEEEEES8_S8_EEE5ResetEv
FN:363,367,_ZN12WPEFramework4Core9ProxyTypeINS0_18ProxyContainerTypeINS0_13ProxyPoolTypeINS_3Web7RequestEEES5_S5_EEE5ResetEv
FN:363,367,_ZN12WPEFramework4Core9ProxyTypeINS0_4JSON8IElementEE5ResetEv
FN:363,367,_ZN12WPEFramework4Core9ProxyTypeINS0_7JSONRPC7MessageEE5ResetEv
FN:363,367,_ZN12WPEFramework4Core9ProxyTypeINS_3Web12JSONBodyTypeINS0_7JSONRPC7MessageEEEE5ResetEv
FN:363,367,_ZN12WPEFramework4Core9ProxyTypeINS_3Web7RequestEE5ResetEv
FN:363,367,_ZN12WPEFramework4Core9ProxyTypeINS_3Web8ResponseEE5ResetEv
FN:363,367,_ZN12WPEFramework4Core9ProxyTypeINS_6Plugin24AppGatewayImplementation10RespondJobEE5ResetEv
FN:363,367,_ZN12WPEFramework4Core9ProxyTypeINS_6Plugin33AppGatewayResponderImplementation10RequestJobEE5ResetEv
FN:363,367,_ZN12WPEFramework4Core9ProxyTypeINS_6Plugin33AppGatewayResponderImplementation10RespondJobEE5ResetEv
FN:363,367,_ZN12WPEFramework4Core9ProxyTypeINS_6Plugin33AppGatewayResponderImplementation31ConnectionStatusNotificationJobEE5ResetEv
FN:363,367,_ZN12WPEFramework4Core9ProxyTypeINS_6Plugin33AppGatewayResponderImplementation7EmitJobEE5ResetEv
FN:363,367,_ZN12WPEFramework4Core9ProxyTypeINS_6Plugin33AppGatewayResponderImplementation8WsMsgJobEE5ResetEv
FN:368,380,_ZN12WPEFramework4Core9ProxyTypeINS0_4JSON8IElementEEC2EPNS0_17IReferenceCountedE
FN:368,380,_ZN12WPEFramework4Core9ProxyTypeINS0_7JSONRPC7MessageEEC2EPNS0_17IReferenceCountedE
FN:368,380,_ZN12WPEFramework4Core9ProxyTypeINS_3Web8ResponseEEC2EPNS0_17IReferenceCountedE
FN:383,387,_ZN12WPEFramework4Core9ProxyTypeIN26WebSocketConnectionManager15WebSocketServerEEC2Ev
FN:383,387,_ZN12WPEFramework4Core9ProxyTypeINS0_18ProxyContainerTypeINS0_13ProxyPoolTypeINS_3Web12JSONBodyTypeINS0_7JSONRPC7MessageEEEEES8_S8_EEEC2Ev
FN:383,387,_ZN12WPEFramework4Core9ProxyTypeINS0_18ProxyContainerTypeINS0_13ProxyPoolTypeINS_3Web7RequestEEES5_S5_EEEC2Ev
FN:383,387,_ZN12WPEFramework4Core9ProxyTypeINS0_4JSON8IElementEEC2Ev
FN:383,387,_ZN12WPEFramework4Core9ProxyTypeINS0_9IDispatchEEC2Ev
FN:383,387,_ZN12WPEFramework4Core9ProxyTypeINS_3Web12JSONBodyTypeINS0_7JSONRPC7MessageEEEEC2Ev
FN:383,387,_ZN12WPEFramework4Core9ProxyTypeINS_3Web5IBodyEEC2Ev
FN:383,387,_ZN12WPEFramework4Core9ProxyTypeINS_3Web7RequestEEC2Ev
FN:383,387,_ZN12WPEFramework4Core9ProxyTypeINS_3Web8ResponseEEC2Ev
FN:394,399,_ZN12WPEFramework4Core9ProxyTypeIN26WebSocketConnectionManager15WebSocketServerEEC2ERNS0_11ProxyObjectIS3_EE
FN:394,399,_ZN12WPEFramework4Core9ProxyTypeINS0_15ServiceMetadataINS_6Plugin10AppGatewayEE21ServiceImplementationIS4_EEEC2ERNS0_11ProxyObjectIS7_EE
FN:394,399,_ZN12WPEFramework4Core9ProxyTypeINS0_15ServiceMetadataINS_6Plugin24AppGatewayImplementationEE21ServiceImplementationIS4_EEEC2ERNS0_11ProxyObjectIS7_EE
FN:394,399,_ZN12WPEFramework4Core9ProxyTypeINS0_15ServiceMetadataINS_6Plugin33AppGatewayResponderImplementationEE21ServiceImplementationIS4_EEEC2ERNS0_11ProxyObjectIS7_EE
FN:394,399,_ZN12WPEFramework4Core9ProxyTypeINS0_18ProxyContainerTypeINS0_13ProxyPoolTypeINS_3Web12JSONBodyTypeINS0_7JSONRPC7MessageEEEEES8_S8_EEEC2ERNS0_11ProxyObjectISA_EE
FN:394,399,_ZN12WPEFramework4Core9ProxyTypeINS0_18ProxyContainerTypeINS0_13ProxyPoolTypeINS_3Web7RequestEEES5_S5_EEEC2ERNS0_11ProxyObjectIS7_EE
FN:394,399,_ZN12WPEFramework4Core9ProxyTypeINS0_7JSONRPC7MessageEEC2ERNS0_11ProxyObjectIS3_EE
FN:394,399,_ZN12WPEFramework4Core9ProxyTypeINS0_7ServiceINS_6Plugin10AppGatewayEEEEC2ERNS0_11ProxyObjectIS5_EE
FN:394,399,_ZN12WPEFramework4Core9ProxyTypeINS0_7ServiceINS_6Plugin24AppGatewayImplementationEEEEC2ERNS0_11ProxyObjectIS5_EE
FN:394,399,_ZN12WPEFramework4Core9ProxyTypeINS_3Web8ResponseEEC2ERNS0_11ProxyObjectIS3_EE
FN:394,399,_ZN12WPEFramework4Core9ProxyTypeINS_6Plugin24AppGatewayImplementation10RespondJobEEC2ERNS0_11ProxyObjectIS4_EE
FN:394,399,_ZN12WPEFramework4Core9ProxyTypeINS_6Plugin33AppGatewayResponderImplementation10RequestJobEEC2ERNS0_11ProxyObjectIS4_EE
FN:394,399,_ZN12WPEFramework4Core9ProxyTypeINS_6Plugin33AppGatewayResponderImplementation10RespondJobEEC2ERNS0_11ProxyObjectIS4_EE
FN:394,399,_ZN12WPEFramework4Core9ProxyTypeINS_6Plugin33AppGatewayResponderImplementation31ConnectionStatusNotificationJobEEC2ERNS0_11ProxyObjectIS4_EE
FN:394,399,_ZN12WPEFramework4Core9ProxyTypeINS_6Plugin33AppGatewayResponderImplementation7EmitJobEEC2ERNS0_11ProxyObjectIS4_EE
FN:394,399,_ZN12WPEFramework4Core9ProxyTypeINS_6Plugin33AppGatewayResponderImplementation8WsMsgJobEEC2ERNS0_11ProxyObjectIS4_EE
FN:394,399,_ZN12WPEFramework4Core9ProxyTypeINS_6Plugin8MetadataINS2_10AppGatewayEE20PluginImplementationIS4_EEEC2ERNS0_11ProxyObjectIS7_EE
FN:409,412,_ZN12WPEFramework4Core9ProxyTypeINS0_4JSON8IElementEEC2INS0_7JSONRPC7MessageEEERKNS1_IT_EE
FN:409,412,_ZN12WPEFramework4Core9ProxyTypeINS0_4JSON8IElementEEC2INS_3Web12JSONBodyTypeINS0_7JSONRPC7MessageEEEEERKNS1_IT_EE
FN:409,412,_ZN12WPEFramework4Core9ProxyTypeINS0_7JSONRPC7MessageEEC2INS0_4JSON8IElementEEERKNS1_IT_EE
FN:409,412,_ZN12WPEFramework4Core9ProxyTypeINS_3Web12JSONBodyTypeINS0_7JSONRPC7MessageEEEEC2INS0_18ProxyContainerTypeINS0_13ProxyPoolTypeIS6_EES6_S6_EEEERKNS1_IT_EE
FN:409,412,_ZN12WPEFramework4Core9ProxyTypeINS_3Web7RequestEEC2INS0_18ProxyContainerTypeINS0_13ProxyPoolTypeIS3_EES3_S3_EEEERKNS1_IT_EE
FN:414,417,_ZN12WPEFramework4Core9ProxyTypeINS0_7JSONRPC7MessageEEC2INS_3Web12JSONBodyTypeIS3_EEEEONS1_IT_EE
FN:414,417,_ZN12WPEFramework4Core9ProxyTypeINS0_9IDispatchEEC2INS_6Plugin24AppGatewayImplementation10RespondJobEEEONS1_IT_EE
FN:414,417,_ZN12WPEFramework4Core9ProxyTypeINS0_9IDispatchEEC2INS_6Plugin33AppGatewayResponderImplementation10RequestJobEEEONS1_IT_EE
FN:414,417,_ZN12WPEFramework4Core9ProxyTypeINS0_9IDispatchEEC2INS_6Plugin33AppGatewayResponderImplementation10RespondJobEEEONS1_IT_EE
FN:414,417,_ZN12WPEFramework4Core9ProxyTypeINS0_9IDispatchEEC2INS_6Plugin33AppGatewayResponderImplementation31ConnectionStatusNotificationJobEEEONS1_IT_EE
FN:414,417,_ZN12WPEFramework4Core9ProxyTypeINS0_9IDispatchEEC2INS_6Plugin33AppGatewayResponderImplementation7EmitJobEEEONS1_IT_EE
FN:414,417,_ZN12WPEFramework4Core9ProxyTypeINS0_9IDispatchEEC2INS_6Plugin33AppGatewayResponderImplementation8WsMsgJobEEEONS1_IT_EE
FN:418,427,_ZN12WPEFramework4Core9ProxyTypeIN26WebSocketConnectionManager15WebSocketServerEEC2ERKS4_
FN:418,427,_ZN12WPEFramework4Core9ProxyTypeINS0_4JSON8IElementEEC2ERKS4_
FN:418,427,_ZN12WPEFramework4Core9ProxyTypeINS0_9IDispatchEEC2ERKS3_
FN:418,427,_ZN12WPEFramework4Core9ProxyTypeINS_3Web8ResponseEEC2ERKS4_
FN:428,433,_ZN12WPEFramework4Core9ProxyTypeIN26WebSocketConnectionManager15WebSocketServerEEC2EOS4_
FN:428,433,_ZN12WPEFramework4Core9ProxyTypeINS0_18ProxyContainerTypeINS0_13ProxyPoolTypeINS_3Web12JSONBodyTypeINS0_7JSONRPC7MessageEEEEES8_S8_EEEC2EOSB_
FN:428,433,_ZN12WPEFramework4Core9ProxyTypeINS0_18ProxyContainerTypeINS0_13ProxyPoolTypeINS_3Web7RequestEEES5_S5_EEEC2EOS8_
FN:434,439,_ZN12WPEFramework4Core9ProxyTypeIN26WebSocketConnectionManager15WebSocketServerEED2Ev
FN:434,439,_ZN12WPEFramework4Core9ProxyTypeINS0_15ServiceMetadataINS_6Plugin10AppGatewayEE21ServiceImplementationIS4_EEED2Ev
FN:434,439,_ZN12WPEFramework4Core9ProxyTypeINS0_15ServiceMetadataINS_6Plugin24AppGatewayImplementationEE21ServiceImplementationIS4_EEED2Ev
FN:434,439,_ZN12WPEFramework4Core9ProxyTypeINS0_15ServiceMetadataINS_6Plugin33AppGatewayResponderImplementationEE21ServiceImplementationIS4_EEED2Ev
FN:434,439,_ZN12WPEFramework4Core9ProxyTypeINS0_18ProxyContainerTypeINS0_13ProxyPoolTypeINS_3Web12JSONBodyTypeINS0_7JSONRPC7MessageEEEEES8_S8_EEED2Ev
FN:434,439,_ZN12WPEFramework4Core9ProxyTypeINS0_18ProxyContainerTypeINS0_13ProxyPoolTypeINS_3Web7RequestEEES5_S5_EEED2Ev
FN:434,439,_ZN12WPEFramework4Core9ProxyTypeINS0_4JSON8IElementEED2Ev
FN:434,439,_ZN12WPEFramework4Core9ProxyTypeINS0_7JSONRPC7MessageEED2Ev
FN:434,439,_ZN12WPEFramework4Core9ProxyTypeINS0_7ServiceINS_6Plugin10AppGatewayEEEED2Ev
FN:434,439,_ZN12WPEFramework4Core9ProxyTypeINS0_7ServiceINS_6Plugin24AppGatewayImplementationEEEED2Ev
FN:434,439,_ZN12WPEFramework4Core9ProxyTypeINS0_9IDispatchEED2Ev
FN:434,439,_ZN12WPEFramework4Core9ProxyTypeINS_3Web12JSONBodyTypeINS0_7JSONRPC7MessageEEEED2Ev
FN:434,439,_ZN12WPEFramework4Core9ProxyTypeINS_3Web5IBodyEED2Ev
FN:434,439,_ZN12WPEFramework4Core9ProxyTypeINS_3Web7RequestEED2Ev
FN:434,439,_ZN12WPEFramework4Core9ProxyTypeINS_3Web8ResponseEED2Ev
FN:434,439,_ZN12WPEFramework4Core9ProxyTypeINS_6Plugin24AppGatewayImplementation10RespondJobEED2Ev
FN:434,439,_ZN12WPEFramework4Core9ProxyTypeINS_6Plugin33AppGatewayResponderImplementation10RequestJobEED2Ev
FN:434,439,_ZN12WPEFramework4Core9ProxyTypeINS_6Plugin33AppGatewayResponderImplementation10RespondJobEED2Ev
FN:434,439,_ZN12WPEFramework4Core9ProxyTypeINS_6Plugin33AppGatewayResponderImplementation31ConnectionStatusNotificationJobEED2Ev
FN:434,439,_ZN12WPEFramework4Core9ProxyTypeINS_6Plugin33AppGatewayResponderImplementation7EmitJobEED2Ev
FN:434,439,_ZN12WPEFramework4Core9ProxyTypeINS_6Plugin33AppGatewayResponderImplementation8WsMsgJobEED2Ev
FN:434,439,_ZN12WPEFramework4Core9ProxyTypeINS_6Plugin8MetadataINS2_10AppGatewayEE20PluginImplementationIS4_EEED2Ev
FN:443,446,_ZN12WPEFramework4Core9ProxyTypeINS0_18ProxyContainerTypeINS0_13ProxyPoolTypeINS_3Web12JSONBodyTypeINS0_7JSONRPC7MessageEEEEES8_S8_EEE10CreateMoveIJRS9_EEEvRSB_jDpOT_
FN:443,446,_ZN12WPEFramework4Core9ProxyTypeINS0_18ProxyContainerTypeINS0_13ProxyPoolTypeINS_3Web7RequestEEES5_S5_EEE10CreateMoveIJRS6_EEEvRS8_jDpOT_
FN:448,451,_ZN12WPEFramework4Core9ProxyTypeIN26WebSocketConnectionManager15WebSocketServerEE6CreateIJRiRKNS0_6NodeIdEPNS0_16SocketServerTypeIS3_EEEEES4_DpOT_
FN:448,451,_ZN12WPEFramework4Core9ProxyTypeINS0_15ServiceMetadataINS_6Plugin10AppGatewayEE21ServiceImplementationIS4_EEE6CreateIJRKNS0_7LibraryERPKNS0_16IServiceMetadataEEEES8_DpOT_
FN:448,451,_ZN12WPEFramework4Core9ProxyTypeINS0_15ServiceMetadataINS_6Plugin24AppGatewayImplementationEE21ServiceImplementationIS4_EEE6CreateIJRKNS0_7LibraryERPKNS0_16IServiceMetadataEEEES8_DpOT_
FN:448,451,_ZN12WPEFramework4Core9ProxyTypeINS0_15ServiceMetadataINS_6Plugin33AppGatewayResponderImplementationEE21ServiceImplementationIS4_EEE6CreateIJRKNS0_7LibraryERPKNS0_16IServiceMetadataEEEES8_DpOT_
FN:448,451,_ZN12WPEFramework4Core9ProxyTypeINS0_7JSONRPC7MessageEE6CreateIJEEES4_DpOT_
FN:448,451,_ZN12WPEFramework4Core9ProxyTypeINS0_7ServiceINS_6Plugin10AppGatewayEEEE6CreateIJEEES6_DpOT_
FN:448,451,_ZN12WPEFramework4Core9ProxyTypeINS0_7ServiceINS_6Plugin24AppGatewayImplementationEEEE6CreateIJEEES6_DpOT_
FN:448,451,_ZN12WPEFramework4Core9ProxyTypeINS_3Web8ResponseEE6CreateIJEEES4_DpOT_
FN:448,451,_ZN12WPEFramework4Core9ProxyTypeINS_6Plugin24AppGatewayImplementation10RespondJobEE6CreateIJRPS3_RKNS_8Exchange14GatewayContextERKNSt7__cxx1112basic_stringIcSt11char_traitsIcESaIcEEESK_EEES5_DpOT_
FN:448,451,_ZN12WPEFramework4Core9ProxyTypeINS_6Plugin33AppGatewayResponderImplementation10RequestJobEE6CreateIJRPS3_RKjSA_RKNSt7__cxx1112basic_stringIcSt11char_traitsIcESaIcEEESI_EEES5_DpOT_
FN:448,451,_ZN12WPEFramework4Core9ProxyTypeINS_6Plugin33AppGatewayResponderImplementation10RespondJobEE6CreateIJRPS3_RKjSA_RKNSt7__cxx1112basic_stringIcSt11char_traitsIcESaIcEEEEEES5_DpOT_
FN:448,451,_ZN12WPEFramework4Core9ProxyTypeINS_6Plugin33AppGatewayResponderImplementation31ConnectionStatusNotificationJobEE6CreateIJRPS3_RKjRKNSt7__cxx1112basic_stringIcSt11char_traitsIcESaIcEEERKbEEES5_DpOT_
FN:448,451,_ZN12WPEFramework4Core9ProxyTypeINS_6Plugin33AppGatewayResponderImplementation7EmitJobEE6CreateIJRPS3_RKjRKNSt7__cxx1112basic_stringIcSt11char_traitsIcESaIcEEESI_EEES5_DpOT_
FN:448,451,_ZN12WPEFramework4Core9ProxyTypeINS_6Plugin33AppGatewayResponderImplementation8WsMsgJobEE6CreateIJRPS3_RKNSt7__cxx1112basic_stringIcSt11char_traitsIcESaIcEEESG_RKjSI_EEES5_DpOT_
FN:448,451,_ZN12WPEFramework4Core9ProxyTypeINS_6Plugin8MetadataINS2_10AppGatewayEE20PluginImplementationIS4_EEE6CreateIJRKNS0_7LibraryERPKNS0_16IServiceMetadataEEEES8_DpOT_
FN:469,477,_ZN12WPEFramework4Core9ProxyTypeIN26WebSocketConnectionManager15WebSocketServerEEaSERKS4_
FN:469,477,_ZN12WPEFramework4Core9ProxyTypeINS0_18ProxyContainerTypeINS0_13ProxyPoolTypeINS_3Web12JSONBodyTypeINS0_7JSONRPC7MessageEEEEES8_S8_EEEaSERKSB_
FN:469,477,_ZN12WPEFramework4Core9ProxyTypeINS0_18ProxyContainerTypeINS0_13ProxyPoolTypeINS_3Web7RequestEEES5_S5_EEEaSERKS8_
FN:469,477,_ZN12WPEFramework4Core9ProxyTypeINS0_9IDispatchEEaSERKS3_
FN:490,498,_ZN12WPEFramework4Core9ProxyTypeINS0_18ProxyContainerTypeINS0_13ProxyPoolTypeINS_3Web12JSONBodyTypeINS0_7JSONRPC7MessageEEEEES8_S8_EEEaSEOSB_
FN:490,498,_ZN12WPEFramework4Core9ProxyTypeINS0_18ProxyContainerTypeINS0_13ProxyPoolTypeINS_3Web7RequestEEES5_S5_EEEaSEOS8_
FN:490,498,_ZN12WPEFramework4Core9ProxyTypeINS0_4JSON8IElementEEaSEOS4_
FN:490,498,_ZN12WPEFramework4Core9ProxyTypeINS0_7JSONRPC7MessageEEaSEOS4_
FN:490,498,_ZN12WPEFramework4Core9ProxyTypeINS_3Web12JSONBodyTypeINS0_7JSONRPC7MessageEEEEaSEOS7_
FN:490,498,_ZN12WPEFramework4Core9ProxyTypeINS_3Web7RequestEEaSEOS4_
FN:490,498,_ZN12WPEFramework4Core9ProxyTypeINS_3Web8ResponseEEaSEOS4_
FN:501,504,_ZNK12WPEFramework4Core9ProxyTypeIN26WebSocketConnectionManager15WebSocketServerEE7IsValidEv
FN:501,504,_ZNK12WPEFramework4Core9ProxyTypeINS0_15ServiceMetadataINS_6Plugin10AppGatewayEE21ServiceImplementationIS4_EEE7IsValidEv
FN:501,504,_ZNK12WPEFramework4Core9ProxyTypeINS0_15ServiceMetadataINS_6Plugin24AppGatewayImplementationEE21ServiceImplementationIS4_EEE7IsValidEv
FN:501,504,_ZNK12WPEFramework4Core9ProxyTypeINS0_15ServiceMetadataINS_6Plugin33AppGatewayResponderImplementationEE21ServiceImplementationIS4_EEE7IsValidEv
FN:501,504,_ZNK12WPEFramework4Core9ProxyTypeINS0_18ProxyContainerTypeINS0_13ProxyPoolTypeINS_3Web12JSONBodyTypeINS0_7JSONRPC7MessageEEEEES8_S8_EEE7IsValidEv
FN:501,504,_ZNK12WPEFramework4Core9ProxyTypeINS0_18ProxyContainerTypeINS0_13ProxyPoolTypeINS_3Web7RequestEEES5_S5_EEE7IsValidEv
FN:501,504,_ZNK12WPEFramework4Core9ProxyTypeINS0_4JSON8IElementEE7IsValidEv
FN:501,504,_ZNK12WPEFramework4Core9ProxyTypeINS0_7JSONRPC7MessageEE7IsValidEv
FN:501,504,_ZNK12WPEFramework4Core9ProxyTypeINS0_9IDispatchEE7IsValidEv
FN:501,504,_ZNK12WPEFramework4Core9ProxyTypeINS_3Web5IBodyEE7IsValidEv
FN:501,504,_ZNK12WPEFramework4Core9ProxyTypeINS_3Web7RequestEE7IsValidEv
FN:501,504,_ZNK12WPEFramework4Core9ProxyTypeINS_3Web8ResponseEE7IsValidEv
FN:501,504,_ZNK12WPEFramework4Core9ProxyTypeINS_6Plugin8MetadataINS2_10AppGatewayEE20PluginImplementationIS4_EEE7IsValidEv
FN:505,516,_ZNK12WPEFramework4Core9ProxyTypeIN26WebSocketConnectionManager15WebSocketServerEE7ReleaseEv
FN:505,516,_ZNK12WPEFramework4Core9ProxyTypeINS0_4JSON8IElementEE7ReleaseEv
FN:505,516,_ZNK12WPEFramework4Core9ProxyTypeINS0_9IDispatchEE7ReleaseEv
FN:505,516,_ZNK12WPEFramework4Core9ProxyTypeINS_3Web5IBodyEE7ReleaseEv
FN:505,516,_ZNK12WPEFramework4Core9ProxyTypeINS_3Web7RequestEE7ReleaseEv
FN:517,523,_ZNK12WPEFramework4Core9ProxyTypeINS0_4JSON8IElementEE6AddRefEv
FN:517,523,_ZNK12WPEFramework4Core9ProxyTypeINS0_7JSONRPC7MessageEE6AddRefEv
FN:517,523,_ZNK12WPEFramework4Core9ProxyTypeINS_3Web12JSONBodyTypeINS0_7JSONRPC7MessageEEEE6AddRefEv
FN:517,523,_ZNK12WPEFramework4Core9ProxyTypeINS_3Web7RequestEE6AddRefEv
FN:517,523,_ZNK12WPEFramework4Core9ProxyTypeINS_3Web8ResponseEE6AddRefEv
FN:524,527,_ZNK12WPEFramework4Core9ProxyTypeINS0_18ProxyContainerTypeINS0_13ProxyPoolTypeINS_3Web12JSONBodyTypeINS0_7JSONRPC7MessageEEEEES8_S8_EEEeqERKSB_
FN:524,527,_ZNK12WPEFramework4Core9ProxyTypeINS0_18ProxyContainerTypeINS0_13ProxyPoolTypeINS_3Web7RequestEEES5_S5_EEEeqERKS8_
FN:524,527,_ZNK12WPEFramework4Core9ProxyTypeINS0_9IDispatchEEeqERKS3_
FN:524,527,_ZNK12WPEFramework4Core9ProxyTypeINS_3Web8ResponseEEeqERKS4_
FN:529,532,_ZNK12WPEFramework4Core9ProxyTypeINS0_9IDispatchEEneERKS3_
FN:543,548,_ZNK12WPEFramework4Core9ProxyTypeIN26WebSocketConnectionManager15WebSocketServerEEptEv
FN:543,548,_ZNK12WPEFramework4Core9ProxyTypeINS0_15ServiceMetadataINS_6Plugin10AppGatewayEE21ServiceImplementationIS4_EEEptEv
FN:543,548,_ZNK12WPEFramework4Core9ProxyTypeINS0_15ServiceMetadataINS_6Plugin24AppGatewayImplementationEE21ServiceImplementationIS4_EEEptEv
FN:543,548,_ZNK12WPEFramework4Core9ProxyTypeINS0_15ServiceMetadataINS_6Plugin33AppGatewayResponderImplementationEE21ServiceImplementationIS4_EEEptEv
FN:543,548,_ZNK12WPEFramework4Core9ProxyTypeINS0_18ProxyContainerTypeINS0_13ProxyPoolTypeINS_3Web12JSONBodyTypeINS0_7JSONRPC7MessageEEEEES8_S8_EEEptEv
FN:543,548,_ZNK12WPEFramework4Core9ProxyTypeINS0_18ProxyContainerTypeINS0_13ProxyPoolTypeINS_3Web7RequestEEES5_S5_EEEptEv
FN:543,548,_ZNK12WPEFramework4Core9ProxyTypeINS0_4JSON8IElementEEptEv
FN:543,548,_ZNK12WPEFramework4Core9ProxyTypeINS0_7JSONRPC7MessageEEptEv
FN:543,548,_ZNK12WPEFramework4Core9ProxyTypeINS0_7ServiceINS_6Plugin10AppGatewayEEEEptEv
FN:543,548,_ZNK12WPEFramework4Core9ProxyTypeINS0_7ServiceINS_6Plugin24AppGatewayImplementationEEEEptEv
FN:543,548,_ZNK12WPEFramework4Core9ProxyTypeINS0_9IDispatchEEptEv
FN:543,548,_ZNK12WPEFramework4Core9ProxyTypeINS_3Web12JSONBodyTypeINS0_7JSONRPC7MessageEEEEptEv
FN:543,548,_ZNK12WPEFramework4Core9ProxyTypeINS_3Web7RequestEEptEv
FN:543,548,_ZNK12WPEFramework4Core9ProxyTypeINS_3Web8ResponseEEptEv
FN:543,548,_ZNK12WPEFramework4Core9ProxyTypeINS_6Plugin24AppGatewayImplementation10RespondJobEEptEv
FN:543,548,_ZNK12WPEFramework4Core9ProxyTypeINS_6Plugin33AppGatewayResponderImplementation10RequestJobEEptEv
FN:543,548,_ZNK12WPEFramework4Core9ProxyTypeINS_6Plugin33AppGatewayResponderImplementation10RespondJobEEptEv
FN:543,548,_ZNK12WPEFramework4Core9ProxyTypeINS_6Plugin33AppGatewayResponderImplementation31ConnectionStatusNotificationJobEEptEv
FN:543,548,_ZNK12WPEFramework4Core9ProxyTypeINS_6Plugin33AppGatewayResponderImplementation7EmitJobEEptEv
FN:543,548,_ZNK12WPEFramework4Core9ProxyTypeINS_6Plugin33AppGatewayResponderImplementation8WsMsgJobEEptEv
FN:543,548,_ZNK12WPEFramework4Core9ProxyTypeINS_6Plugin8MetadataINS2_10AppGatewayEE20PluginImplementationIS4_EEEptEv
FN:550,555,_ZNK12WPEFramework4Core9ProxyTypeIN26WebSocketConnectionManager15WebSocketServerEEdeEv
FN:550,555,_ZNK12WPEFramework4Core9ProxyTypeINS0_9IDispatchEEdeEv
FN:550,555,_ZNK12WPEFramework4Core9ProxyTypeINS_3Web7RequestEEdeEv
FN:550,555,_ZNK12WPEFramework4Core9ProxyTypeINS_3Web8ResponseEEdeEv
FN:563,574,_ZN12WPEFramework4Core9ProxyTypeIN26WebSocketConnectionManager15WebSocketServerEE13CopyConstructIS3_EEvRKNS1_IT_EERK17TemplateIntToTypeILj1EE
FN:563,574,_ZN12WPEFramework4Core9ProxyTypeINS0_18ProxyContainerTypeINS0_13ProxyPoolTypeINS_3Web12JSONBodyTypeINS0_7JSONRPC7MessageEEEEES8_S8_EEE13CopyConstructISA_EEvRKNS1_IT_EERK17TemplateIntToTypeILj1EE
FN:563,574,_ZN12WPEFramework4Core9ProxyTypeINS0_18ProxyContainerTypeINS0_13ProxyPoolTypeINS_3Web7RequestEEES5_S5_EEE13CopyConstructIS7_EEvRKNS1_IT_EERK17TemplateIntToTypeILj1EE
FN:563,574,_ZN12WPEFramework4Core9ProxyTypeINS0_4JSON8IElementEE13CopyConstructINS0_7JSONRPC7MessageEEEvRKNS1_IT_EERK17TemplateIntToTypeILj1EE
FN:563,574,_ZN12WPEFramework4Core9ProxyTypeINS0_4JSON8IElementEE13CopyConstructINS_3Web12JSONBodyTypeINS0_7JSONRPC7MessageEEEEEvRKNS1_IT_EERK17TemplateIntToTypeILj1EE
FN:563,574,_ZN12WPEFramework4Core9ProxyTypeINS0_9IDispatchEE13CopyConstructIS2_EEvRKNS1_IT_EERK17TemplateIntToTypeILj1EE
FN:563,574,_ZN12WPEFramework4Core9ProxyTypeINS_3Web12JSONBodyTypeINS0_7JSONRPC7MessageEEEE13CopyConstructINS0_18ProxyContainerTypeINS0_13ProxyPoolTypeIS6_EES6_S6_EEEEvRKNS1_IT_EERK17TemplateIntToTypeILj1EE
FN:563,574,_ZN12WPEFramework4Core9ProxyTypeINS_3Web7RequestEE13CopyConstructINS0_18ProxyContainerTypeINS0_13ProxyPoolTypeIS3_EES3_S3_EEEEvRKNS1_IT_EERK17TemplateIntToTypeILj1EE
FN:576,595,_ZN12WPEFramework4Core9ProxyTypeINS0_7JSONRPC7MessageEE13CopyConstructINS0_4JSON8IElementEEEvRKNS1_IT_EERK17TemplateIntToTypeILj0EE
FN:597,608,_ZN12WPEFramework4Core9ProxyTypeINS0_18ProxyContainerTypeINS0_13ProxyPoolTypeINS_3Web12JSONBodyTypeINS0_7JSONRPC7MessageEEEEES8_S8_EEE13MoveConstructISA_EEvONS1_IT_EERK17TemplateIntToTypeILj1EE
FN:597,608,_ZN12WPEFramework4Core9ProxyTypeINS0_18ProxyContainerTypeINS0_13ProxyPoolTypeINS_3Web7RequestEEES5_S5_EEE13MoveConstructIS7_EEvONS1_IT_EERK17TemplateIntToTypeILj1EE
FN:597,608,_ZN12WPEFramework4Core9ProxyTypeINS0_4JSON8IElementEE13MoveConstructIS3_EEvONS1_IT_EERK17TemplateIntToTypeILj1EE
FN:597,608,_ZN12WPEFramework4Core9ProxyTypeINS0_7JSONRPC7MessageEE13MoveConstructINS_3Web12JSONBodyTypeIS3_EEEEvONS1_IT_EERK17TemplateIntToTypeILj1EE
FN:597,608,_ZN12WPEFramework4Core9ProxyTypeINS0_7JSONRPC7MessageEE13MoveConstructIS3_EEvONS1_IT_EERK17TemplateIntToTypeILj1EE
FN:597,608,_ZN12WPEFramework4Core9ProxyTypeINS0_9IDispatchEE13MoveConstructINS_6Plugin24AppGatewayImplementation10RespondJobEEEvONS1_IT_EERK17TemplateIntToTypeILj1EE
FN:597,608,_ZN12WPEFramework4Core9ProxyTypeINS0_9IDispatchEE13MoveConstructINS_6Plugin33AppGatewayResponderImplementation10RequestJobEEEvONS1_IT_EERK17TemplateIntToTypeILj1EE
FN:597,608,_ZN12WPEFramework4Core9ProxyTypeINS0_9IDispatchEE13MoveConstructINS_6Plugin33AppGatewayResponderImplementation10RespondJobEEEvONS1_IT_EERK17TemplateIntToTypeILj1EE
FN:597,608,_ZN12WPEFramework4Core9ProxyTypeINS0_9IDispatchEE13MoveConstructINS_6Plugin33AppGatewayResponderImplementation31ConnectionStatusNotificationJobEEEvONS1_IT_EERK17TemplateIntToTypeILj1EE
FN:597,608,_ZN12WPEFramework4Core9ProxyTypeINS0_9IDispatchEE13MoveConstructINS_6Plugin33AppGatewayResponderImplementation7EmitJobEEEvONS1_IT_EERK17TemplateIntToTypeILj1EE
FN:597,608,_ZN12WPEFramework4Core9ProxyTypeINS0_9IDispatchEE13MoveConstructINS_6Plugin33AppGatewayResponderImplementation8WsMsgJobEEEvONS1_IT_EERK17TemplateIntToTypeILj1EE
FN:597,608,_ZN12WPEFramework4Core9ProxyTypeINS_3Web12JSONBodyTypeINS0_7JSONRPC7MessageEEEE13MoveConstructIS6_EEvONS1_IT_EERK17TemplateIntToTypeILj1EE
FN:597,608,_ZN12WPEFramework4Core9ProxyTypeINS_3Web7RequestEE13MoveConstructIS3_EEvONS1_IT_EERK17TemplateIntToTypeILj1EE
FN:597,608,_ZN12WPEFramework4Core9ProxyTypeINS_3Web8ResponseEE13MoveConstructIS3_EEvONS1_IT_EERK17TemplateIntToTypeILj1EE
FN:629,641,_ZN12WPEFramework4Core9ProxyTypeIN26WebSocketConnectionManager15WebSocketServerEE12CreateObjectIJRiRKNS0_6NodeIdEPNS0_16SocketServerTypeIS3_EEEEEPNS0_11ProxyObjectIS3_EEjDpOT_
FN:629,641,_ZN12WPEFramework4Core9ProxyTypeINS0_15ServiceMetadataINS_6Plugin10AppGatewayEE21ServiceImplementationIS4_EEE12CreateObjectIJRKNS0_7LibraryERPKNS0_16IServiceMetadataEEEEPNS0_11ProxyObjectIS7_EEjDpOT_
FN:629,641,_ZN12WPEFramework4Core9ProxyTypeINS0_15ServiceMetadataINS_6Plugin24AppGatewayImplementationEE21ServiceImplementationIS4_EEE12CreateObjectIJRKNS0_7LibraryERPKNS0_16IServiceMetadataEEEEPNS0_11ProxyObjectIS7_EEjDpOT_
FN:629,641,_ZN12WPEFramework4Core9ProxyTypeINS0_15ServiceMetadataINS_6Plugin33AppGatewayResponderImplementationEE21ServiceImplementationIS4_EEE12CreateObjectIJRKNS0_7LibraryERPKNS0_16IServiceMetadataEEEEPNS0_11ProxyObjectIS7_EEjDpOT_
FN:629,641,_ZN12WPEFramework4Core9ProxyTypeINS0_18ProxyContainerTypeINS0_13ProxyPoolTypeINS_3Web12JSONBodyTypeINS0_7JSONRPC7MessageEEEEES8_S8_EEE12CreateObjectIJRS9_EEEPNS0_11ProxyObjectISA_EEjDpOT_
FN:629,641,_ZN12WPEFramework4Core9ProxyTypeINS0_18ProxyContainerTypeINS0_13ProxyPoolTypeINS_3Web7RequestEEES5_S5_EEE12CreateObjectIJRS6_EEEPNS0_11ProxyObjectIS7_EEjDpOT_
FN:629,641,_ZN12WPEFramework4Core9ProxyTypeINS0_7JSONRPC7MessageEE12CreateObjectIJEEEPNS0_11ProxyObjectIS3_EEjDpOT_
FN:629,641,_ZN12WPEFramework4Core9ProxyTypeINS0_7ServiceINS_6Plugin10AppGatewayEEEE12CreateObjectIJEEEPNS0_11ProxyObjectIS5_EEjDpOT_
FN:629,641,_ZN12WPEFramework4Core9ProxyTypeINS0_7ServiceINS_6Plugin24AppGatewayImplementationEEEE12CreateObjectIJEEEPNS0_11ProxyObjectIS5_EEjDpOT_
FN:629,641,_ZN12WPEFramework4Core9ProxyTypeINS_3Web8ResponseEE12CreateObjectIJEEEPNS0_11ProxyObjectIS3_EEjDpOT_
FN:629,641,_ZN12WPEFramework4Core9ProxyTypeINS_6Plugin24AppGatewayImplementation10RespondJobEE12CreateObjectIJRPS3_RKNS_8Exchange14GatewayContextERKNSt7__cxx1112basic_stringIcSt11char_traitsIcESaIcEEESK_EEEPNS0_11ProxyObjectIS4_EEjDpOT_
FN:629,641,_ZN12WPEFramework4Core9ProxyTypeINS_6Plugin33AppGatewayResponderImplementation10RequestJobEE12CreateObjectIJRPS3_RKjSA_RKNSt7__cxx1112basic_stringIcSt11char_traitsIcESaIcEEESI_EEEPNS0_11ProxyObjectIS4_EEjDpOT_
FN:629,641,_ZN12WPEFramework4Core9ProxyTypeINS_6Plugin33AppGatewayResponderImplementation10RespondJobEE12CreateObjectIJRPS3_RKjSA_RKNSt7__cxx1112basic_stringIcSt11char_traitsIcESaIcEEEEEEPNS0_11ProxyObjectIS4_EEjDpOT_
FN:629,641,_ZN12WPEFramework4Core9ProxyTypeINS_6Plugin33AppGatewayResponderImplementation31ConnectionStatusNotificationJobEE12CreateObjectIJRPS3_RKjRKNSt7__cxx1112basic_stringIcSt11char_traitsIcESaIcEEERKbEEEPNS0_11ProxyObjectIS4_EEjDpOT_
FN:629,641,_ZN12WPEFramework4Core9ProxyTypeINS_6Plugin33AppGatewayResponderImplementation7EmitJobEE12CreateObjectIJRPS3_RKjRKNSt7__cxx1112basic_stringIcSt11char_traitsIcESaIcEEESI_EEEPNS0_11ProxyObjectIS4_EEjDpOT_
FN:629,641,_ZN12WPEFramework4Core9ProxyTypeINS_6Plugin33AppGatewayResponderImplementation8WsMsgJobEE12CreateObjectIJRPS3_RKNSt7__cxx1112basic_stringIcSt11char_traitsIcESaIcEEESG_RKjSI_EEEPNS0_11ProxyObjectIS4_EEjDpOT_
FN:629,641,_ZN12WPEFramework4Core9ProxyTypeINS_6Plugin8MetadataINS2_10AppGatewayEE20PluginImplementationIS4_EEE12CreateObjectIJRKNS0_7LibraryERPKNS0_16IServiceMetadataEEEEPNS0_11ProxyObjectIS7_EEjDpOT_
FN:649,651,_ZN12WPEFramework4Core11ProxyObjectINS0_18ProxyContainerTypeINS0_13ProxyPoolTypeINS_3Web12JSONBodyTypeINS0_7JSONRPC7MessageEEEEES8_S8_EEE6MyselfERNS0_9ProxyTypeISA_EE
FN:649,651,_ZN12WPEFramework4Core11ProxyObjectINS0_18ProxyContainerTypeINS0_13ProxyPoolTypeINS_3Web7RequestEEES5_S5_EEE6MyselfERNS0_9ProxyTypeIS7_EE
FN:669,679,_ZN12WPEFramework4Core9ProxyListINS0_4JSON8IElementEEC2Ej
FN:669,679,_ZN12WPEFramework4Core9ProxyListINS0_7JSONRPC7MessageEEC2Ej
FN:669,679,_ZN12WPEFramework4Core9ProxyListINS_3Web8ResponseEEC2Ej
FN:681,694,_ZN12WPEFramework4Core9ProxyListINS0_4JSON8IElementEED2Ev
FN:681,694,_ZN12WPEFramework4Core9ProxyListINS0_7JSONRPC7MessageEED2Ev
FN:681,694,_ZN12WPEFramework4Core9ProxyListINS_3Web8ResponseEED2Ev
FN:69,90,_ZN12WPEFramework4Core11ProxyObjectIN26WebSocketConnectionManager15WebSocketServerEEnwEmj
FN:69,90,_ZN12WPEFramework4Core11ProxyObjectINS0_15ServiceMetadataINS_6Plugin10AppGatewayEE21ServiceImplementationIS4_EEEnwEmj
FN:69,90,_ZN12WPEFramework4Core11ProxyObjectINS0_15ServiceMetadataINS_6Plugin24AppGatewayImplementationEE21ServiceImplementationIS4_EEEnwEmj
FN:69,90,_ZN12WPEFramework4Core11ProxyObjectINS0_15ServiceMetadataINS_6Plugin33AppGatewayResponderImplementationEE21ServiceImplementationIS4_EEEnwEmj
FN:69,90,_ZN12WPEFramework4Core11ProxyObjectINS0_18ProxyContainerTypeINS0_13ProxyPoolTypeINS_3Web12JSONBodyTypeINS0_7JSONRPC7MessageEEEEES8_S8_EEEnwEmj
FN:69,90,_ZN12WPEFramework4Core11ProxyObjectINS0_18ProxyContainerTypeINS0_13ProxyPoolTypeINS_3Web7RequestEEES5_S5_EEEnwEmj
FN:69,90,_ZN12WPEFramework4Core11ProxyObjectINS0_7JSONRPC7MessageEEnwEmj
FN:69,90,_ZN12WPEFramework4Core11ProxyObjectINS0_7ServiceINS_6Plugin10AppGatewayEEEEnwEmj
FN:69,90,_ZN12WPEFramework4Core11ProxyObjectINS0_7ServiceINS_6Plugin24AppGatewayImplementationEEEEnwEmj
FN:69,90,_ZN12WPEFramework4Core11ProxyObjectINS_3Web8ResponseEEnwEmj
FN:69,90,_ZN12WPEFramework4Core11ProxyObjectINS_6Plugin24AppGatewayImplementation10RespondJobEEnwEmj
FN:69,90,_ZN12WPEFramework4Core11ProxyObjectINS_6Plugin33AppGatewayResponderImplementation10RequestJobEEnwEmj
FN:69,90,_ZN12WPEFramework4Core11ProxyObjectINS_6Plugin33AppGatewayResponderImplementation10RespondJobEEnwEmj
FN:69,90,_ZN12WPEFramework4Core11ProxyObjectINS_6Plugin33AppGatewayResponderImplementation31ConnectionStatusNotificationJobEEnwEmj
FN:69,90,_ZN12WPEFramework4Core11ProxyObjectINS_6Plugin33AppGatewayResponderImplementation7EmitJobEEnwEmj
FN:69,90,_ZN12WPEFramework4Core11ProxyObjectINS_6Plugin33AppGatewayResponderImplementation8WsMsgJobEEnwEmj
FN:69,90,_ZN12WPEFramework4Core11ProxyObjectINS_6Plugin8MetadataINS2_10AppGatewayEE20PluginImplementationIS4_EEEnwEmj
FN:712,743,_ZN12WPEFramework4Core9ProxyListINS0_4JSON8IElementEE3AddERNS0_9ProxyTypeIS3_EE
FN:712,743,_ZN12WPEFramework4Core9ProxyListINS0_7JSONRPC7MessageEE3AddERNS0_9ProxyTypeIS3_EE
FN:712,743,_ZN12WPEFramework4Core9ProxyListINS_3Web8ResponseEE3AddERNS0_9ProxyTypeIS3_EE
FN:745,771,_ZN12WPEFramework4Core9ProxyListINS0_7JSONRPC7MessageEE6RemoveEjRNS0_9ProxyTypeIS3_EE
FN:745,771,_ZN12WPEFramework4Core9ProxyListINS_3Web8ResponseEE6RemoveEjRNS0_9ProxyTypeIS3_EE
FN:773,795,_ZN12WPEFramework4Core9ProxyListINS0_4JSON8IElementEE6RemoveEj
FN:816,821,_ZN12WPEFramework4Core9ProxyListINS0_4JSON8IElementEE5ClearEv
FN:816,821,_ZN12WPEFramework4Core9ProxyListINS0_7JSONRPC7MessageEE5ClearEv
FN:856,859,_ZNK12WPEFramework4Core9ProxyListINS0_4JSON8IElementEE5CountEv
FN:856,859,_ZNK12WPEFramework4Core9ProxyListINS0_7JSONRPC7MessageEE5CountEv
FN:856,859,_ZNK12WPEFramework4Core9ProxyListINS_3Web8ResponseEE5CountEv
FN:862,868,_ZNK12WPEFramework4Core9ProxyListINS0_4JSON8IElementEEixEj
FN:862,868,_ZNK12WPEFramework4Core9ProxyListINS0_7JSONRPC7MessageEEixEj
FN:862,868,_ZNK12WPEFramework4Core9ProxyListINS_3Web8ResponseEEixEj
FN:876,880,_ZNK12WPEFramework4Core9ProxyListINS0_4JSON8IElementEE8GetProxyEj
FN:876,880,_ZNK12WPEFramework4Core9ProxyListINS0_7JSONRPC7MessageEE8GetProxyEj
FN:876,880,_ZNK12WPEFramework4Core9ProxyListINS_3Web8ResponseEE8GetProxyEj
FN:882,887,_ZN12WPEFramework4Core9ProxyListINS0_4JSON8IElementEE8SetProxyEjRNS0_9ProxyTypeIS3_EE
FN:882,887,_ZN12WPEFramework4Core9ProxyListINS0_7JSONRPC7MessageEE8SetProxyEjRNS0_9ProxyTypeIS3_EE
FN:882,887,_ZN12WPEFramework4Core9ProxyListINS_3Web8ResponseEE8SetProxyEjRNS0_9ProxyTypeIS3_EE
FN:93,98,_ZN12WPEFramework4Core11ProxyObjectIN26WebSocketConnectionManager15WebSocketServerEEdlEPv
FN:93,98,_ZN12WPEFramework4Core11ProxyObjectINS0_15ServiceMetadataINS_6Plugin10AppGatewayEE21ServiceImplementationIS4_EEEdlEPv
FN:93,98,_ZN12WPEFramework4Core11ProxyObjectINS0_15ServiceMetadataINS_6Plugin24AppGatewayImplementationEE21ServiceImplementationIS4_EEEdlEPv
FN:93,98,_ZN12WPEFramework4Core11ProxyObjectINS0_15ServiceMetadataINS_6Plugin33AppGatewayResponderImplementationEE21ServiceImplementationIS4_EEEdlEPv
FN:93,98,_ZN12WPEFramework4Core11ProxyObjectINS0_18ProxyContainerTypeINS0_13ProxyPoolTypeINS_3Web12JSONBodyTypeINS0_7JSONRPC7MessageEEEEES8_S8_EEEdlEPv
FN:93,98,_ZN12WPEFramework4Core11ProxyObjectINS0_18ProxyContainerTypeINS0_13ProxyPoolTypeINS_3Web7RequestEEES5_S5_EEEdlEPv
FN:93,98,_ZN12WPEFramework4Core11ProxyObjectINS0_7JSONRPC7MessageEEdlEPv
FN:93,98,_ZN12WPEFramework4Core11ProxyObjectINS0_7ServiceINS_6Plugin10AppGatewayEEEEdlEPv
FN:93,98,_ZN12WPEFramework4Core11ProxyObjectINS0_7ServiceINS_6Plugin24AppGatewayImplementationEEEEdlEPv
FN:93,98,_ZN12WPEFramework4Core11ProxyObjectINS_3Web8ResponseEEdlEPv
FN:93,98,_ZN12WPEFramework4Core11ProxyObjectINS_6Plugin24AppGatewayImplementation10RespondJobEEdlEPv
FN:93,98,_ZN12WPEFramework4Core11ProxyObjectINS_6Plugin33AppGatewayResponderImplementation10RequestJobEEdlEPv
FN:93,98,_ZN12WPEFramework4Core11ProxyObjectINS_6Plugin33AppGatewayResponderImplementation10RespondJobEEdlEPv
FN:93,98,_ZN12WPEFramework4Core11ProxyObjectINS_6Plugin33AppGatewayResponderImplementation31ConnectionStatusNotificationJobEEdlEPv
FN:93,98,_ZN12WPEFramework4Core11ProxyObjectINS_6Plugin33AppGatewayResponderImplementation7EmitJobEEdlEPv
FN:93,98,_ZN12WPEFramework4Core11ProxyObjectINS_6Plugin33AppGatewayResponderImplementation8WsMsgJobEEdlEPv
FN:93,98,_ZN12WPEFramework4Core11ProxyObjectINS_6Plugin8MetadataINS2_10AppGatewayEE20PluginImplementationIS4_EEEdlEPv
FNDA:0,_ZN12WPEFramework4Core11ProxyObjectIN26WebSocketConnectionManager15WebSocketServerEEC2IJRiRKNS0_6NodeIdEPNS0_16SocketServerTypeIS3_EEEEEDpOT_
FNDA:0,_ZN12WPEFramework4Core11ProxyObjectINS0_15ServiceMetadataINS_6Plugin10AppGatewayEE21ServiceImplementationIS4_EEEC1IJRKNS0_7LibraryERPKNS0_16IServiceMetadataEEEEDpOT_
FNDA:0,_ZN12WPEFramework4Core11ProxyObjectINS0_15ServiceMetadataINS_6Plugin24AppGatewayImplementationEE21ServiceImplementationIS4_EEEC1IJRKNS0_7LibraryERPKNS0_16IServiceMetadataEEEEDpOT_
FNDA:0,_ZN12WPEFramework4Core11ProxyObjectINS0_15ServiceMetadataINS_6Plugin33AppGatewayResponderImplementationEE21ServiceImplementationIS4_EEEC1IJRKNS0_7LibraryERPKNS0_16IServiceMetadataEEEEDpOT_
FNDA:0,_ZN12WPEFramework4Core11ProxyObjectINS0_18ProxyContainerTypeINS0_13ProxyPoolTypeINS_3Web12JSONBodyTypeINS0_7JSONRPC7MessageEEEEES8_S8_EEEC2IJRS9_EEEDpOT_
FNDA:0,_ZN12WPEFramework4Core11ProxyObjectINS0_18ProxyContainerTypeINS0_13ProxyPoolTypeINS_3Web7RequestEEES5_S5_EEEC2IJRS6_EEEDpOT_
FNDA:0,_ZN12WPEFramework4Core11ProxyObjectINS0_7JSONRPC7MessageEEC2IJEEEDpOT_
FNDA:27,_ZN12WPEFramework4Core11ProxyObjectINS0_7ServiceINS_6Plugin10AppGatewayEEEEC1IJEEEDpOT_
FNDA:8,_ZN12WPEFramework4Core11ProxyObjectINS0_7ServiceINS_6Plugin24AppGatewayImplementationEEEEC1IJEEEDpOT_
FNDA:0,_ZN12WPEFramework4Core11ProxyObjectINS_3Web8ResponseEEC2IJEEEDpOT_
FNDA:7,_ZN12WPEFramework4Core11ProxyObjectINS_6Plugin24AppGatewayImplementation10RespondJobEEC2IJRPS3_RKNS_8Exchange14GatewayContextERKNSt7__cxx1112basic_stringIcSt11char_traitsIcESaIcEEESK_EEEDpOT_
FNDA:0,_ZN12WPEFramework4Core11ProxyObjectINS_6Plugin33AppGatewayResponderImplementation10RequestJobEEC2IJRPS3_RKjSA_RKNSt7__cxx1112basic_stringIcSt11char_traitsIcESaIcEEESI_EEEDpOT_
FNDA:0,_ZN12WPEFramework4Core11ProxyObjectINS_6Plugin33AppGatewayResponderImplementation10RespondJobEEC2IJRPS3_RKjSA_RKNSt7__cxx1112basic_stringIcSt11char_traitsIcESaIcEEEEEEDpOT_
FNDA:0,_ZN12WPEFramework4Core11ProxyObjectINS_6Plugin33AppGatewayResponderImplementation31ConnectionStatusNotificationJobEEC2IJRPS3_RKjRKNSt7__cxx1112basic_stringIcSt11char_traitsIcESaIcEEERKbEEEDpOT_
FNDA:0,_ZN12WPEFramework4Core11ProxyObjectINS_6Plugin33AppGatewayResponderImplementation7EmitJobEEC2IJRPS3_RKjRKNSt7__cxx1112basic_stringIcSt11char_traitsIcESaIcEEESI_EEEDpOT_
FNDA:0,_ZN12WPEFramework4Core11ProxyObjectINS_6Plugin33AppGatewayResponderImplementation8WsMsgJobEEC2IJRPS3_RKNSt7__cxx1112basic_stringIcSt11char_traitsIcESaIcEEESG_RKjSI_EEEDpOT_
FNDA:0,_ZN12WPEFramework4Core11ProxyObjectINS_6Plugin8MetadataINS2_10AppGatewayEE20PluginImplementationIS4_EEEC1IJRKNS0_7LibraryERPKNS0_16IServiceMetadataEEEEDpOT_
FNDA:0,_ZN12WPEFramework4Core11ProxyObjectIN26WebSocketConnectionManager15WebSocketServerEED0Ev
FNDA:0,_ZN12WPEFramework4Core11ProxyObjectIN26WebSocketConnectionManager15WebSocketServerEED2Ev
FNDA:0,_ZN12WPEFramework4Core11ProxyObjectINS0_15ServiceMetadataINS_6Plugin10AppGatewayEE21ServiceImplementationIS4_EEED0Ev
FNDA:0,_ZN12WPEFramework4Core11ProxyObjectINS0_15ServiceMetadataINS_6Plugin10AppGatewayEE21ServiceImplementationIS4_EEED1Ev
FNDA:0,_ZN12WPEFramework4Core11ProxyObjectINS0_15ServiceMetadataINS_6Plugin24AppGatewayImplementationEE21ServiceImplementationIS4_EEED0Ev
FNDA:0,_ZN12WPEFramework4Core11ProxyObjectINS0_15ServiceMetadataINS_6Plugin24AppGatewayImplementationEE21ServiceImplementationIS4_EEED1Ev
FNDA:0,_ZN12WPEFramework4Core11ProxyObjectINS0_15ServiceMetadataINS_6Plugin33AppGatewayResponderImplementationEE21ServiceImplementationIS4_EEED0Ev
FNDA:0,_ZN12WPEFramework4Core11ProxyObjectINS0_15ServiceMetadataINS_6Plugin33AppGatewayResponderImplementationEE21ServiceImplementationIS4_EEED1Ev
FNDA:0,_ZN12WPEFramework4Core11ProxyObjectINS0_18ProxyContainerTypeINS0_13ProxyPoolTypeINS_3Web12JSONBodyTypeINS0_7JSONRPC7MessageEEEEES8_S8_EEED0Ev
FNDA:0,_ZN12WPEFramework4Core11ProxyObjectINS0_18ProxyContainerTypeINS0_13ProxyPoolTypeINS_3Web12JSONBodyTypeINS0_7JSONRPC7MessageEEEEES8_S8_EEED2Ev
FNDA:0,_ZN12WPEFramework4Core11ProxyObjectINS0_18ProxyContainerTypeINS0_13ProxyPoolTypeINS_3Web7RequestEEES5_S5_EEED0Ev
FNDA:0,_ZN12WPEFramework4Core11ProxyObjectINS0_18ProxyContainerTypeINS0_13ProxyPoolTypeINS_3Web7RequestEEES5_S5_EEED2Ev
FNDA:0,_ZN12WPEFramework4Core11ProxyObjectINS0_7JSONRPC7MessageEED0Ev
FNDA:0,_ZN12WPEFramework4Core11ProxyObjectINS0_7JSONRPC7MessageEED2Ev
FNDA:27,_ZN12WPEFramework4Core11ProxyObjectINS0_7ServiceINS_6Plugin10AppGatewayEEEED0Ev
FNDA:27,_ZN12WPEFramework4Core11ProxyObjectINS0_7ServiceINS_6Plugin10AppGatewayEEEED1Ev
FNDA:8,_ZN12WPEFramework4Core11ProxyObjectINS0_7ServiceINS_6Plugin24AppGatewayImplementationEEEED0Ev
FNDA:8,_ZN12WPEFramework4Core11ProxyObjectINS0_7ServiceINS_6Plugin24AppGatewayImplementationEEEED1Ev
FNDA:0,_ZN12WPEFramework4Core11ProxyObjectINS_3Web8ResponseEED0Ev
FNDA:0,_ZN12WPEFramework4Core11ProxyObjectINS_3Web8ResponseEED2Ev
FNDA:7,_ZN12WPEFramework4Core11ProxyObjectINS_6Plugin24AppGatewayImplementation10RespondJobEED0Ev
FNDA:7,_ZN12WPEFramework4Core11ProxyObjectINS_6Plugin24AppGatewayImplementation10RespondJobEED2Ev
FNDA:0,_ZN12WPEFramework4Core11ProxyObjectINS_6Plugin33AppGatewayResponderImplementation10RequestJobEED0Ev
FNDA:0,_ZN12WPEFramework4Core11ProxyObjectINS_6Plugin33AppGatewayResponderImplementation10RequestJobEED2Ev
FNDA:0,_ZN12WPEFramework4Core11ProxyObjectINS_6Plugin33AppGatewayResponderImplementation10RespondJobEED0Ev
FNDA:0,_ZN12WPEFramework4Core11ProxyObjectINS_6Plugin33AppGatewayResponderImplementation10RespondJobEED2Ev
FNDA:0,_ZN12WPEFramework4Core11ProxyObjectINS_6Plugin33AppGatewayResponderImplementation31ConnectionStatusNotificationJobEED0Ev
FNDA:0,_ZN12WPEFramework4Core11ProxyObjectINS_6Plugin33AppGatewayResponderImplementation31ConnectionStatusNotificationJobEED2Ev
FNDA:0,_ZN12WPEFramework4Core11ProxyObjectINS_6Plugin33AppGatewayResponderImplementation7EmitJobEED0Ev
FNDA:0,_ZN12WPEFramework4Core11ProxyObjectINS_6Plugin33AppGatewayResponderImplementation7EmitJobEED2Ev
FNDA:0,_ZN12WPEFramework4Core11ProxyObjectINS_6Plugin33AppGatewayResponderImplementation8WsMsgJobEED0Ev
FNDA:0,_ZN12WPEFramework4Core11ProxyObjectINS_6Plugin33AppGatewayResponderImplementation8WsMsgJobEED2Ev
FNDA:0,_ZN12WPEFramework4Core11ProxyObjectINS_6Plugin8MetadataINS2_10AppGatewayEE20PluginImplementationIS4_EEED0Ev
FNDA:0,_ZN12WPEFramework4Core11ProxyObjectINS_6Plugin8MetadataINS2_10AppGatewayEE20PluginImplementationIS4_EEED1Ev
FNDA:0,_ZN12WPEFramework4Core18ProxyContainerTypeINS0_13ProxyPoolTypeINS_3Web12JSONBodyTypeINS0_7JSONRPC7MessageEEEEES7_S7_EC2IJEEERS8_DpOT_
FNDA:0,_ZN12WPEFramework4Core18ProxyContainerTypeINS0_13ProxyPoolTypeINS_3Web7RequestEEES4_S4_EC2IJEEERS5_DpOT_
FNDA:0,_ZN12WPEFramework4Core18ProxyContainerTypeINS0_13ProxyPoolTypeINS_3Web12JSONBodyTypeINS0_7JSONRPC7MessageEEEEES7_S7_ED0Ev
FNDA:0,_ZN12WPEFramework4Core18ProxyContainerTypeINS0_13ProxyPoolTypeINS_3Web12JSONBodyTypeINS0_7JSONRPC7MessageEEEEES7_S7_ED2Ev
FNDA:0,_ZN12WPEFramework4Core18ProxyContainerTypeINS0_13ProxyPoolTypeINS_3Web7RequestEEES4_S4_ED2Ev
FNDA:0,_ZNK12WPEFramework4Core11ProxyObjectIN26WebSocketConnectionManager15WebSocketServerEE6AddRefEv
FNDA:0,_ZNK12WPEFramework4Core11ProxyObjectINS0_15ServiceMetadataINS_6Plugin10AppGatewayEE21ServiceImplementationIS4_EEE6AddRefEv
FNDA:0,_ZNK12WPEFramework4Core11ProxyObjectINS0_15ServiceMetadataINS_6Plugin24AppGatewayImplementationEE21ServiceImplementationIS4_EEE6AddRefEv
FNDA:0,_ZNK12WPEFramework4Core11ProxyObjectINS0_15ServiceMetadataINS_6Plugin33AppGatewayResponderImplementationEE21ServiceImplementationIS4_EEE6AddRefEv
FNDA:0,_ZNK12WPEFramework4Core11ProxyObjectINS0_18ProxyContainerTypeINS0_13ProxyPoolTypeINS_3Web12JSONBodyTypeINS0_7JSONRPC7MessageEEEEES8_S8_EEE6AddRefEv
FNDA:0,_ZNK12WPEFramework4Core11ProxyObjectINS0_18ProxyContainerTypeINS0_13ProxyPoolTypeINS_3Web7RequestEEES5_S5_EEE6AddRefEv
FNDA:0,_ZNK12WPEFramework4Core11ProxyObjectINS0_7JSONRPC7MessageEE6AddRefEv
FNDA:71,_ZNK12WPEFramework4Core11ProxyObjectINS0_7ServiceINS_6Plugin10AppGatewayEEEE6AddRefEv
FNDA:24,_ZNK12WPEFramework4Core11ProxyObjectINS0_7ServiceINS_6Plugin24AppGatewayImplementationEEEE6AddRefEv
FNDA:0,_ZNK12WPEFramework4Core11ProxyObjectINS_3Web8ResponseEE6AddRefEv
FNDA:28,_ZNK12WPEFramework4Core11ProxyObjectINS_6Plugin24AppGatewayImplementation10RespondJobEE6AddRefEv
FNDA:0,_ZNK12WPEFramework4Core11ProxyObjectINS_6Plugin33AppGatewayResponderImplementation10RequestJobEE6AddRefEv
FNDA:0,_ZNK12WPEFramework4Core11ProxyObjectINS_6Plugin33AppGatewayResponderImplementation10RespondJobEE6AddRefEv
FNDA:0,_ZNK12WPEFramework4Core11ProxyObjectINS_6Plugin33AppGatewayResponderImplementation31ConnectionStatusNotificationJobEE6AddRefEv
FNDA:0,_ZNK12WPEFramework4Core11ProxyObjectINS_6Plugin33AppGatewayResponderImplementation7EmitJobEE6AddRefEv
FNDA:0,_ZNK12WPEFramework4Core11ProxyObjectINS_6Plugin33AppGatewayResponderImplementation8WsMsgJobEE6AddRefEv
FNDA:0,_ZNK12WPEFramework4Core11ProxyObjectINS_6Plugin8MetadataINS2_10AppGatewayEE20PluginImplementationIS4_EEE6AddRefEv
FNDA:0,_ZN12WPEFramework4Core18ProxyContainerTypeINS0_13ProxyPoolTypeINS_3Web12JSONBodyTypeINS0_7JSONRPC7MessageEEEEES7_S7_E6UnlinkEv
FNDA:0,_ZNK12WPEFramework4Core18ProxyContainerTypeINS0_13ProxyPoolTypeINS_3Web12JSONBodyTypeINS0_7JSONRPC7MessageEEEEES7_S7_E13IsInitializedEv
FNDA:0,_ZNK12WPEFramework4Core18ProxyContainerTypeINS0_13ProxyPoolTypeINS_3Web7RequestEEES4_S4_E13IsInitializedEv
FNDA:0,_ZN12WPEFramework4Core18ProxyContainerTypeINS0_13ProxyPoolTypeINS_3Web12JSONBodyTypeINS0_7JSONRPC7MessageEEEEES7_S7_E5ClearEv
FNDA:0,_ZN12WPEFramework4Core18ProxyContainerTypeINS0_13ProxyPoolTypeINS_3Web7RequestEEES4_S4_E5ClearEv
FNDA:0,_ZN12WPEFramework4Core18ProxyContainerTypeINS0_13ProxyPoolTypeINS_3Web12JSONBodyTypeINS0_7JSONRPC7MessageEEEEES7_S7_E10InitializeEv
FNDA:0,_ZN12WPEFramework4Core18ProxyContainerTypeINS0_13ProxyPoolTypeINS_3Web7RequestEEES4_S4_E10InitializeEv
FNDA:0,_ZN12WPEFramework4Core18ProxyContainerTypeINS0_13ProxyPoolTypeINS_3Web12JSONBodyTypeINS0_7JSONRPC7MessageEEEEES7_S7_E12DeinitializeEv
FNDA:0,_ZN12WPEFramework4Core18ProxyContainerTypeINS0_13ProxyPoolTypeINS_3Web7RequestEEES4_S4_E12DeinitializeEv
FNDA:0,_ZN12WPEFramework4Core18ProxyContainerTypeINS0_13ProxyPoolTypeINS_3Web12JSONBodyTypeINS0_7JSONRPC7MessageEEEEES7_S7_E7AcquireERNS0_9ProxyTypeIS9_EE
FNDA:0,_ZN12WPEFramework4Core18ProxyContainerTypeINS0_13ProxyPoolTypeINS_3Web7RequestEEES4_S4_E7AcquireERNS0_9ProxyTypeIS6_EE
FNDA:0,_ZN12WPEFramework4Core18ProxyContainerTypeINS0_13ProxyPoolTypeINS_3Web12JSONBodyTypeINS0_7JSONRPC7MessageEEEEES7_S7_E10RelinquishERNS0_9ProxyTypeIS9_EE
FNDA:0,_ZN12WPEFramework4Core18ProxyContainerTypeINS0_13ProxyPoolTypeINS_3Web7RequestEEES4_S4_E10RelinquishERNS0_9ProxyTypeIS6_EE
FNDA:0,_ZN12WPEFramework4Core18ProxyContainerTypeINS0_13ProxyPoolTypeINS_3Web12JSONBodyTypeINS0_7JSONRPC7MessageEEEEES7_S7_E6NotifyERNS0_9ProxyTypeIS9_EERK17TemplateIntToTypeILj1EE
FNDA:0,_ZN12WPEFramework4Core18ProxyContainerTypeINS0_13ProxyPoolTypeINS_3Web7RequestEEES4_S4_E6NotifyERNS0_9ProxyTypeIS6_EERK17TemplateIntToTypeILj1EE
FNDA:0,_ZN12WPEFramework4Core18ProxyContainerTypeINS0_13ProxyPoolTypeINS_3Web12JSONBodyTypeINS0_7JSONRPC7MessageEEEEES7_S7_E7__ClearIS7_EENS0_10TypeTraits9enable_ifIXsrNS9_8hasClearIT_vJEEE5valueEvE4typeEv
FNDA:0,_ZN12WPEFramework4Core18ProxyContainerTypeINS0_13ProxyPoolTypeINS_3Web7RequestEEES4_S4_E7__ClearIS4_EENS0_10TypeTraits9enable_ifIXsrNS6_8hasClearIT_vJEEE5valueEvE4typeEv
FNDA:0,_ZNK12WPEFramework4Core11ProxyObjectIN26WebSocketConnectionManager15WebSocketServerEE7ReleaseEv
FNDA:0,_ZNK12WPEFramework4Core11ProxyObjectINS0_15ServiceMetadataINS_6Plugin10AppGatewayEE21ServiceImplementationIS4_EEE7ReleaseEv
FNDA:0,_ZNK12WPEFramework4Core11ProxyObjectINS0_15ServiceMetadataINS_6Plugin24AppGatewayImplementationEE21ServiceImplementationIS4_EEE7ReleaseEv
FNDA:0,_ZNK12WPEFramework4Core11ProxyObjectINS0_15ServiceMetadataINS_6Plugin33AppGatewayResponderImplementationEE21ServiceImplementationIS4_EEE7ReleaseEv
FNDA:0,_ZNK12WPEFramework4Core11ProxyObjectINS0_18ProxyContainerTypeINS0_13ProxyPoolTypeINS_3Web12JSONBodyTypeINS0_7JSONRPC7MessageEEEEES8_S8_EEE7ReleaseEv
FNDA:0,_ZNK12WPEFramework4Core11ProxyObjectINS0_18ProxyContainerTypeINS0_13ProxyPoolTypeINS_3Web7RequestEEES5_S5_EEE7ReleaseEv
FNDA:0,_ZNK12WPEFramework4Core11ProxyObjectINS0_7JSONRPC7MessageEE7ReleaseEv
FNDA:71,_ZNK12WPEFramework4Core11ProxyObjectINS0_7ServiceINS_6Plugin10AppGatewayEEEE7ReleaseEv
FNDA:24,_ZNK12WPEFramework4Core11ProxyObjectINS0_7ServiceINS_6Plugin24AppGatewayImplementationEEEE7ReleaseEv
FNDA:0,_ZNK12WPEFramework4Core11ProxyObjectINS_3Web8ResponseEE7ReleaseEv
FNDA:28,_ZNK12WPEFramework4Core11ProxyObjectINS_6Plugin24AppGatewayImplementation10RespondJobEE7ReleaseEv
FNDA:0,_ZNK12WPEFramework4Core11ProxyObjectINS_6Plugin33AppGatewayResponderImplementation10RequestJobEE7ReleaseEv
FNDA:0,_ZNK12WPEFramework4Core11ProxyObjectINS_6Plugin33AppGatewayResponderImplementation10RespondJobEE7ReleaseEv
FNDA:0,_ZNK12WPEFramework4Core11ProxyObjectINS_6Plugin33AppGatewayResponderImplementation31ConnectionStatusNotificationJobEE7ReleaseEv
FNDA:0,_ZNK12WPEFramework4Core11ProxyObjectINS_6Plugin33AppGatewayResponderImplementation7EmitJobEE7ReleaseEv
FNDA:0,_ZNK12WPEFramework4Core11ProxyObjectINS_6Plugin33AppGatewayResponderImplementation8WsMsgJobEE7ReleaseEv
FNDA:0,_ZNK12WPEFramework4Core11ProxyObjectINS_6Plugin8MetadataINS2_10AppGatewayEE20PluginImplementationIS4_EEE7ReleaseEv
FNDA:0,_ZN12WPEFramework4Core18ProxyContainerTypeINS0_13ProxyPoolTypeINS_3Web12JSONBodyTypeINS0_7JSONRPC7MessageEEEEES7_S7_E12__InitializeIS7_EENS0_10TypeTraits9enable_ifIXntsrNS9_13hasInitializeIT_jJEEE5valueEjE4typeEv
FNDA:0,_ZN12WPEFramework4Core18ProxyContainerTypeINS0_13ProxyPoolTypeINS_3Web7RequestEEES4_S4_E12__InitializeIS4_EENS0_10TypeTraits9enable_ifIXntsrNS6_13hasInitializeIT_jJEEE5valueEjE4typeEv
FNDA:0,_ZN12WPEFramework4Core18ProxyContainerTypeINS0_13ProxyPoolTypeINS_3Web12JSONBodyTypeINS0_7JSONRPC7MessageEEEEES7_S7_E14__DeinitializeIS7_EENS0_10TypeTraits9enable_ifIXntsrNS9_15hasDeinitializeIT_vJEEE5valueEvE4typeEv
FNDA:0,_ZN12WPEFramework4Core18ProxyContainerTypeINS0_13ProxyPoolTypeINS_3Web7RequestEEES4_S4_E14__DeinitializeIS4_EENS0_10TypeTraits9enable_ifIXntsrNS6_15hasDeinitializeIT_vJEEE5valueEvE4typeEv
FNDA:0,_ZNK12WPEFramework4Core18ProxyContainerTypeINS0_13ProxyPoolTypeINS_3Web12JSONBodyTypeINS0_7JSONRPC7MessageEEEEES7_S7_E15__IsInitializedIS7_EENS0_10TypeTraits9enable_ifIXntsrNS9_16hasIsInitializedIKT_bJEEE5valueEbE4typeEv
FNDA:0,_ZNK12WPEFramework4Core18ProxyContainerTypeINS0_13ProxyPoolTypeINS_3Web7RequestEEES4_S4_E15__IsInitializedIS4_EENS0_10TypeTraits9enable_ifIXntsrNS6_16hasIsInitializedIKT_bJEEE5valueEbE4typeEv
FNDA:0,_ZN12WPEFramework4Core18ProxyContainerTypeINS0_13ProxyPoolTypeINS_3Web12JSONBodyTypeINS0_7JSONRPC7MessageEEEEES7_S7_E9__AcquireIS7_EENS0_10TypeTraits9enable_ifIXntsrNS9_10hasAcquireIT_vJRNS0_9ProxyTypeIS7_EEEEE5valueEvE4typeERNSF_IS9_EE
FNDA:0,_ZN12WPEFramework4Core18ProxyContainerTypeINS0_13ProxyPoolTypeINS_3Web7RequestEEES4_S4_E9__AcquireIS4_EENS0_10TypeTraits9enable_ifIXntsrNS6_10hasAcquireIT_vJRNS0_9ProxyTypeIS4_EEEEE5valueEvE4typeERNSC_IS6_EE
FNDA:0,_ZN12WPEFramework4Core18ProxyContainerTypeINS0_13ProxyPoolTypeINS_3Web12JSONBodyTypeINS0_7JSONRPC7MessageEEEEES7_S7_E12__RelinquishIS7_EENS0_10TypeTraits9enable_ifIXntsrNS9_13hasRelinquishIT_vJRNS0_9ProxyTypeIS7_EEEEE5valueEvE4typeERNSF_IS9_EE
FNDA:0,_ZN12WPEFramework4Core18ProxyContainerTypeINS0_13ProxyPoolTypeINS_3Web7RequestEEES4_S4_E12__RelinquishIS4_EENS0_10TypeTraits9enable_ifIXntsrNS6_13hasRelinquishIT_vJRNS0_9ProxyTypeIS4_EEEEE5valueEvE4typeERNSC_IS6_EE
FNDA:0,_ZN12WPEFramework4Core18ProxyContainerTypeINS0_13ProxyPoolTypeINS_3Web12JSONBodyTypeINS0_7JSONRPC7MessageEEEEES7_S7_E8__UnlinkIS7_EENS0_10TypeTraits9enable_ifIXntsrNS9_9hasUnlinkIT_vJEEE5valueEvE4typeEv
FNDA:0,_ZN12WPEFramework4Core18ProxyContainerTypeINS0_13ProxyPoolTypeINS_3Web7RequestEEES4_S4_E8__UnlinkIS4_EENS0_10TypeTraits9enable_ifIXntsrNS6_9hasUnlinkIT_vJEEE5valueEvE4typeEv
FNDA:0,_ZN12WPEFramework4Core13ProxyPoolTypeINS_3Web12JSONBodyTypeINS0_7JSONRPC7MessageEEEEC2IJEEEjDpOT_
FNDA:0,_ZN12WPEFramework4Core13ProxyPoolTypeINS_3Web12JSONBodyTypeINS0_7JSONRPC7MessageEEEED2Ev
FNDA:0,_ZN12WPEFramework4Core13ProxyPoolTypeINS_3Web12JSONBodyTypeINS0_7JSONRPC7MessageEEEE7ElementIJEEENS0_9ProxyTypeIS6_EEDpOT_
FNDA:0,_ZN12WPEFramework4Core13ProxyPoolTypeINS_3Web7RequestEE7ElementIJEEENS0_9ProxyTypeIS3_EEDpOT_
FNDA:0,_ZN12WPEFramework4Core13ProxyPoolTypeINS_3Web12JSONBodyTypeINS0_7JSONRPC7MessageEEEE6NotifyERNS0_9ProxyTypeINS0_18ProxyContainerTypeIS7_S6_S6_EEEE
FNDA:0,_ZN12WPEFramework4Core13ProxyPoolTypeINS_3Web7RequestEE6NotifyERNS0_9ProxyTypeINS0_18ProxyContainerTypeIS4_S3_S3_EEEE
FNDA:0,_ZN12WPEFramework4Core11ProxyObjectINS0_18ProxyContainerTypeINS0_13ProxyPoolTypeINS_3Web12JSONBodyTypeINS0_7JSONRPC7MessageEEEEES8_S8_EEE5ClearEv
FNDA:0,_ZN12WPEFramework4Core11ProxyObjectINS0_7JSONRPC7MessageEE5ClearEv
FNDA:0,_ZNK12WPEFramework4Core11ProxyObjectIN26WebSocketConnectionManager15WebSocketServerEE13IsInitializedEv
FNDA:0,_ZNK12WPEFramework4Core11ProxyObjectINS0_15ServiceMetadataINS_6Plugin10AppGatewayEE21ServiceImplementationIS4_EEE13IsInitializedEv
FNDA:0,_ZNK12WPEFramework4Core11ProxyObjectINS0_15ServiceMetadataINS_6Plugin24AppGatewayImplementationEE21ServiceImplementationIS4_EEE13IsInitializedEv
FNDA:0,_ZNK12WPEFramework4Core11ProxyObjectINS0_15ServiceMetadataINS_6Plugin33AppGatewayResponderImplementationEE21ServiceImplementationIS4_EEE13IsInitializedEv
FNDA:0,_ZNK12WPEFramework4Core11ProxyObjectINS0_18ProxyContainerTypeINS0_13ProxyPoolTypeINS_3Web12JSONBodyTypeINS0_7JSONRPC7MessageEEEEES8_S8_EEE13IsInitializedEv
FNDA:0,_ZNK12WPEFramework4Core11ProxyObjectINS0_18ProxyContainerTypeINS0_13ProxyPoolTypeINS_3Web7RequestEEES5_S5_EEE13IsInitializedEv
FNDA:0,_ZNK12WPEFramework4Core11ProxyObjectINS0_7JSONRPC7MessageEE13IsInitializedEv
FNDA:27,_ZNK12WPEFramework4Core11ProxyObjectINS0_7ServiceINS_6Plugin10AppGatewayEEEE13IsInitializedEv
FNDA:8,_ZNK12WPEFramework4Core11ProxyObjectINS0_7ServiceINS_6Plugin24AppGatewayImplementationEEEE13IsInitializedEv
FNDA:0,_ZNK12WPEFramework4Core11ProxyObjectINS_3Web8ResponseEE13IsInitializedEv
FNDA:7,_ZNK12WPEFramework4Core11ProxyObjectINS_6Plugin24AppGatewayImplementation10RespondJobEE13IsInitializedEv
FNDA:0,_ZNK12WPEFramework4Core11ProxyObjectINS_6Plugin33AppGatewayResponderImplementation10RequestJobEE13IsInitializedEv
FNDA:0,_ZNK12WPEFramework4Core11ProxyObjectINS_6Plugin33AppGatewayResponderImplementation10RespondJobEE13IsInitializedEv
FNDA:0,_ZNK12WPEFramework4Core11ProxyObjectINS_6Plugin33AppGatewayResponderImplementation31ConnectionStatusNotificationJobEE13IsInitializedEv
FNDA:0,_ZNK12WPEFramework4Core11ProxyObjectINS_6Plugin33AppGatewayResponderImplementation7EmitJobEE13IsInitializedEv
FNDA:0,_ZNK12WPEFramework4Core11ProxyObjectINS_6Plugin33AppGatewayResponderImplementation8WsMsgJobEE13IsInitializedEv
FNDA:0,_ZNK12WPEFramework4Core11ProxyObjectINS_6Plugin8MetadataINS2_10AppGatewayEE20PluginImplementationIS4_EEE13IsInitializedEv
FNDA:0,_ZN12WPEFramework4Core11ProxyObjectINS0_18ProxyContainerTypeINS0_13ProxyPoolTypeINS_3Web12JSONBodyTypeINS0_7JSONRPC7MessageEEEEES8_S8_EEE7__ClearISA_EENS0_10TypeTraits9enable_ifIXsrNSB_8hasClearIT_vJEEE5valueEvE4typeEv
FNDA:0,_ZN12WPEFramework4Core11ProxyObjectINS0_7JSONRPC7MessageEE7__ClearIS3_EENS0_10TypeTraits9enable_ifIXsrNS4_8hasClearIT_vJEEE5valueEvE4typeEv
FNDA:0,_ZN12WPEFramework4Core11ProxyObjectINS0_18ProxyContainerTypeINS0_13ProxyPoolTypeINS_3Web12JSONBodyTypeINS0_7JSONRPC7MessageEEEEES8_S8_EEE12__InitializeISA_EENS0_10TypeTraits9enable_ifIXsrNSB_13hasInitializeIT_jJEEE5valueEjE4typeEv
FNDA:0,_ZN12WPEFramework4Core11ProxyObjectINS0_18ProxyContainerTypeINS0_13ProxyPoolTypeINS_3Web7RequestEEES5_S5_EEE12__InitializeIS7_EENS0_10TypeTraits9enable_ifIXsrNS8_13hasInitializeIT_jJEEE5valueEjE4typeEv
FNDA:0,_ZN12WPEFramework4Core11ProxyObjectIN26WebSocketConnectionManager15WebSocketServerEE12__InitializeIS3_EENS0_10TypeTraits9enable_ifIXntsrNS4_13hasInitializeIT_jJEEE5valueEjE4typeEv
FNDA:0,_ZN12WPEFramework4Core11ProxyObjectINS0_15ServiceMetadataINS_6Plugin10AppGatewayEE21ServiceImplementationIS4_EEE12__InitializeIS7_EENS0_10TypeTraits9enable_ifIXntsrNS8_13hasInitializeIT_jJEEE5valueEjE4typeEv
FNDA:0,_ZN12WPEFramework4Core11ProxyObjectINS0_15ServiceMetadataINS_6Plugin24AppGatewayImplementationEE21ServiceImplementationIS4_EEE12__InitializeIS7_EENS0_10TypeTraits9enable_ifIXntsrNS8_13hasInitializeIT_jJEEE5valueEjE4typeEv
FNDA:0,_ZN12WPEFramework4Core11ProxyObjectINS0_15ServiceMetadataINS_6Plugin33AppGatewayResponderImplementationEE21ServiceImplementationIS4_EEE12__InitializeIS7_EENS0_10TypeTraits9enable_ifIXntsrNS8_13hasInitializeIT_jJEEE5valueEjE4typeEv
FNDA:0,_ZN12WPEFramework4Core11ProxyObjectINS0_7JSONRPC7MessageEE12__InitializeIS3_EENS0_10TypeTraits9enable_ifIXntsrNS4_13hasInitializeIT_jJEEE5valueEjE4typeEv
FNDA:27,_ZN12WPEFramework4Core11ProxyObjectINS0_7ServiceINS_6Plugin10AppGatewayEEEE12__InitializeIS5_EENS0_10TypeTraits9enable_ifIXntsrNS6_13hasInitializeIT_jJEEE5valueEjE4typeEv
FNDA:8,_ZN12WPEFramework4Core11ProxyObjectINS0_7ServiceINS_6Plugin24AppGatewayImplementationEEEE12__InitializeIS5_EENS0_10TypeTraits9enable_ifIXntsrNS6_13hasInitializeIT_jJEEE5valueEjE4typeEv
FNDA:0,_ZN12WPEFramework4Core11ProxyObjectINS_3Web8ResponseEE12__InitializeIS3_EENS0_10TypeTraits9enable_ifIXntsrNS4_13hasInitializeIT_jJEEE5valueEjE4typeEv
FNDA:7,_ZN12WPEFramework4Core11ProxyObjectINS_6Plugin24AppGatewayImplementation10RespondJobEE12__InitializeIS4_EENS0_10TypeTraits9enable_ifIXntsrNS5_13hasInitializeIT_jJEEE5valueEjE4typeEv
FNDA:0,_ZN12WPEFramework4Core11ProxyObjectINS_6Plugin33AppGatewayResponderImplementation10RequestJobEE12__InitializeIS4_EENS0_10TypeTraits9enable_ifIXntsrNS5_13hasInitializeIT_jJEEE5valueEjE4typeEv
FNDA:0,_ZN12WPEFramework4Core11ProxyObjectINS_6Plugin33AppGatewayResponderImplementation10RespondJobEE12__InitializeIS4_EENS0_10TypeTraits9enable_ifIXntsrNS5_13hasInitializeIT_jJEEE5valueEjE4typeEv
FNDA:0,_ZN12WPEFramework4Core11ProxyObjectINS_6Plugin33AppGatewayResponderImplementation31ConnectionStatusNotificationJobEE12__InitializeIS4_EENS0_10TypeTraits9enable_ifIXntsrNS5_13hasInitializeIT_jJEEE5valueEjE4typeEv
FNDA:0,_ZN12WPEFramework4Core11ProxyObjectINS_6Plugin33AppGatewayResponderImplementation7EmitJobEE12__InitializeIS4_EENS0_10TypeTraits9enable_ifIXntsrNS5_13hasInitializeIT_jJEEE5valueEjE4typeEv
FNDA:0,_ZN12WPEFramework4Core11ProxyObjectINS_6Plugin33AppGatewayResponderImplementation8WsMsgJobEE12__InitializeIS4_EENS0_10TypeTraits9enable_ifIXntsrNS5_13hasInitializeIT_jJEEE5valueEjE4typeEv
FNDA:0,_ZN12WPEFramework4Core11ProxyObjectINS_6Plugin8MetadataINS2_10AppGatewayEE20PluginImplementationIS4_EEE12__InitializeIS7_EENS0_10TypeTraits9enable_ifIXntsrNS8_13hasInitializeIT_jJEEE5valueEjE4typeEv
FNDA:0,_ZN12WPEFramework4Core11ProxyObjectINS0_18ProxyContainerTypeINS0_13ProxyPoolTypeINS_3Web12JSONBodyTypeINS0_7JSONRPC7MessageEEEEES8_S8_EEE14__DeinitializeISA_EENS0_10TypeTraits9enable_ifIXsrNSB_15hasDeinitializeIT_vJEEE5valueEvE4typeEv
FNDA:0,_ZN12WPEFramework4Core11ProxyObjectINS0_18ProxyContainerTypeINS0_13ProxyPoolTypeINS_3Web7RequestEEES5_S5_EEE14__DeinitializeIS7_EENS0_10TypeTraits9enable_ifIXsrNS8_15hasDeinitializeIT_vJEEE5valueEvE4typeEv
FNDA:0,_ZN12WPEFramework4Core11ProxyObjectIN26WebSocketConnectionManager15WebSocketServerEE14__DeinitializeIS3_EENS0_10TypeTraits9enable_ifIXntsrNS4_15hasDeinitializeIT_vJEEE5valueEvE4typeEv
FNDA:0,_ZN12WPEFramework4Core11ProxyObjectINS0_15ServiceMetadataINS_6Plugin10AppGatewayEE21ServiceImplementationIS4_EEE14__DeinitializeIS7_EENS0_10TypeTraits9enable_ifIXntsrNS8_15hasDeinitializeIT_vJEEE5valueEvE4typeEv
FNDA:0,_ZN12WPEFramework4Core11ProxyObjectINS0_15ServiceMetadataINS_6Plugin24AppGatewayImplementationEE21ServiceImplementationIS4_EEE14__DeinitializeIS7_EENS0_10TypeTraits9enable_ifIXntsrNS8_15hasDeinitializeIT_vJEEE5valueEvE4typeEv
FNDA:0,_ZN12WPEFramework4Core11ProxyObjectINS0_15ServiceMetadataINS_6Plugin33AppGatewayResponderImplementationEE21ServiceImplementationIS4_EEE14__DeinitializeIS7_EENS0_10TypeTraits9enable_ifIXntsrNS8_15hasDeinitializeIT_vJEEE5valueEvE4typeEv
FNDA:0,_ZN12WPEFramework4Core11ProxyObjectINS0_7JSONRPC7MessageEE14__DeinitializeIS3_EENS0_10TypeTraits9enable_ifIXntsrNS4_15hasDeinitializeIT_vJEEE5valueEvE4typeEv
FNDA:27,_ZN12WPEFramework4Core11ProxyObjectINS0_7ServiceINS_6Plugin10AppGatewayEEEE14__DeinitializeIS5_EENS0_10TypeTraits9enable_ifIXntsrNS6_15hasDeinitializeIT_vJEEE5valueEvE4typeEv
FNDA:8,_ZN12WPEFramework4Core11ProxyObjectINS0_7ServiceINS_6Plugin24AppGatewayImplementationEEEE14__DeinitializeIS5_EENS0_10TypeTraits9enable_ifIXntsrNS6_15hasDeinitializeIT_vJEEE5valueEvE4typeEv
FNDA:0,_ZN12WPEFramework4Core11ProxyObjectINS_3Web8ResponseEE14__DeinitializeIS3_EENS0_10TypeTraits9enable_ifIXntsrNS4_15hasDeinitializeIT_vJEEE5valueEvE4typeEv
FNDA:7,_ZN12WPEFramework4Core11ProxyObjectINS_6Plugin24AppGatewayImplementation10RespondJobEE14__DeinitializeIS4_EENS0_10TypeTraits9enable_ifIXntsrNS5_15hasDeinitializeIT_vJEEE5valueEvE4typeEv
FNDA:0,_ZN12WPEFramework4Core11ProxyObjectINS_6Plugin33AppGatewayResponderImplementation10RequestJobEE14__DeinitializeIS4_EENS0_10TypeTraits9enable_ifIXntsrNS5_15hasDeinitializeIT_vJEEE5valueEvE4typeEv
FNDA:0,_ZN12WPEFramework4Core11ProxyObjectINS_6Plugin33AppGatewayResponderImplementation10RespondJobEE14__DeinitializeIS4_EENS0_10TypeTraits9enable_ifIXntsrNS5_15hasDeinitializeIT_vJEEE5valueEvE4typeEv
FNDA:0,_ZN12WPEFramework4Core11ProxyObjectINS_6Plugin33AppGatewayResponderImplementation31ConnectionStatusNotificationJobEE14__DeinitializeIS4_EENS0_10TypeTraits9enable_ifIXntsrNS5_15hasDeinitializeIT_vJEEE5valueEvE4typeEv
FNDA:0,_ZN12WPEFramework4Core11ProxyObjectINS_6Plugin33AppGatewayResponderImplementation7EmitJobEE14__DeinitializeIS4_EENS0_10TypeTraits9enable_ifIXntsrNS5_15hasDeinitializeIT_vJEEE5valueEvE4typeEv
FNDA:0,_ZN12WPEFramework4Core11ProxyObjectINS_6Plugin33AppGatewayResponderImplementation8WsMsgJobEE14__DeinitializeIS4_EENS0_10TypeTraits9enable_ifIXntsrNS5_15hasDeinitializeIT_vJEEE5valueEvE4typeEv
FNDA:0,_ZN12WPEFramework4Core11ProxyObjectINS_6Plugin8MetadataINS2_10AppGatewayEE20PluginImplementationIS4_EEE14__DeinitializeIS7_EENS0_10TypeTraits9enable_ifIXntsrNS8_15hasDeinitializeIT_vJEEE5valueEvE4typeEv
FNDA:0,_ZN12WPEFramework4Core11ProxyObjectINS0_15ServiceMetadataINS_6Plugin10AppGatewayEE21ServiceImplementationIS4_EEE12__DestructedIS7_EENS0_10TypeTraits9enable_ifIXsrNS8_13hasDestructedIT_vJEEE5valueEvE4typeEv
FNDA:0,_ZN12WPEFramework4Core11ProxyObjectINS0_15ServiceMetadataINS_6Plugin24AppGatewayImplementationEE21ServiceImplementationIS4_EEE12__DestructedIS7_EENS0_10TypeTraits9enable_ifIXsrNS8_13hasDestructedIT_vJEEE5valueEvE4typeEv
FNDA:0,_ZN12WPEFramework4Core11ProxyObjectINS0_15ServiceMetadataINS_6Plugin33AppGatewayResponderImplementationEE21ServiceImplementationIS4_EEE12__DestructedIS7_EENS0_10TypeTraits9enable_ifIXsrNS8_13hasDestructedIT_vJEEE5valueEvE4typeEv
FNDA:0,_ZN12WPEFramework4Core11ProxyObjectINS_6Plugin8MetadataINS2_10AppGatewayEE20PluginImplementationIS4_EEE12__DestructedIS7_EENS0_10TypeTraits9enable_ifIXsrNS8_13hasDestructedIT_vJEEE5valueEvE4typeEv
FNDA:0,_ZN12WPEFramework4Core11ProxyObjectIN26WebSocketConnectionManager15WebSocketServerEE12__DestructedIS3_EENS0_10TypeTraits9enable_ifIXntsrNS4_13hasDestructedIT_vJEEE5valueEvE4typeEv
FNDA:0,_ZN12WPEFramework4Core11ProxyObjectINS0_18ProxyContainerTypeINS0_13ProxyPoolTypeINS_3Web12JSONBodyTypeINS0_7JSONRPC7MessageEEEEES8_S8_EEE12__DestructedISA_EENS0_10TypeTraits9enable_ifIXntsrNSB_13hasDestructedIT_vJEEE5valueEvE4typeEv
FNDA:0,_ZN12WPEFramework4Core11ProxyObjectINS0_18ProxyContainerTypeINS0_13ProxyPoolTypeINS_3Web7RequestEEES5_S5_EEE12__DestructedIS7_EENS0_10TypeTraits9enable_ifIXntsrNS8_13hasDestructedIT_vJEEE5valueEvE4typeEv
FNDA:0,_ZN12WPEFramework4Core11ProxyObjectINS0_7JSONRPC7MessageEE12__DestructedIS3_EENS0_10TypeTraits9enable_ifIXntsrNS4_13hasDestructedIT_vJEEE5valueEvE4typeEv
FNDA:27,_ZN12WPEFramework4Core11ProxyObjectINS0_7ServiceINS_6Plugin10AppGatewayEEEE12__DestructedIS5_EENS0_10TypeTraits9enable_ifIXntsrNS6_13hasDestructedIT_vJEEE5valueEvE4typeEv
FNDA:8,_ZN12WPEFramework4Core11ProxyObjectINS0_7ServiceINS_6Plugin24AppGatewayImplementationEEEE12__DestructedIS5_EENS0_10TypeTraits9enable_ifIXntsrNS6_13hasDestructedIT_vJEEE5valueEvE4typeEv
FNDA:0,_ZN12WPEFramework4Core11ProxyObjectINS_3Web8ResponseEE12__DestructedIS3_EENS0_10TypeTraits9enable_ifIXntsrNS4_13hasDestructedIT_vJEEE5valueEvE4typeEv
FNDA:7,_ZN12WPEFramework4Core11ProxyObjectINS_6Plugin24AppGatewayImplementation10RespondJobEE12__DestructedIS4_EENS0_10TypeTraits9enable_ifIXntsrNS5_13hasDestructedIT_vJEEE5valueEvE4typeEv
FNDA:0,_ZN12WPEFramework4Core11ProxyObjectINS_6Plugin33AppGatewayResponderImplementation10RequestJobEE12__DestructedIS4_EENS0_10TypeTraits9enable_ifIXntsrNS5_13hasDestructedIT_vJEEE5valueEvE4typeEv
FNDA:0,_ZN12WPEFramework4Core11ProxyObjectINS_6Plugin33AppGatewayResponderImplementation10RespondJobEE12__DestructedIS4_EENS0_10TypeTraits9enable_ifIXntsrNS5_13hasDestructedIT_vJEEE5valueEvE4typeEv
FNDA:0,_ZN12WPEFramework4Core11ProxyObjectINS_6Plugin33AppGatewayResponderImplementation31ConnectionStatusNotificationJobEE12__DestructedIS4_EENS0_10TypeTraits9enable_ifIXntsrNS5_13hasDestructedIT_vJEEE5valueEvE4typeEv
FNDA:0,_ZN12WPEFramework4Core11ProxyObjectINS_6Plugin33AppGatewayResponderImplementation7EmitJobEE12__DestructedIS4_EENS0_10TypeTraits9enable_ifIXntsrNS5_13hasDestructedIT_vJEEE5valueEvE4typeEv
FNDA:0,_ZN12WPEFramework4Core11ProxyObjectINS_6Plugin33AppGatewayResponderImplementation8WsMsgJobEE12__DestructedIS4_EENS0_10TypeTraits9enable_ifIXntsrNS5_13hasDestructedIT_vJEEE5valueEvE4typeEv
FNDA:0,_ZNK12WPEFramework4Core11ProxyObjectINS0_18ProxyContainerTypeINS0_13ProxyPoolTypeINS_3Web12JSONBodyTypeINS0_7JSONRPC7MessageEEEEES8_S8_EEE15__IsInitializedISA_EENS0_10TypeTraits9enable_ifIXsrNSB_16hasIsInitializedIKT_bJEEE5valueEbE4typeEv
FNDA:0,_ZNK12WPEFramework4Core11ProxyObjectINS0_18ProxyContainerTypeINS0_13ProxyPoolTypeINS_3Web7RequestEEES5_S5_EEE15__IsInitializedIS7_EENS0_10TypeTraits9enable_ifIXsrNS8_16hasIsInitializedIKT_bJEEE5valueEbE4typeEv
FNDA:0,_ZNK12WPEFramework4Core11ProxyObjectIN26WebSocketConnectionManager15WebSocketServerEE15__IsInitializedIS3_EENS0_10TypeTraits9enable_ifIXntsrNS4_16hasIsInitializedIKT_bJEEE5valueEbE4typeEv
FNDA:0,_ZNK12WPEFramework4Core11ProxyObjectINS0_15ServiceMetadataINS_6Plugin10AppGatewayEE21ServiceImplementationIS4_EEE15__IsInitializedIS7_EENS0_10TypeTraits9enable_ifIXntsrNS8_16hasIsInitializedIKT_bJEEE5valueEbE4typeEv
FNDA:0,_ZNK12WPEFramework4Core11ProxyObjectINS0_15ServiceMetadataINS_6Plugin24AppGatewayImplementationEE21ServiceImplementationIS4_EEE15__IsInitializedIS7_EENS0_10TypeTraits9enable_ifIXntsrNS8_16hasIsInitializedIKT_bJEEE5valueEbE4typeEv
FNDA:0,_ZNK12WPEFramework4Core11ProxyObjectINS0_15ServiceMetadataINS_6Plugin33AppGatewayResponderImplementationEE21ServiceImplementationIS4_EEE15__IsInitializedIS7_EENS0_10TypeTraits9enable_ifIXntsrNS8_16hasIsInitializedIKT_bJEEE5valueEbE4typeEv
FNDA:0,_ZNK12WPEFramework4Core11ProxyObjectINS0_7JSONRPC7MessageEE15__IsInitializedIS3_EENS0_10TypeTraits9enable_ifIXntsrNS4_16hasIsInitializedIKT_bJEEE5valueEbE4typeEv
FNDA:27,_ZNK12WPEFramework4Core11ProxyObjectINS0_7ServiceINS_6Plugin10AppGatewayEEEE15__IsInitializedIS5_EENS0_10TypeTraits9enable_ifIXntsrNS6_16hasIsInitializedIKT_bJEEE5valueEbE4typeEv
FNDA:8,_ZNK12WPEFramework4Core11ProxyObjectINS0_7ServiceINS_6Plugin24AppGatewayImplementationEEEE15__IsInitializedIS5_EENS0_10TypeTraits9enable_ifIXntsrNS6_16hasIsInitializedIKT_bJEEE5valueEbE4typeEv
FNDA:0,_ZNK12WPEFramework4Core11ProxyObjectINS_3Web8ResponseEE15__IsInitializedIS3_EENS0_10TypeTraits9enable_ifIXntsrNS4_16hasIsInitializedIKT_bJEEE5valueEbE4typeEv
FNDA:7,_ZNK12WPEFramework4Core11ProxyObjectINS_6Plugin24AppGatewayImplementation10RespondJobEE15__IsInitializedIS4_EENS0_10TypeTraits9enable_ifIXntsrNS5_16hasIsInitializedIKT_bJEEE5valueEbE4typeEv
FNDA:0,_ZNK12WPEFramework4Core11ProxyObjectINS_6Plugin33AppGatewayResponderImplementation10RequestJobEE15__IsInitializedIS4_EENS0_10TypeTraits9enable_ifIXntsrNS5_16hasIsInitializedIKT_bJEEE5valueEbE4typeEv
FNDA:0,_ZNK12WPEFramework4Core11ProxyObjectINS_6Plugin33AppGatewayResponderImplementation10RespondJobEE15__IsInitializedIS4_EENS0_10TypeTraits9enable_ifIXntsrNS5_16hasIsInitializedIKT_bJEEE5valueEbE4typeEv
FNDA:0,_ZNK12WPEFramework4Core11ProxyObjectINS_6Plugin33AppGatewayResponderImplementation31ConnectionStatusNotificationJobEE15__IsInitializedIS4_EENS0_10TypeTraits9enable_ifIXntsrNS5_16hasIsInitializedIKT_bJEEE5valueEbE4typeEv
FNDA:0,_ZNK12WPEFramework4Core11ProxyObjectINS_6Plugin33AppGatewayResponderImplementation7EmitJobEE15__IsInitializedIS4_EENS0_10TypeTraits9enable_ifIXntsrNS5_16hasIsInitializedIKT_bJEEE5valueEbE4typeEv
FNDA:0,_ZNK12WPEFramework4Core11ProxyObjectINS_6Plugin33AppGatewayResponderImplementation8WsMsgJobEE15__IsInitializedIS4_EENS0_10TypeTraits9enable_ifIXntsrNS5_16hasIsInitializedIKT_bJEEE5valueEbE4typeEv
FNDA:0,_ZNK12WPEFramework4Core11ProxyObjectINS_6Plugin8MetadataINS2_10AppGatewayEE20PluginImplementationIS4_EEE15__IsInitializedIS7_EENS0_10TypeTraits9enable_ifIXntsrNS8_16hasIsInitializedIKT_bJEEE5valueEbE4typeEv
FNDA:0,_ZN12WPEFramework4Core11ProxyObjectINS0_18ProxyContainerTypeINS0_13ProxyPoolTypeINS_3Web12JSONBodyTypeINS0_7JSONRPC7MessageEEEEES8_S8_EEE9__AcquireISA_EENS0_10TypeTraits9enable_ifIXsrNSB_10hasAcquireIT_vJRNS0_9ProxyTypeISG_EEEEE5valueEvE4typeEv
FNDA:0,_ZN12WPEFramework4Core11ProxyObjectINS0_18ProxyContainerTypeINS0_13ProxyPoolTypeINS_3Web7RequestEEES5_S5_EEE9__AcquireIS7_EENS0_10TypeTraits9enable_ifIXsrNS8_10hasAcquireIT_vJRNS0_9ProxyTypeISD_EEEEE5valueEvE4typeEv
FNDA:0,_ZN12WPEFramework4Core11ProxyObjectIN26WebSocketConnectionManager15WebSocketServerEE9__AcquireIS3_EENS0_10TypeTraits9enable_ifIXntsrNS4_10hasAcquireIT_vJRNS0_9ProxyTypeIS9_EEEEE5valueEvE4typeEv
FNDA:0,_ZN12WPEFramework4Core11ProxyObjectINS0_15ServiceMetadataINS_6Plugin10AppGatewayEE21ServiceImplementationIS4_EEE9__AcquireIS7_EENS0_10TypeTraits9enable_ifIXntsrNS8_10hasAcquireIT_vJRNS0_9ProxyTypeISD_EEEEE5valueEvE4typeEv
FNDA:0,_ZN12WPEFramework4Core11ProxyObjectINS0_15ServiceMetadataINS_6Plugin24AppGatewayImplementationEE21ServiceImplementationIS4_EEE9__AcquireIS7_EENS0_10TypeTraits9enable_ifIXntsrNS8_10hasAcquireIT_vJRNS0_9ProxyTypeISD_EEEEE5valueEvE4typeEv
FNDA:0,_ZN12WPEFramework4Core11ProxyObjectINS0_15ServiceMetadataINS_6Plugin33AppGatewayResponderImplementationEE21ServiceImplementationIS4_EEE9__AcquireIS7_EENS0_10TypeTraits9enable_ifIXntsrNS8_10hasAcquireIT_vJRNS0_9ProxyTypeISD_EEEEE5valueEvE4typeEv
FNDA:0,_ZN12WPEFramework4Core11ProxyObjectINS0_7JSONRPC7MessageEE9__AcquireIS3_EENS0_10TypeTraits9enable_ifIXntsrNS4_10hasAcquireIT_vJRNS0_9ProxyTypeIS9_EEEEE5valueEvE4typeEv
FNDA:44,_ZN12WPEFramework4Core11ProxyObjectINS0_7ServiceINS_6Plugin10AppGatewayEEEE9__AcquireIS5_EENS0_10TypeTraits9enable_ifIXntsrNS6_10hasAcquireIT_vJRNS0_9ProxyTypeISB_EEEEE5valueEvE4typeEv
FNDA:16,_ZN12WPEFramework4Core11ProxyObjectINS0_7ServiceINS_6Plugin24AppGatewayImplementationEEEE9__AcquireIS5_EENS0_10TypeTraits9enable_ifIXntsrNS6_10hasAcquireIT_vJRNS0_9ProxyTypeISB_EEEEE5valueEvE4typeEv
FNDA:0,_ZN12WPEFramework4Core11ProxyObjectINS_3Web8ResponseEE9__AcquireIS3_EENS0_10TypeTraits9enable_ifIXntsrNS4_10hasAcquireIT_vJRNS0_9ProxyTypeIS9_EEEEE5valueEvE4typeEv
FNDA:21,_ZN12WPEFramework4Core11ProxyObjectINS_6Plugin24AppGatewayImplementation10RespondJobEE9__AcquireIS4_EENS0_10TypeTraits9enable_ifIXntsrNS5_10hasAcquireIT_vJRNS0_9ProxyTypeISA_EEEEE5valueEvE4typeEv
FNDA:0,_ZN12WPEFramework4Core11ProxyObjectINS_6Plugin33AppGatewayResponderImplementation10RequestJobEE9__AcquireIS4_EENS0_10TypeTraits9enable_ifIXntsrNS5_10hasAcquireIT_vJRNS0_9ProxyTypeISA_EEEEE5valueEvE4typeEv
FNDA:0,_ZN12WPEFramework4Core11ProxyObjectINS_6Plugin33AppGatewayResponderImplementation10RespondJobEE9__AcquireIS4_EENS0_10TypeTraits9enable_ifIXntsrNS5_10hasAcquireIT_vJRNS0_9ProxyTypeISA_EEEEE5valueEvE4typeEv
FNDA:0,_ZN12WPEFramework4Core11ProxyObjectINS_6Plugin33AppGatewayResponderImplementation31ConnectionStatusNotificationJobEE9__AcquireIS4_EENS0_10TypeTraits9enable_ifIXntsrNS5_10hasAcquireIT_vJRNS0_9ProxyTypeISA_EEEEE5valueEvE4typeEv
FNDA:0,_ZN12WPEFramework4Core11ProxyObjectINS_6Plugin33AppGatewayResponderImplementation7EmitJobEE9__AcquireIS4_EENS0_10TypeTraits9enable_ifIXntsrNS5_10hasAcquireIT_vJRNS0_9ProxyTypeISA_EEEEE5valueEvE4typeEv
FNDA:0,_ZN12WPEFramework4Core11ProxyObjectINS_6Plugin33AppGatewayResponderImplementation8WsMsgJobEE9__AcquireIS4_EENS0_10TypeTraits9enable_ifIXntsrNS5_10hasAcquireIT_vJRNS0_9ProxyTypeISA_EEEEE5valueEvE4typeEv
FNDA:0,_ZN12WPEFramework4Core11ProxyObjectINS_6Plugin8MetadataINS2_10AppGatewayEE20PluginImplementationIS4_EEE9__AcquireIS7_EENS0_10TypeTraits9enable_ifIXntsrNS8_10hasAcquireIT_vJRNS0_9ProxyTypeISD_EEEEE5valueEvE4typeEv
FNDA:0,_ZN12WPEFramework4Core11ProxyObjectINS0_18ProxyContainerTypeINS0_13ProxyPoolTypeINS_3Web12JSONBodyTypeINS0_7JSONRPC7MessageEEEEES8_S8_EEE12__RelinquishISA_EENS0_10TypeTraits9enable_ifIXsrNSB_13hasRelinquishIT_vJRNS0_9ProxyTypeISG_EEEEE5valueEvE4typeEv
FNDA:0,_ZN12WPEFramework4Core11ProxyObjectINS0_18ProxyContainerTypeINS0_13ProxyPoolTypeINS_3Web7RequestEEES5_S5_EEE12__RelinquishIS7_EENS0_10TypeTraits9enable_ifIXsrNS8_13hasRelinquishIT_vJRNS0_9ProxyTypeISD_EEEEE5valueEvE4typeEv
FNDA:0,_ZN12WPEFramework4Core11ProxyObjectIN26WebSocketConnectionManager15WebSocketServerEE12__RelinquishIS3_EENS0_10TypeTraits9enable_ifIXntsrNS4_13hasRelinquishIT_vJRNS0_9ProxyTypeIS9_EEEEE5valueEvE4typeEv
FNDA:0,_ZN12WPEFramework4Core11ProxyObjectINS0_15ServiceMetadataINS_6Plugin10AppGatewayEE21ServiceImplementationIS4_EEE12__RelinquishIS7_EENS0_10TypeTraits9enable_ifIXntsrNS8_13hasRelinquishIT_vJRNS0_9ProxyTypeISD_EEEEE5valueEvE4typeEv
FNDA:0,_ZN12WPEFramework4Core11ProxyObjectINS0_15ServiceMetadataINS_6Plugin24AppGatewayImplementationEE21ServiceImplementationIS4_EEE12__RelinquishIS7_EENS0_10TypeTraits9enable_ifIXntsrNS8_13hasRelinquishIT_vJRNS0_9ProxyTypeISD_EEEEE5valueEvE4typeEv
FNDA:0,_ZN12WPEFramework4Core11ProxyObjectINS0_15ServiceMetadataINS_6Plugin33AppGatewayResponderImplementationEE21ServiceImplementationIS4_EEE12__RelinquishIS7_EENS0_10TypeTraits9enable_ifIXntsrNS8_13hasRelinquishIT_vJRNS0_9ProxyTypeISD_EEEEE5valueEvE4typeEv
FNDA:0,_ZN12WPEFramework4Core11ProxyObjectINS0_7JSONRPC7MessageEE12__RelinquishIS3_EENS0_10TypeTraits9enable_ifIXntsrNS4_13hasRelinquishIT_vJRNS0_9ProxyTypeIS9_EEEEE5valueEvE4typeEv
FNDA:44,_ZN12WPEFramework4Core11ProxyObjectINS0_7ServiceINS_6Plugin10AppGatewayEEEE12__RelinquishIS5_EENS0_10TypeTraits9enable_ifIXntsrNS6_13hasRelinquishIT_vJRNS0_9ProxyTypeISB_EEEEE5valueEvE4typeEv
FNDA:16,_ZN12WPEFramework4Core11ProxyObjectINS0_7ServiceINS_6Plugin24AppGatewayImplementationEEEE12__RelinquishIS5_EENS0_10TypeTraits9enable_ifIXntsrNS6_13hasRelinquishIT_vJRNS0_9ProxyTypeISB_EEEEE5valueEvE4typeEv
FNDA:0,_ZN12WPEFramework4Core11ProxyObjectINS_3Web8ResponseEE12__RelinquishIS3_EENS0_10TypeTraits9enable_ifIXntsrNS4_13hasRelinquishIT_vJRNS0_9ProxyTypeIS9_EEEEE5valueEvE4typeEv
FNDA:21,_ZN12WPEFramework4Core11ProxyObjectINS_6Plugin24AppGatewayImplementation10RespondJobEE12__RelinquishIS4_EENS0_10TypeTraits9enable_ifIXntsrNS5_13hasRelinquishIT_vJRNS0_9ProxyTypeISA_EEEEE5valueEvE4typeEv
FNDA:0,_ZN12WPEFramework4Core11ProxyObjectINS_6Plugin33AppGatewayResponderImplementation10RequestJobEE12__RelinquishIS4_EENS0_10TypeTraits9enable_ifIXntsrNS5_13hasRelinquishIT_vJRNS0_9ProxyTypeISA_EEEEE5valueEvE4typeEv
FNDA:0,_ZN12WPEFramework4Core11ProxyObjectINS_6Plugin33AppGatewayResponderImplementation10RespondJobEE12__RelinquishIS4_EENS0_10TypeTraits9enable_ifIXntsrNS5_13hasRelinquishIT_vJRNS0_9ProxyTypeISA_EEEEE5valueEvE4typeEv
FNDA:0,_ZN12WPEFramework4Core11ProxyObjectINS_6Plugin33AppGatewayResponderImplementation31ConnectionStatusNotificationJobEE12__RelinquishIS4_EENS0_10TypeTraits9enable_ifIXntsrNS5_13hasRelinquishIT_vJRNS0_9ProxyTypeISA_EEEEE5valueEvE4typeEv
FNDA:0,_ZN12WPEFramework4Core11ProxyObjectINS_6Plugin33AppGatewayResponderImplementation7EmitJobEE12__RelinquishIS4_EENS0_10TypeTraits9enable_ifIXntsrNS5_13hasRelinquishIT_vJRNS0_9ProxyTypeISA_EEEEE5valueEvE4typeEv
FNDA:0,_ZN12WPEFramework4Core11ProxyObjectINS_6Plugin33AppGatewayResponderImplementation8WsMsgJobEE12__RelinquishIS4_EENS0_10TypeTraits9enable_ifIXntsrNS5_13hasRelinquishIT_vJRNS0_9ProxyTypeISA_EEEEE5valueEvE4typeEv
FNDA:0,_ZN12WPEFramework4Core11ProxyObjectINS_6Plugin8MetadataINS2_10AppGatewayEE20PluginImplementationIS4_EEE12__RelinquishIS7_EENS0_10TypeTraits9enable_ifIXntsrNS8_13hasRelinquishIT_vJRNS0_9ProxyTypeISD_EEEEE5valueEvE4typeEv
FNDA:0,_ZN12WPEFramework4Core9ProxyTypeINS0_18ProxyContainerTypeINS0_13ProxyPoolTypeINS_3Web12JSONBodyTypeINS0_7JSONRPC7MessageEEEEES8_S8_EEE4LoadISA_EEvRNS0_11ProxyObjectIT_EE
FNDA:0,_ZN12WPEFramework4Core9ProxyTypeINS0_18ProxyContainerTypeINS0_13ProxyPoolTypeINS_3Web7RequestEEES5_S5_EEE4LoadIS7_EEvRNS0_11ProxyObjectIT_EE
FNDA:0,_ZN12WPEFramework4Core9ProxyTypeINS0_18ProxyContainerTypeINS0_13ProxyPoolTypeINS_3Web12JSONBodyTypeINS0_7JSONRPC7MessageEEEEES8_S8_EEE5ResetEv
FNDA:0,_ZN12WPEFramework4Core9ProxyTypeINS0_18ProxyContainerTypeINS0_13ProxyPoolTypeINS_3Web7RequestEEES5_S5_EEE5ResetEv
FNDA:0,_ZN12WPEFramework4Core9ProxyTypeINS0_4JSON8IElementEE5ResetEv
FNDA:0,_ZN12WPEFramework4Core9ProxyTypeINS0_7JSONRPC7MessageEE5ResetEv
FNDA:0,_ZN12WPEFramework4Core9ProxyTypeINS_3Web12JSONBodyTypeINS0_7JSONRPC7MessageEEEE5ResetEv
FNDA:0,_ZN12WPEFramework4Core9ProxyTypeINS_3Web7RequestEE5ResetEv
FNDA:0,_ZN12WPEFramework4Core9ProxyTypeINS_3Web8ResponseEE5ResetEv
FNDA:7,_ZN12WPEFramework4Core9ProxyTypeINS_6Plugin24AppGatewayImplementation10RespondJobEE5ResetEv
FNDA:0,_ZN12WPEFramework4Core9ProxyTypeINS_6Plugin33AppGatewayResponderImplementation10RequestJobEE5ResetEv
FNDA:0,_ZN12WPEFramework4Core9ProxyTypeINS_6Plugin33AppGatewayResponderImplementation10RespondJobEE5ResetEv
FNDA:0,_ZN12WPEFramework4Core9ProxyTypeINS_6Plugin33AppGatewayResponderImplementation31ConnectionStatusNotificationJobEE5ResetEv
FNDA:0,_ZN12WPEFramework4Core9ProxyTypeINS_6Plugin33AppGatewayResponderImplementation7EmitJobEE5ResetEv
FNDA:0,_ZN12WPEFramework4Core9ProxyTypeINS_6Plugin33AppGatewayResponderImplementation8WsMsgJobEE5ResetEv
FNDA:0,_ZN12WPEFramework4Core9ProxyTypeINS0_4JSON8IElementEEC2EPNS0_17IReferenceCountedE
FNDA:0,_ZN12WPEFramework4Core9ProxyTypeINS0_7JSONRPC7MessageEEC2EPNS0_17IReferenceCountedE
FNDA:0,_ZN12WPEFramework4Core9ProxyTypeINS_3Web8ResponseEEC2EPNS0_17IReferenceCountedE
FNDA:0,_ZN12WPEFramework4Core9ProxyTypeIN26WebSocketConnectionManager15WebSocketServerEEC2Ev
FNDA:0,_ZN12WPEFramework4Core9ProxyTypeINS0_18ProxyContainerTypeINS0_13ProxyPoolTypeINS_3Web12JSONBodyTypeINS0_7JSONRPC7MessageEEEEES8_S8_EEEC2Ev
FNDA:0,_ZN12WPEFramework4Core9ProxyTypeINS0_18ProxyContainerTypeINS0_13ProxyPoolTypeINS_3Web7RequestEEES5_S5_EEEC2Ev
FNDA:0,_ZN12WPEFramework4Core9ProxyTypeINS0_4JSON8IElementEEC2Ev
FNDA:3,_ZN12WPEFramework4Core9ProxyTypeINS0_9IDispatchEEC2Ev
FNDA:0,_ZN12WPEFramework4Core9ProxyTypeINS_3Web12JSONBodyTypeINS0_7JSONRPC7MessageEEEEC2Ev
FNDA:0,_ZN12WPEFramework4Core9ProxyTypeINS_3Web5IBodyEEC2Ev
FNDA:0,_ZN12WPEFramework4Core9ProxyTypeINS_3Web7RequestEEC2Ev
FNDA:0,_ZN12WPEFramework4Core9ProxyTypeINS_3Web8ResponseEEC2Ev
FNDA:0,_ZN12WPEFramework4Core9ProxyTypeIN26WebSocketConnectionManager15WebSocketServerEEC2ERNS0_11ProxyObjectIS3_EE
FNDA:0,_ZN12WPEFramework4Core9ProxyTypeINS0_15ServiceMetadataINS_6Plugin10AppGatewayEE21ServiceImplementationIS4_EEEC2ERNS0_11ProxyObjectIS7_EE
FNDA:0,_ZN12WPEFramework4Core9ProxyTypeINS0_15ServiceMetadataINS_6Plugin24AppGatewayImplementationEE21ServiceImplementationIS4_EEEC2ERNS0_11ProxyObjectIS7_EE
FNDA:0,_ZN12WPEFramework4Core9ProxyTypeINS0_15ServiceMetadataINS_6Plugin33AppGatewayResponderImplementationEE21ServiceImplementationIS4_EEEC2ERNS0_11ProxyObjectIS7_EE
FNDA:0,_ZN12WPEFramework4Core9ProxyTypeINS0_18ProxyContainerTypeINS0_13ProxyPoolTypeINS_3Web12JSONBodyTypeINS0_7JSONRPC7MessageEEEEES8_S8_EEEC2ERNS0_11ProxyObjectISA_EE
FNDA:0,_ZN12WPEFramework4Core9ProxyTypeINS0_18ProxyContainerTypeINS0_13ProxyPoolTypeINS_3Web7RequestEEES5_S5_EEEC2ERNS0_11ProxyObjectIS7_EE
FNDA:0,_ZN12WPEFramework4Core9ProxyTypeINS0_7JSONRPC7MessageEEC2ERNS0_11ProxyObjectIS3_EE
FNDA:27,_ZN12WPEFramework4Core9ProxyTypeINS0_7ServiceINS_6Plugin10AppGatewayEEEEC2ERNS0_11ProxyObjectIS5_EE
FNDA:8,_ZN12WPEFramework4Core9ProxyTypeINS0_7ServiceINS_6Plugin24AppGatewayImplementationEEEEC2ERNS0_11ProxyObjectIS5_EE
FNDA:0,_ZN12WPEFramework4Core9ProxyTypeINS_3Web8ResponseEEC2ERNS0_11ProxyObjectIS3_EE
FNDA:7,_ZN12WPEFramework4Core9ProxyTypeINS_6Plugin24AppGatewayImplementation10RespondJobEEC2ERNS0_11ProxyObjectIS4_EE
FNDA:0,_ZN12WPEFramework4Core9ProxyTypeINS_6Plugin33AppGatewayResponderImplementation10RequestJobEEC2ERNS0_11ProxyObjectIS4_EE
FNDA:0,_ZN12WPEFramework4Core9ProxyTypeINS_6Plugin33AppGatewayResponderImplementation10RespondJobEEC2ERNS0_11ProxyObjectIS4_EE
FNDA:0,_ZN12WPEFramework4Core9ProxyTypeINS_6Plugin33AppGatewayResponderImplementation31ConnectionStatusNotificationJobEEC2ERNS0_11ProxyObjectIS4_EE
FNDA:0,_ZN12WPEFramework4Core9ProxyTypeINS_6Plugin33AppGatewayResponderImplementation7EmitJobEEC2ERNS0_11ProxyObjectIS4_EE
FNDA:0,_ZN12WPEFramework4Core9ProxyTypeINS_6Plugin33AppGatewayResponderImplementation8WsMsgJobEEC2ERNS0_11ProxyObjectIS4_EE
FNDA:0,_ZN12WPEFramework4Core9ProxyTypeINS_6Plugin8MetadataINS2_10AppGatewayEE20PluginImplementationIS4_EEEC2ERNS0_11ProxyObjectIS7_EE
FNDA:0,_ZN12WPEFramework4Core9ProxyTypeINS0_4JSON8IElementEEC2INS0_7JSONRPC7MessageEEERKNS1_IT_EE
FNDA:0,_ZN12WPEFramework4Core9ProxyTypeINS0_4JSON8IElementEEC2INS_3Web12JSONBodyTypeINS0_7JSONRPC7MessageEEEEERKNS1_IT_EE
FNDA:0,_ZN12WPEFramework4Core9ProxyTypeINS0_7JSONRPC7MessageEEC2INS0_4JSON8IElementEEERKNS1_IT_EE
FNDA:0,_ZN12WPEFramework4Core9ProxyTypeINS_3Web12JSONBodyTypeINS0_7JSONRPC7MessageEEEEC2INS0_18ProxyContainerTypeINS0_13ProxyPoolTypeIS6_EES6_S6_EEEERKNS1_IT_EE
FNDA:0,_ZN12WPEFramework4Core9ProxyTypeINS_3Web7RequestEEC2INS0_18ProxyContainerTypeINS0_13ProxyPoolTypeIS3_EES3_S3_EEEERKNS1_IT_EE
FNDA:0,_ZN12WPEFramework4Core9ProxyTypeINS0_7JSONRPC7MessageEEC2INS_3Web12JSONBodyTypeIS3_EEEEONS1_IT_EE
FNDA:7,_ZN12WPEFramework4Core9ProxyTypeINS0_9IDispatchEEC2INS_6Plugin24AppGatewayImplementation10RespondJobEEEONS1_IT_EE
FNDA:0,_ZN12WPEFramework4Core9ProxyTypeINS0_9IDispatchEEC2INS_6Plugin33AppGatewayResponderImplementation10RequestJobEEEONS1_IT_EE
FNDA:0,_ZN12WPEFramework4Core9ProxyTypeINS0_9IDispatchEEC2INS_6Plugin33AppGatewayResponderImplementation10RespondJobEEEONS1_IT_EE
FNDA:0,_ZN12WPEFramework4Core9ProxyTypeINS0_9IDispatchEEC2INS_6Plugin33AppGatewayResponderImplementation31ConnectionStatusNotificationJobEEEONS1_IT_EE
FNDA:0,_ZN12WPEFramework4Core9ProxyTypeINS0_9IDispatchEEC2INS_6Plugin33AppGatewayResponderImplementation7EmitJobEEEONS1_IT_EE
FNDA:0,_ZN12WPEFramework4Core9ProxyTypeINS0_9IDispatchEEC2INS_6Plugin33AppGatewayResponderImplementation8WsMsgJobEEEONS1_IT_EE
FNDA:0,_ZN12WPEFramework4Core9ProxyTypeIN26WebSocketConnectionManager15WebSocketServerEEC2ERKS4_
FNDA:0,_ZN12WPEFramework4Core9ProxyTypeINS0_4JSON8IElementEEC2ERKS4_
FNDA:14,_ZN12WPEFramework4Core9ProxyTypeINS0_9IDispatchEEC2ERKS3_
FNDA:0,_ZN12WPEFramework4Core9ProxyTypeINS_3Web8ResponseEEC2ERKS4_
FNDA:0,_ZN12WPEFramework4Core9ProxyTypeIN26WebSocketConnectionManager15WebSocketServerEEC2EOS4_
FNDA:0,_ZN12WPEFramework4Core9ProxyTypeINS0_18ProxyContainerTypeINS0_13ProxyPoolTypeINS_3Web12JSONBodyTypeINS0_7JSONRPC7MessageEEEEES8_S8_EEEC2EOSB_
FNDA:0,_ZN12WPEFramework4Core9ProxyTypeINS0_18ProxyContainerTypeINS0_13ProxyPoolTypeINS_3Web7RequestEEES5_S5_EEEC2EOS8_
FNDA:0,_ZN12WPEFramework4Core9ProxyTypeIN26WebSocketConnectionManager15WebSocketServerEED2Ev
FNDA:0,_ZN12WPEFramework4Core9ProxyTypeINS0_15ServiceMetadataINS_6Plugin10AppGatewayEE21ServiceImplementationIS4_EEED2Ev
FNDA:0,_ZN12WPEFramework4Core9ProxyTypeINS0_15ServiceMetadataINS_6Plugin24AppGatewayImplementationEE21ServiceImplementationIS4_EEED2Ev
FNDA:0,_ZN12WPEFramework4Core9ProxyTypeINS0_15ServiceMetadataINS_6Plugin33AppGatewayResponderImplementationEE21ServiceImplementationIS4_EEED2Ev
FNDA:0,_ZN12WPEFramework4Core9ProxyTypeINS0_18ProxyContainerTypeINS0_13ProxyPoolTypeINS_3Web12JSONBodyTypeINS0_7JSONRPC7MessageEEEEES8_S8_EEED2Ev
FNDA:0,_ZN12WPEFramework4Core9ProxyTypeINS0_18ProxyContainerTypeINS0_13ProxyPoolTypeINS_3Web7RequestEEES5_S5_EEED2Ev
FNDA:0,_ZN12WPEFramework4Core9ProxyTypeINS0_4JSON8IElementEED2Ev
FNDA:0,_ZN12WPEFramework4Core9ProxyTypeINS0_7JSONRPC7MessageEED2Ev
FNDA:27,_ZN12WPEFramework4Core9ProxyTypeINS0_7ServiceINS_6Plugin10AppGatewayEEEED2Ev
FNDA:8,_ZN12WPEFramework4Core9ProxyTypeINS0_7ServiceINS_6Plugin24AppGatewayImplementationEEEED2Ev
FNDA:24,_ZN12WPEFramework4Core9ProxyTypeINS0_9IDispatchEED2Ev
FNDA:0,_ZN12WPEFramework4Core9ProxyTypeINS_3Web12JSONBodyTypeINS0_7JSONRPC7MessageEEEED2Ev
FNDA:0,_ZN12WPEFramework4Core9ProxyTypeINS_3Web5IBodyEED2Ev
FNDA:0,_ZN12WPEFramework4Core9ProxyTypeINS_3Web7RequestEED2Ev
FNDA:0,_ZN12WPEFramework4Core9ProxyTypeINS_3Web8ResponseEED2Ev
FNDA:7,_ZN12WPEFramework4Core9ProxyTypeINS_6Plugin24AppGatewayImplementation10RespondJobEED2Ev
FNDA:0,_ZN12WPEFramework4Core9ProxyTypeINS_6Plugin33AppGatewayResponderImplementation10RequestJobEED2Ev
FNDA:0,_ZN12WPEFramework4Core9ProxyTypeINS_6Plugin33AppGatewayResponderImplementation10RespondJobEED2Ev
FNDA:0,_ZN12WPEFramework4Core9ProxyTypeINS_6Plugin33AppGatewayResponderImplementation31ConnectionStatusNotificationJobEED2Ev
FNDA:0,_ZN12WPEFramework4Core9ProxyTypeINS_6Plugin33AppGatewayResponderImplementation7EmitJobEED2Ev
FNDA:0,_ZN12WPEFramework4Core9ProxyTypeINS_6Plugin33AppGatewayResponderImplementation8WsMsgJobEED2Ev
FNDA:0,_ZN12WPEFramework4Core9ProxyTypeINS_6Plugin8MetadataINS2_10AppGatewayEE20PluginImplementationIS4_EEED2Ev
FNDA:0,_ZN12WPEFramework4Core9ProxyTypeINS0_18ProxyContainerTypeINS0_13ProxyPoolTypeINS_3Web12JSONBodyTypeINS0_7JSONRPC7MessageEEEEES8_S8_EEE10CreateMoveIJRS9_EEEvRSB_jDpOT_
FNDA:0,_ZN12WPEFramework4Core9ProxyTypeINS0_18ProxyContainerTypeINS0_13ProxyPoolTypeINS_3Web7RequestEEES5_S5_EEE10CreateMoveIJRS6_EEEvRS8_jDpOT_
FNDA:0,_ZN12WPEFramework4Core9ProxyTypeIN26WebSocketConnectionManager15WebSocketServerEE6CreateIJRiRKNS0_6NodeIdEPNS0_16SocketServerTypeIS3_EEEEES4_DpOT_
FNDA:0,_ZN12WPEFramework4Core9ProxyTypeINS0_15ServiceMetadataINS_6Plugin10AppGatewayEE21ServiceImplementationIS4_EEE6CreateIJRKNS0_7LibraryERPKNS0_16IServiceMetadataEEEES8_DpOT_
FNDA:0,_ZN12WPEFramework4Core9ProxyTypeINS0_15ServiceMetadataINS_6Plugin24AppGatewayImplementationEE21ServiceImplementationIS4_EEE6CreateIJRKNS0_7LibraryERPKNS0_16IServiceMetadataEEEES8_DpOT_
FNDA:0,_ZN12WPEFramework4Core9ProxyTypeINS0_15ServiceMetadataINS_6Plugin33AppGatewayResponderImplementationEE21ServiceImplementationIS4_EEE6CreateIJRKNS0_7LibraryERPKNS0_16IServiceMetadataEEEES8_DpOT_
FNDA:0,_ZN12WPEFramework4Core9ProxyTypeINS0_7JSONRPC7MessageEE6CreateIJEEES4_DpOT_
FNDA:27,_ZN12WPEFramework4Core9ProxyTypeINS0_7ServiceINS_6Plugin10AppGatewayEEEE6CreateIJEEES6_DpOT_
FNDA:8,_ZN12WPEFramework4Core9ProxyTypeINS0_7ServiceINS_6Plugin24AppGatewayImplementationEEEE6CreateIJEEES6_DpOT_
FNDA:0,_ZN12WPEFramework4Core9ProxyTypeINS_3Web8ResponseEE6CreateIJEEES4_DpOT_
FNDA:7,_ZN12WPEFramework4Core9ProxyTypeINS_6Plugin24AppGatewayImplementation10RespondJobEE6CreateIJRPS3_RKNS_8Exchange14GatewayContextERKNSt7__cxx1112basic_stringIcSt11char_traitsIcESaIcEEESK_EEES5_DpOT_
FNDA:0,_ZN12WPEFramework4Core9ProxyTypeINS_6Plugin33AppGatewayResponderImplementation10RequestJobEE6CreateIJRPS3_RKjSA_RKNSt7__cxx1112basic_stringIcSt11char_traitsIcESaIcEEESI_EEES5_DpOT_
FNDA:0,_ZN12WPEFramework4Core9ProxyTypeINS_6Plugin33AppGatewayResponderImplementation10RespondJobEE6CreateIJRPS3_RKjSA_RKNSt7__cxx1112basic_stringIcSt11char_traitsIcESaIcEEEEEES5_DpOT_
FNDA:0,_ZN12WPEFramework4Core9ProxyTypeINS_6Plugin33AppGatewayResponderImplementation31ConnectionStatusNotificationJobEE6CreateIJRPS3_RKjRKNSt7__cxx1112basic_stringIcSt11char_traitsIcESaIcEEERKbEEES5_DpOT_
FNDA:0,_ZN12WPEFramework4Core9ProxyTypeINS_6Plugin33AppGatewayResponderImplementation7EmitJobEE6CreateIJRPS3_RKjRKNSt7__cxx1112basic_stringIcSt11char_traitsIcESaIcEEESI_EEES5_DpOT_
FNDA:0,_ZN12WPEFramework4Core9ProxyTypeINS_6Plugin33AppGatewayResponderImplementation8WsMsgJobEE6CreateIJRPS3_RKNSt7__cxx1112basic_stringIcSt11char_traitsIcESaIcEEESG_RKjSI_EEES5_DpOT_
FNDA:0,_ZN12WPEFramework4Core9ProxyTypeINS_6Plugin8MetadataINS2_10AppGatewayEE20PluginImplementationIS4_EEE6CreateIJRKNS0_7LibraryERPKNS0_16IServiceMetadataEEEES8_DpOT_
FNDA:0,_ZN12WPEFramework4Core9ProxyTypeIN26WebSocketConnectionManager15WebSocketServerEEaSERKS4_
FNDA:0,_ZN12WPEFramework4Core9ProxyTypeINS0_18ProxyContainerTypeINS0_13ProxyPoolTypeINS_3Web12JSONBodyTypeINS0_7JSONRPC7MessageEEEEES8_S8_EEEaSERKSB_
FNDA:0,_ZN12WPEFramework4Core9ProxyTypeINS0_18ProxyContainerTypeINS0_13ProxyPoolTypeINS_3Web7RequestEEES5_S5_EEEaSERKS8_
FNDA:7,_ZN12WPEFramework4Core9ProxyTypeINS0_9IDispatchEEaSERKS3_
FNDA:0,_ZN12WPEFramework4Core9ProxyTypeINS0_18ProxyContainerTypeINS0_13ProxyPoolTypeINS_3Web12JSONBodyTypeINS0_7JSONRPC7MessageEEEEES8_S8_EEEaSEOSB_
FNDA:0,_ZN12WPEFramework4Core9ProxyTypeINS0_18ProxyContainerTypeINS0_13ProxyPoolTypeINS_3Web7RequestEEES5_S5_EEEaSEOS8_
FNDA:0,_ZN12WPEFramework4Core9ProxyTypeINS0_4JSON8IElementEEaSEOS4_
FNDA:0,_ZN12WPEFramework4Core9ProxyTypeINS0_7JSONRPC7MessageEEaSEOS4_
FNDA:0,_ZN12WPEFramework4Core9ProxyTypeINS_3Web12JSONBodyTypeINS0_7JSONRPC7MessageEEEEaSEOS7_
FNDA:0,_ZN12WPEFramework4Core9ProxyTypeINS_3Web7RequestEEaSEOS4_
FNDA:0,_ZN12WPEFramework4Core9ProxyTypeINS_3Web8ResponseEEaSEOS4_
FNDA:0,_ZNK12WPEFramework4Core9ProxyTypeIN26WebSocketConnectionManager15WebSocketServerEE7IsValidEv
FNDA:0,_ZNK12WPEFramework4Core9ProxyTypeINS0_15ServiceMetadataINS_6Plugin10AppGatewayEE21ServiceImplementationIS4_EEE7IsValidEv
FNDA:0,_ZNK12WPEFramework4Core9ProxyTypeINS0_15ServiceMetadataINS_6Plugin24AppGatewayImplementationEE21ServiceImplementationIS4_EEE7IsValidEv
FNDA:0,_ZNK12WPEFramework4Core9ProxyTypeINS0_15ServiceMetadataINS_6Plugin33AppGatewayResponderImplementationEE21ServiceImplementationIS4_EEE7IsValidEv
FNDA:0,_ZNK12WPEFramework4Core9ProxyTypeINS0_18ProxyContainerTypeINS0_13ProxyPoolTypeINS_3Web12JSONBodyTypeINS0_7JSONRPC7MessageEEEEES8_S8_EEE7IsValidEv
FNDA:0,_ZNK12WPEFramework4Core9ProxyTypeINS0_18ProxyContainerTypeINS0_13ProxyPoolTypeINS_3Web7RequestEEES5_S5_EEE7IsValidEv
FNDA:0,_ZNK12WPEFramework4Core9ProxyTypeINS0_4JSON8IElementEE7IsValidEv
FNDA:0,_ZNK12WPEFramework4Core9ProxyTypeINS0_7JSONRPC7MessageEE7IsValidEv
FNDA:14,_ZNK12WPEFramework4Core9ProxyTypeINS0_9IDispatchEE7IsValidEv
FNDA:0,_ZNK12WPEFramework4Core9ProxyTypeINS_3Web5IBodyEE7IsValidEv
FNDA:0,_ZNK12WPEFramework4Core9ProxyTypeINS_3Web7RequestEE7IsValidEv
FNDA:0,_ZNK12WPEFramework4Core9ProxyTypeINS_3Web8ResponseEE7IsValidEv
FNDA:0,_ZNK12WPEFramework4Core9ProxyTypeINS_6Plugin8MetadataINS2_10AppGatewayEE20PluginImplementationIS4_EEE7IsValidEv
FNDA:0,_ZNK12WPEFramework4Core9ProxyTypeIN26WebSocketConnectionManager15WebSocketServerEE7ReleaseEv
FNDA:0,_ZNK12WPEFramework4Core9ProxyTypeINS0_4JSON8IElementEE7ReleaseEv
FNDA:7,_ZNK12WPEFramework4Core9ProxyTypeINS0_9IDispatchEE7ReleaseEv
FNDA:0,_ZNK12WPEFramework4Core9ProxyTypeINS_3Web5IBodyEE7ReleaseEv
FNDA:0,_ZNK12WPEFramework4Core9ProxyTypeINS_3Web7RequestEE7ReleaseEv
FNDA:0,_ZNK12WPEFramework4Core9ProxyTypeINS0_4JSON8IElementEE6AddRefEv
FNDA:0,_ZNK12WPEFramework4Core9ProxyTypeINS0_7JSONRPC7MessageEE6AddRefEv
FNDA:0,_ZNK12WPEFramework4Core9ProxyTypeINS_3Web12JSONBodyTypeINS0_7JSONRPC7MessageEEEE6AddRefEv
FNDA:0,_ZNK12WPEFramework4Core9ProxyTypeINS_3Web7RequestEE6AddRefEv
FNDA:0,_ZNK12WPEFramework4Core9ProxyTypeINS_3Web8ResponseEE6AddRefEv
FNDA:0,_ZNK12WPEFramework4Core9ProxyTypeINS0_18ProxyContainerTypeINS0_13ProxyPoolTypeINS_3Web12JSONBodyTypeINS0_7JSONRPC7MessageEEEEES8_S8_EEEeqERKSB_
FNDA:0,_ZNK12WPEFramework4Core9ProxyTypeINS0_18ProxyContainerTypeINS0_13ProxyPoolTypeINS_3Web7RequestEEES5_S5_EEEeqERKS8_
FNDA:0,_ZNK12WPEFramework4Core9ProxyTypeINS0_9IDispatchEEeqERKS3_
FNDA:0,_ZNK12WPEFramework4Core9ProxyTypeINS_3Web8ResponseEEeqERKS4_
FNDA:0,_ZNK12WPEFramework4Core9ProxyTypeINS0_9IDispatchEEneERKS3_
FNDA:0,_ZNK12WPEFramework4Core9ProxyTypeIN26WebSocketConnectionManager15WebSocketServerEEptEv
FNDA:0,_ZNK12WPEFramework4Core9ProxyTypeINS0_15ServiceMetadataINS_6Plugin10AppGatewayEE21ServiceImplementationIS4_EEEptEv
FNDA:0,_ZNK12WPEFramework4Core9ProxyTypeINS0_15ServiceMetadataINS_6Plugin24AppGatewayImplementationEE21ServiceImplementationIS4_EEEptEv
FNDA:0,_ZNK12WPEFramework4Core9ProxyTypeINS0_15ServiceMetadataINS_6Plugin33AppGatewayResponderImplementationEE21ServiceImplementationIS4_EEEptEv
FNDA:0,_ZNK12WPEFramework4Core9ProxyTypeINS0_18ProxyContainerTypeINS0_13ProxyPoolTypeINS_3Web12JSONBodyTypeINS0_7JSONRPC7MessageEEEEES8_S8_EEEptEv
FNDA:0,_ZNK12WPEFramework4Core9ProxyTypeINS0_18ProxyContainerTypeINS0_13ProxyPoolTypeINS_3Web7RequestEEES5_S5_EEEptEv
FNDA:0,_ZNK12WPEFramework4Core9ProxyTypeINS0_4JSON8IElementEEptEv
FNDA:0,_ZNK12WPEFramework4Core9ProxyTypeINS0_7JSONRPC7MessageEEptEv
FNDA:27,_ZNK12WPEFramework4Core9ProxyTypeINS0_7ServiceINS_6Plugin10AppGatewayEEEEptEv
FNDA:8,_ZNK12WPEFramework4Core9ProxyTypeINS0_7ServiceINS_6Plugin24AppGatewayImplementationEEEEptEv
FNDA:7,_ZNK12WPEFramework4Core9ProxyTypeINS0_9IDispatchEEptEv
FNDA:0,_ZNK12WPEFramework4Core9ProxyTypeINS_3Web12JSONBodyTypeINS0_7JSONRPC7MessageEEEEptEv
FNDA:0,_ZNK12WPEFramework4Core9ProxyTypeINS_3Web7RequestEEptEv
FNDA:0,_ZNK12WPEFramework4Core9ProxyTypeINS_3Web8ResponseEEptEv
FNDA:7,_ZNK12WPEFramework4Core9ProxyTypeINS_6Plugin24AppGatewayImplementation10RespondJobEEptEv
FNDA:0,_ZNK12WPEFramework4Core9ProxyTypeINS_6Plugin33AppGatewayResponderImplementation10RequestJobEEptEv
FNDA:0,_ZNK12WPEFramework4Core9ProxyTypeINS_6Plugin33AppGatewayResponderImplementation10RespondJobEEptEv
FNDA:0,_ZNK12WPEFramework4Core9ProxyTypeINS_6Plugin33AppGatewayResponderImplementation31ConnectionStatusNotificationJobEEptEv
FNDA:0,_ZNK12WPEFramework4Core9ProxyTypeINS_6Plugin33AppGatewayResponderImplementation7EmitJobEEptEv
FNDA:0,_ZNK12WPEFramework4Core9ProxyTypeINS_6Plugin33AppGatewayResponderImplementation8WsMsgJobEEptEv
FNDA:0,_ZNK12WPEFramework4Core9ProxyTypeINS_6Plugin8MetadataINS2_10AppGatewayEE20PluginImplementationIS4_EEEptEv
FNDA:0,_ZNK12WPEFramework4Core9ProxyTypeIN26WebSocketConnectionManager15WebSocketServerEEdeEv
FNDA:7,_ZNK12WPEFramework4Core9ProxyTypeINS0_9IDispatchEEdeEv
FNDA:0,_ZNK12WPEFramework4Core9ProxyTypeINS_3Web7RequestEEdeEv
FNDA:0,_ZNK12WPEFramework4Core9ProxyTypeINS_3Web8ResponseEEdeEv
FNDA:0,_ZN12WPEFramework4Core9ProxyTypeIN26WebSocketConnectionManager15WebSocketServerEE13CopyConstructIS3_EEvRKNS1_IT_EERK17TemplateIntToTypeILj1EE
FNDA:0,_ZN12WPEFramework4Core9ProxyTypeINS0_18ProxyContainerTypeINS0_13ProxyPoolTypeINS_3Web12JSONBodyTypeINS0_7JSONRPC7MessageEEEEES8_S8_EEE13CopyConstructISA_EEvRKNS1_IT_EERK17TemplateIntToTypeILj1EE
FNDA:0,_ZN12WPEFramework4Core9ProxyTypeINS0_18ProxyContainerTypeINS0_13ProxyPoolTypeINS_3Web7RequestEEES5_S5_EEE13CopyConstructIS7_EEvRKNS1_IT_EERK17TemplateIntToTypeILj1EE
FNDA:0,_ZN12WPEFramework4Core9ProxyTypeINS0_4JSON8IElementEE13CopyConstructINS0_7JSONRPC7MessageEEEvRKNS1_IT_EERK17TemplateIntToTypeILj1EE
FNDA:0,_ZN12WPEFramework4Core9ProxyTypeINS0_4JSON8IElementEE13CopyConstructINS_3Web12JSONBodyTypeINS0_7JSONRPC7MessageEEEEEvRKNS1_IT_EERK17TemplateIntToTypeILj1EE
FNDA:7,_ZN12WPEFramework4Core9ProxyTypeINS0_9IDispatchEE13CopyConstructIS2_EEvRKNS1_IT_EERK17TemplateIntToTypeILj1EE
FNDA:0,_ZN12WPEFramework4Core9ProxyTypeINS_3Web12JSONBodyTypeINS0_7JSONRPC7MessageEEEE13CopyConstructINS0_18ProxyContainerTypeINS0_13ProxyPoolTypeIS6_EES6_S6_EEEEvRKNS1_IT_EERK17TemplateIntToTypeILj1EE
FNDA:0,_ZN12WPEFramework4Core9ProxyTypeINS_3Web7RequestEE13CopyConstructINS0_18ProxyContainerTypeINS0_13ProxyPoolTypeIS3_EES3_S3_EEEEvRKNS1_IT_EERK17TemplateIntToTypeILj1EE
FNDA:0,_ZN12WPEFramework4Core9ProxyTypeINS0_7JSONRPC7MessageEE13CopyConstructINS0_4JSON8IElementEEEvRKNS1_IT_EERK17TemplateIntToTypeILj0EE
FNDA:0,_ZN12WPEFramework4Core9ProxyTypeINS0_18ProxyContainerTypeINS0_13ProxyPoolTypeINS_3Web12JSONBodyTypeINS0_7JSONRPC7MessageEEEEES8_S8_EEE13MoveConstructISA_EEvONS1_IT_EERK17TemplateIntToTypeILj1EE
FNDA:0,_ZN12WPEFramework4Core9ProxyTypeINS0_18ProxyContainerTypeINS0_13ProxyPoolTypeINS_3Web7RequestEEES5_S5_EEE13MoveConstructIS7_EEvONS1_IT_EERK17TemplateIntToTypeILj1EE
FNDA:0,_ZN12WPEFramework4Core9ProxyTypeINS0_4JSON8IElementEE13MoveConstructIS3_EEvONS1_IT_EERK17TemplateIntToTypeILj1EE
FNDA:0,_ZN12WPEFramework4Core9ProxyTypeINS0_7JSONRPC7MessageEE13MoveConstructINS_3Web12JSONBodyTypeIS3_EEEEvONS1_IT_EERK17TemplateIntToTypeILj1EE
FNDA:0,_ZN12WPEFramework4Core9ProxyTypeINS0_7JSONRPC7MessageEE13MoveConstructIS3_EEvONS1_IT_EERK17TemplateIntToTypeILj1EE
FNDA:7,_ZN12WPEFramework4Core9ProxyTypeINS0_9IDispatchEE13MoveConstructINS_6Plugin24AppGatewayImplementation10RespondJobEEEvONS1_IT_EERK17TemplateIntToTypeILj1EE
FNDA:0,_ZN12WPEFramework4Core9ProxyTypeINS0_9IDispatchEE13MoveConstructINS_6Plugin33AppGatewayResponderImplementation10RequestJobEEEvONS1_IT_EERK17TemplateIntToTypeILj1EE
FNDA:0,_ZN12WPEFramework4Core9ProxyTypeINS0_9IDispatchEE13MoveConstructINS_6Plugin33AppGatewayResponderImplementation10RespondJobEEEvONS1_IT_EERK17TemplateIntToTypeILj1EE
FNDA:0,_ZN12WPEFramework4Core9ProxyTypeINS0_9IDispatchEE13MoveConstructINS_6Plugin33AppGatewayResponderImplementation31ConnectionStatusNotificationJobEEEvONS1_IT_EERK17TemplateIntToTypeILj1EE
FNDA:0,_ZN12WPEFramework4Core9ProxyTypeINS0_9IDispatchEE13MoveConstructINS_6Plugin33AppGatewayResponderImplementation7EmitJobEEEvONS1_IT_EERK17TemplateIntToTypeILj1EE
FNDA:0,_ZN12WPEFramework4Core9ProxyTypeINS0_9IDispatchEE13MoveConstructINS_6Plugin33AppGatewayResponderImplementation8WsMsgJobEEEvONS1_IT_EERK17TemplateIntToTypeILj1EE
FNDA:0,_ZN12WPEFramework4Core9ProxyTypeINS_3Web12JSONBodyTypeINS0_7JSONRPC7MessageEEEE13MoveConstructIS6_EEvONS1_IT_EERK17TemplateIntToTypeILj1EE
FNDA:0,_ZN12WPEFramework4Core9ProxyTypeINS_3Web7RequestEE13MoveConstructIS3_EEvONS1_IT_EERK17TemplateIntToTypeILj1EE
FNDA:0,_ZN12WPEFramework4Core9ProxyTypeINS_3Web8ResponseEE13MoveConstructIS3_EEvONS1_IT_EERK17TemplateIntToTypeILj1EE
FNDA:0,_ZN12WPEFramework4Core9ProxyTypeIN26WebSocketConnectionManager15WebSocketServerEE12CreateObjectIJRiRKNS0_6NodeIdEPNS0_16SocketServerTypeIS3_EEEEEPNS0_11ProxyObjectIS3_EEjDpOT_
FNDA:0,_ZN12WPEFramework4Core9ProxyTypeINS0_15ServiceMetadataINS_6Plugin10AppGatewayEE21ServiceImplementationIS4_EEE12CreateObjectIJRKNS0_7LibraryERPKNS0_16IServiceMetadataEEEEPNS0_11ProxyObjectIS7_EEjDpOT_
FNDA:0,_ZN12WPEFramework4Core9ProxyTypeINS0_15ServiceMetadataINS_6Plugin24AppGatewayImplementationEE21ServiceImplementationIS4_EEE12CreateObjectIJRKNS0_7LibraryERPKNS0_16IServiceMetadataEEEEPNS0_11ProxyObjectIS7_EEjDpOT_
FNDA:0,_ZN12WPEFramework4Core9ProxyTypeINS0_15ServiceMetadataINS_6Plugin33AppGatewayResponderImplementationEE21ServiceImplementationIS4_EEE12CreateObjectIJRKNS0_7LibraryERPKNS0_16IServiceMetadataEEEEPNS0_11ProxyObjectIS7_EEjDpOT_
FNDA:0,_ZN12WPEFramework4Core9ProxyTypeINS0_18ProxyContainerTypeINS0_13ProxyPoolTypeINS_3Web12JSONBodyTypeINS0_7JSONRPC7MessageEEEEES8_S8_EEE12CreateObjectIJRS9_EEEPNS0_11ProxyObjectISA_EEjDpOT_
FNDA:0,_ZN12WPEFramework4Core9ProxyTypeINS0_18ProxyContainerTypeINS0_13ProxyPoolTypeINS_3Web7RequestEEES5_S5_EEE12CreateObjectIJRS6_EEEPNS0_11ProxyObjectIS7_EEjDpOT_
FNDA:0,_ZN12WPEFramework4Core9ProxyTypeINS0_7JSONRPC7MessageEE12CreateObjectIJEEEPNS0_11ProxyObjectIS3_EEjDpOT_
FNDA:27,_ZN12WPEFramework4Core9ProxyTypeINS0_7ServiceINS_6Plugin10AppGatewayEEEE12CreateObjectIJEEEPNS0_11ProxyObjectIS5_EEjDpOT_
FNDA:8,_ZN12WPEFramework4Core9ProxyTypeINS0_7ServiceINS_6Plugin24AppGatewayImplementationEEEE12CreateObjectIJEEEPNS0_11ProxyObjectIS5_EEjDpOT_
FNDA:0,_ZN12WPEFramework4Core9ProxyTypeINS_3Web8ResponseEE12CreateObjectIJEEEPNS0_11ProxyObjectIS3_EEjDpOT_
FNDA:7,_ZN12WPEFramework4Core9ProxyTypeINS_6Plugin24AppGatewayImplementation10RespondJobEE12CreateObjectIJRPS3_RKNS_8Exchange14GatewayContextERKNSt7__cxx1112basic_stringIcSt11char_traitsIcESaIcEEESK_EEEPNS0_11ProxyObjectIS4_EEjDpOT_
FNDA:0,_ZN12WPEFramework4Core9ProxyTypeINS_6Plugin33AppGatewayResponderImplementation10RequestJobEE12CreateObjectIJRPS3_RKjSA_RKNSt7__cxx1112basic_stringIcSt11char_traitsIcESaIcEEESI_EEEPNS0_11ProxyObjectIS4_EEjDpOT_
FNDA:0,_ZN12WPEFramework4Core9ProxyTypeINS_6Plugin33AppGatewayResponderImplementation10RespondJobEE12CreateObjectIJRPS3_RKjSA_RKNSt7__cxx1112basic_stringIcSt11char_traitsIcESaIcEEEEEEPNS0_11ProxyObjectIS4_EEjDpOT_
FNDA:0,_ZN12WPEFramework4Core9ProxyTypeINS_6Plugin33AppGatewayResponderImplementation31ConnectionStatusNotificationJobEE12CreateObjectIJRPS3_RKjRKNSt7__cxx1112basic_stringIcSt11char_traitsIcESaIcEEERKbEEEPNS0_11ProxyObjectIS4_EEjDpOT_
FNDA:0,_ZN12WPEFramework4Core9ProxyTypeINS_6Plugin33AppGatewayResponderImplementation7EmitJobEE12CreateObjectIJRPS3_RKjRKNSt7__cxx1112basic_stringIcSt11char_traitsIcESaIcEEESI_EEEPNS0_11ProxyObjectIS4_EEjDpOT_
FNDA:0,_ZN12WPEFramework4Core9ProxyTypeINS_6Plugin33AppGatewayResponderImplementation8WsMsgJobEE12CreateObjectIJRPS3_RKNSt7__cxx1112basic_stringIcSt11char_traitsIcESaIcEEESG_RKjSI_EEEPNS0_11ProxyObjectIS4_EEjDpOT_
FNDA:0,_ZN12WPEFramework4Core9ProxyTypeINS_6Plugin8MetadataINS2_10AppGatewayEE20PluginImplementationIS4_EEE12CreateObjectIJRKNS0_7LibraryERPKNS0_16IServiceMetadataEEEEPNS0_11ProxyObjectIS7_EEjDpOT_
FNDA:0,_ZN12WPEFramework4Core11ProxyObjectINS0_18ProxyContainerTypeINS0_13ProxyPoolTypeINS_3Web12JSONBodyTypeINS0_7JSONRPC7MessageEEEEES8_S8_EEE6MyselfERNS0_9ProxyTypeISA_EE
FNDA:0,_ZN12WPEFramework4Core11ProxyObjectINS0_18ProxyContainerTypeINS0_13ProxyPoolTypeINS_3Web7RequestEEES5_S5_EEE6MyselfERNS0_9ProxyTypeIS7_EE
FNDA:0,_ZN12WPEFramework4Core9ProxyListINS0_4JSON8IElementEEC2Ej
FNDA:0,_ZN12WPEFramework4Core9ProxyListINS0_7JSONRPC7MessageEEC2Ej
FNDA:0,_ZN12WPEFramework4Core9ProxyListINS_3Web8ResponseEEC2Ej
FNDA:0,_ZN12WPEFramework4Core9ProxyListINS0_4JSON8IElementEED2Ev
FNDA:0,_ZN12WPEFramework4Core9ProxyListINS0_7JSONRPC7MessageEED2Ev
FNDA:0,_ZN12WPEFramework4Core9ProxyListINS_3Web8ResponseEED2Ev
FNDA:0,_ZN12WPEFramework4Core11ProxyObjectIN26WebSocketConnectionManager15WebSocketServerEEnwEmj
FNDA:0,_ZN12WPEFramework4Core11ProxyObjectINS0_15ServiceMetadataINS_6Plugin10AppGatewayEE21ServiceImplementationIS4_EEEnwEmj
FNDA:0,_ZN12WPEFramework4Core11ProxyObjectINS0_15ServiceMetadataINS_6Plugin24AppGatewayImplementationEE21ServiceImplementationIS4_EEEnwEmj
FNDA:0,_ZN12WPEFramework4Core11ProxyObjectINS0_15ServiceMetadataINS_6Plugin33AppGatewayResponderImplementationEE21ServiceImplementationIS4_EEEnwEmj
FNDA:0,_ZN12WPEFramework4Core11ProxyObjectINS0_18ProxyContainerTypeINS0_13ProxyPoolTypeINS_3Web12JSONBodyTypeINS0_7JSONRPC7MessageEEEEES8_S8_EEEnwEmj
FNDA:0,_ZN12WPEFramework4Core11ProxyObjectINS0_18ProxyContainerTypeINS0_13ProxyPoolTypeINS_3Web7RequestEEES5_S5_EEEnwEmj
FNDA:0,_ZN12WPEFramework4Core11ProxyObjectINS0_7JSONRPC7MessageEEnwEmj
FNDA:27,_ZN12WPEFramework4Core11ProxyObjectINS0_7ServiceINS_6Plugin10AppGatewayEEEEnwEmj
FNDA:8,_ZN12WPEFramework4Core11ProxyObjectINS0_7ServiceINS_6Plugin24AppGatewayImplementationEEEEnwEmj
FNDA:0,_ZN12WPEFramework4Core11ProxyObjectINS_3Web8ResponseEEnwEmj
FNDA:7,_ZN12WPEFramework4Core11ProxyObjectINS_6Plugin24AppGatewayImplementation10RespondJobEEnwEmj
FNDA:0,_ZN12WPEFramework4Core11ProxyObjectINS_6Plugin33AppGatewayResponderImplementation10RequestJobEEnwEmj
FNDA:0,_ZN12WPEFramework4Core11ProxyObjectINS_6Plugin33AppGatewayResponderImplementation10RespondJobEEnwEmj
FNDA:0,_ZN12WPEFramework4Core11ProxyObjectINS_6Plugin33AppGatewayResponderImplementation31ConnectionStatusNotificationJobEEnwEmj
FNDA:0,_ZN12WPEFramework4Core11ProxyObjectINS_6Plugin33AppGatewayResponderImplementation7EmitJobEEnwEmj
FNDA:0,_ZN12WPEFramework4Core11ProxyObjectINS_6Plugin33AppGatewayResponderImplementation8WsMsgJobEEnwEmj
FNDA:0,_ZN12WPEFramework4Core11ProxyObjectINS_6Plugin8MetadataINS2_10AppGatewayEE20PluginImplementationIS4_EEEnwEmj
FNDA:0,_ZN12WPEFramework4Core9ProxyListINS0_4JSON8IElementEE3AddERNS0_9ProxyTypeIS3_EE
FNDA:0,_ZN12WPEFramework4Core9ProxyListINS0_7JSONRPC7MessageEE3AddERNS0_9ProxyTypeIS3_EE
FNDA:0,_ZN12WPEFramework4Core9ProxyListINS_3Web8ResponseEE3AddERNS0_9ProxyTypeIS3_EE
FNDA:0,_ZN12WPEFramework4Core9ProxyListINS0_7JSONRPC7MessageEE6RemoveEjRNS0_9ProxyTypeIS3_EE
FNDA:0,_ZN12WPEFramework4Core9ProxyListINS_3Web8ResponseEE6RemoveEjRNS0_9ProxyTypeIS3_EE
FNDA:0,_ZN12WPEFramework4Core9ProxyListINS0_4JSON8IElementEE6RemoveEj
FNDA:0,_ZN12WPEFramework4Core9ProxyListINS0_4JSON8IElementEE5ClearEv
FNDA:0,_ZN12WPEFramework4Core9ProxyListINS0_7JSONRPC7MessageEE5ClearEv
FNDA:0,_ZNK12WPEFramework4Core9ProxyListINS0_4JSON8IElementEE5CountEv
FNDA:0,_ZNK12WPEFramework4Core9ProxyListINS0_7JSONRPC7MessageEE5CountEv
FNDA:0,_ZNK12WPEFramework4Core9ProxyListINS_3Web8ResponseEE5CountEv
FNDA:0,_ZNK12WPEFramework4Core9ProxyListINS0_4JSON8IElementEEixEj
FNDA:0,_ZNK12WPEFramework4Core9ProxyListINS0_7JSONRPC7MessageEEixEj
FNDA:0,_ZNK12WPEFramework4Core9ProxyListINS_3Web8ResponseEEixEj
FNDA:0,_ZNK12WPEFramework4Core9ProxyListINS0_4JSON8IElementEE8GetProxyEj
FNDA:0,_ZNK12WPEFramework4Core9ProxyListINS0_7JSONRPC7MessageEE8GetProxyEj
FNDA:0,_ZNK12WPEFramework4Core9ProxyListINS_3Web8ResponseEE8GetProxyEj
FNDA:0,_ZN12WPEFramework4Core9ProxyListINS0_4JSON8IElementEE8SetProxyEjRNS0_9ProxyTypeIS3_EE
FNDA:0,_ZN12WPEFramework4Core9ProxyListINS0_7JSONRPC7MessageEE8SetProxyEjRNS0_9ProxyTypeIS3_EE
FNDA:0,_ZN12WPEFramework4Core9ProxyListINS_3Web8ResponseEE8SetProxyEjRNS0_9ProxyTypeIS3_EE
FNDA:0,_ZN12WPEFramework4Core11ProxyObjectIN26WebSocketConnectionManager15WebSocketServerEEdlEPv
FNDA:0,_ZN12WPEFramework4Core11ProxyObjectINS0_15ServiceMetadataINS_6Plugin10AppGatewayEE21ServiceImplementationIS4_EEEdlEPv
FNDA:0,_ZN12WPEFramework4Core11ProxyObjectINS0_15ServiceMetadataINS_6Plugin24AppGatewayImplementationEE21ServiceImplementationIS4_EEEdlEPv
FNDA:0,_ZN12WPEFramework4Core11ProxyObjectINS0_15ServiceMetadataINS_6Plugin33AppGatewayResponderImplementationEE21ServiceImplementationIS4_EEEdlEPv
FNDA:0,_ZN12WPEFramework4Core11ProxyObjectINS0_18ProxyContainerTypeINS0_13ProxyPoolTypeINS_3Web12JSONBodyTypeINS0_7JSONRPC7MessageEEEEES8_S8_EEEdlEPv
FNDA:0,_ZN12WPEFramework4Core11ProxyObjectINS0_18ProxyContainerTypeINS0_13ProxyPoolTypeINS_3Web7RequestEEES5_S5_EEEdlEPv
FNDA:0,_ZN12WPEFramework4Core11ProxyObjectINS0_7JSONRPC7MessageEEdlEPv
FNDA:27,_ZN12WPEFramework4Core11ProxyObjectINS0_7ServiceINS_6Plugin10AppGatewayEEEEdlEPv
FNDA:8,_ZN12WPEFramework4Core11ProxyObjectINS0_7ServiceINS_6Plugin24AppGatewayImplementationEEEEdlEPv
FNDA:0,_ZN12WPEFramework4Core11ProxyObjectINS_3Web8ResponseEEdlEPv
FNDA:7,_ZN12WPEFramework4Core11ProxyObjectINS_6Plugin24AppGatewayImplementation10RespondJobEEdlEPv
FNDA:0,_ZN12WPEFramework4Core11ProxyObjectINS_6Plugin33AppGatewayResponderImplementation10RequestJobEEdlEPv
FNDA:0,_ZN12WPEFramework4Core11ProxyObjectINS_6Plugin33AppGatewayResponderImplementation10RespondJobEEdlEPv
FNDA:0,_ZN12WPEFramework4Core11ProxyObjectINS_6Plugin33AppGatewayResponderImplementation31ConnectionStatusNotificationJobEEdlEPv
FNDA:0,_ZN12WPEFramework4Core11ProxyObjectINS_6Plugin33AppGatewayResponderImplementation7EmitJobEEdlEPv
FNDA:0,_ZN12WPEFramework4Core11ProxyObjectINS_6Plugin33AppGatewayResponderImplementation8WsMsgJobEEdlEPv
FNDA:0,_ZN12WPEFramework4Core11ProxyObjectINS_6Plugin8MetadataINS2_10AppGatewayEE20PluginImplementationIS4_EEEdlEPv
FNF:516
FNH:69
DA:69,42
DA:73,42
DA:76,42
DA:78,42
DA:79,0
DA:81,0
DA:82,0
DA:86,42
DA:89,42
DA:93,42
DA:96,42
DA:97,42
DA:98,42
DA:102,42
DA:103,7
DA:104,49
DA:106,42
DA:107,42
DA:108,84
DA:110,42
DA:119,84
DA:122,123
DA:124,123
DA:125,81
DA:127,123
DA:129,123
DA:131,123
DA:133,123
DA:134,123
DA:136,123
DA:137,42
DA:138,42
DA:140,81
DA:141,81
DA:144,123
DA:179,0
DA:181,0
DA:182,0
DA:183,42
DA:185,42
DA:208,0
DA:210,0
DA:211,0
DA:225,0
DA:227,0
DA:231,42
DA:233,42
DA:243,0
DA:245,0
DA:246,0
DA:249,42
DA:251,42
DA:260,0
DA:262,0
DA:263,0
DA:266,42
DA:268,42
DA:278,0
DA:280,0
DA:284,42
DA:286,42
DA:296,0
DA:298,0
DA:299,0
DA:300,0
DA:301,0
DA:302,0
DA:305,81
DA:307,81
DA:316,0
DA:318,0
DA:319,0
DA:320,0
DA:321,0
DA:322,0
DA:325,81
DA:327,81
DA:354,0
DA:356,0
DA:358,0
DA:359,0
DA:361,0
DA:362,0
DA:363,7
DA:365,7
DA:366,7
DA:367,7
DA:368,0
DA:369,0
DA:370,0
DA:372,0
DA:374,0
DA:375,0
DA:378,0
DA:380,0
DA:383,3
DA:384,3
DA:385,3
DA:387,3
DA:394,42
DA:395,42
DA:396,42
DA:398,42
DA:399,42
DA:409,0
DA:411,0
DA:412,0
DA:414,7
DA:416,7
DA:417,7
DA:418,14
DA:419,14
DA:420,14
DA:422,14
DA:424,14
DA:425,14
DA:427,14
DA:428,0
DA:429,0
DA:430,0
DA:432,0
DA:433,0
DA:434,66
DA:436,66
DA:437,56
DA:439,66
DA:443,0
DA:445,0
DA:446,0
DA:448,42
DA:450,42
DA:469,7
DA:472,7
DA:474,7
DA:476,7
DA:490,0
DA:493,0
DA:495,0
DA:497,0
DA:501,14
DA:503,14
DA:505,7
DA:508,7
DA:510,7
DA:511,7
DA:513,7
DA:515,7
DA:517,0
DA:520,0
DA:522,0
DA:524,0
DA:526,0
DA:529,0
DA:531,0
DA:543,49
DA:545,49
DA:547,49
DA:550,7
DA:552,7
DA:554,7
DA:563,7
DA:565,7
DA:567,7
DA:568,0
DA:571,7
DA:572,7
DA:574,7
DA:576,0
DA:578,0
DA:579,0
DA:580,0
DA:583,0
DA:584,0
DA:586,0
DA:587,0
DA:590,0
DA:591,0
DA:595,0
DA:597,7
DA:599,7
DA:601,7
DA:602,0
DA:605,7
DA:606,7
DA:608,7
DA:629,42
DA:631,42
DA:633,42
DA:635,42
DA:636,0
DA:637,0
DA:640,42
DA:649,0
DA:650,0
DA:651,0
DA:669,0
DA:670,0
DA:671,0
DA:672,0
DA:674,0
DA:677,0
DA:679,0
DA:681,0
DA:683,0
DA:685,0
DA:686,0
DA:687,0
DA:692,0
DA:694,0
DA:712,0
DA:714,0
DA:717,0
DA:719,0
DA:722,0
DA:725,0
DA:728,0
DA:731,0
DA:735,0
DA:736,0
DA:739,0
DA:742,0
DA:745,0
DA:747,0
DA:748,0
DA:749,0
DA:753,0
DA:756,0
DA:757,0
DA:760,0
DA:763,0
DA:765,0
DA:769,0
DA:771,0
DA:773,0
DA:775,0
DA:776,0
DA:777,0
DA:780,0
DA:781,0
DA:784,0
DA:787,0
DA:789,0
DA:793,0
DA:795,0
DA:816,0
DA:817,0
DA:818,0
DA:820,0
DA:821,0
DA:856,0
DA:858,0
DA:862,0
DA:864,0
DA:865,0
DA:867,0
DA:876,0
DA:879,0
DA:882,0
DA:886,0
DA:887,0
DA:1214,0
DA:1216,0
DA:1218,0
DA:1219,0
DA:1220,0
DA:1221,0
DA:1223,0
DA:1229,0
DA:1231,0
DA:1233,0
DA:1236,0
DA:1237,0
DA:1239,0
DA:1240,0
DA:1242,0
DA:1243,0
DA:1244,0
DA:1245,0
DA:1246,0
DA:1248,0
DA:1249,0
DA:1250,0
DA:1251,0
DA:1252,0
DA:1253,0
DA:1254,0
DA:1256,0
DA:1258,0
DA:1260,0
DA:1262,0
DA:1272,0
DA:1273,0
DA:1274,0
DA:1289,0
DA:1291,0
DA:1292,0
DA:1312,0
DA:1314,0
DA:1330,0
DA:1332,0
DA:1347,0
DA:1349,0
DA:1373,0
DA:1375,0
DA:1396,0
DA:1398,0
DA:1413,0
DA:1415,0
DA:1432,0
DA:1433,0
DA:1434,0
DA:1436,0
DA:1437,0
DA:1439,0
DA:1440,0
DA:1441,0
DA:1443,0
DA:1444,0
DA:1447,0
DA:1449,0
DA:1451,0
DA:1453,0
DA:1454,0
DA:1455,0
DA:1456,0
DA:1458,0
DA:1461,0
DA:1463,0
DA:1464,0
DA:1466,0
DA:1469,0
DA:1471,0
DA:1472,0
DA:1474,0
DA:1478,0
DA:1480,0
DA:1481,0
DA:1483,0
DA:1485,0
DA:1487,0
DA:1489,0
DA:1491,0
DA:1493,0
DA:1496,0
DA:1497,0
DA:1498,0
DA:1500,0
DA:1503,0
DA:1510,0
DA:1514,0
DA:1515,0
DA:1524,0
DA:1531,0
DA:1533,0
DA:1536,0
DA:1539,0
DA:1541,0
DA:1542,0
LF:358
LH:110
end_of_record
TN:
SF:/home/kavia/workspace/code-generation/app-gateway2/dependencies/install/include/WPEFramework/core/Queue.h
FN:108,130,_ZN12WPEFramework4Core9QueueTypeINS0_9ProxyTypeINS0_9IDispatchEEEE4PostERKS4_
FN:132,173,_ZN12WPEFramework4Core9QueueTypeINS0_9ProxyTypeINS0_9IDispatchEEEE6InsertERKS4_j
FN:175,220,_ZN12WPEFramework4Core9QueueTypeINS0_9ProxyTypeINS0_9IDispatchEEEE7ExtractERS4_j
FN:222,233,_ZN12WPEFramework4Core9QueueTypeINS0_9ProxyTypeINS0_9IDispatchEEEE6EnableEv
FN:235,247,_ZN12WPEFramework4Core9QueueTypeINS0_9ProxyTypeINS0_9IDispatchEEEE7DisableEv
FN:270,273,_ZNK12WPEFramework4Core9QueueTypeINS0_9ProxyTypeINS0_9IDispatchEEEE7IsEmptyEv
FN:274,277,_ZNK12WPEFramework4Core9QueueTypeINS0_9ProxyTypeINS0_9IDispatchEEEE6IsFullEv
FN:284,290,_ZNK12WPEFramework4Core9QueueTypeINS0_9ProxyTypeINS0_9IDispatchEEEE5VisitIZNKS0_10ThreadPool8SnapshotEhPNS7_8MetadataERSt6vectorINSt7__cxx1112basic_stringIcSt11char_traitsIcESaIcEEESaISG_EEEUlRKS4_E_EEvOT_
FN:291,309,_ZNK12WPEFramework4Core9QueueTypeINS0_9ProxyTypeINS0_9IDispatchEEEE8HasEntryERKS4_
FN:310,312,_ZNK12WPEFramework4Core9QueueTypeINS0_9ProxyTypeINS0_9IDispatchEEEE4LockEv
FN:313,315,_ZNK12WPEFramework4Core9QueueTypeINS0_9ProxyTypeINS0_9IDispatchEEEE6UnlockEv
FN:46,56,_ZN12WPEFramework4Core9QueueTypeINS0_9ProxyTypeINS0_9IDispatchEEEEC2Ej
FN:57,63,_ZN12WPEFramework4Core9QueueTypeINS0_9ProxyTypeINS0_9IDispatchEEEED2Ev
FN:80,106,_ZN12WPEFramework4Core9QueueTypeINS0_9ProxyTypeINS0_9IDispatchEEEE6RemoveERKS4_
FNDA:0,_ZN12WPEFramework4Core9QueueTypeINS0_9ProxyTypeINS0_9IDispatchEEEE4PostERKS4_
FNDA:7,_ZN12WPEFramework4Core9QueueTypeINS0_9ProxyTypeINS0_9IDispatchEEEE6InsertERKS4_j
FNDA:9,_ZN12WPEFramework4Core9QueueTypeINS0_9ProxyTypeINS0_9IDispatchEEEE7ExtractERS4_j
FNDA:1,_ZN12WPEFramework4Core9QueueTypeINS0_9ProxyTypeINS0_9IDispatchEEEE6EnableEv
FNDA:4,_ZN12WPEFramework4Core9QueueTypeINS0_9ProxyTypeINS0_9IDispatchEEEE7DisableEv
FNDA:7,_ZNK12WPEFramework4Core9QueueTypeINS0_9ProxyTypeINS0_9IDispatchEEEE7IsEmptyEv
FNDA:7,_ZNK12WPEFramework4Core9QueueTypeINS0_9ProxyTypeINS0_9IDispatchEEEE6IsFullEv
FNDA:0,_ZNK12WPEFramework4Core9QueueTypeINS0_9ProxyTypeINS0_9IDispatchEEEE5VisitIZNKS0_10ThreadPool8SnapshotEhPNS7_8MetadataERSt6vectorINSt7__cxx1112basic_stringIcSt11char_traitsIcESaIcEEESaISG_EEEUlRKS4_E_EEvOT_
FNDA:7,_ZNK12WPEFramework4Core9QueueTypeINS0_9ProxyTypeINS0_9IDispatchEEEE8HasEntryERKS4_
FNDA:0,_ZNK12WPEFramework4Core9QueueTypeINS0_9ProxyTypeINS0_9IDispatchEEEE4LockEv
FNDA:0,_ZNK12WPEFramework4Core9QueueTypeINS0_9ProxyTypeINS0_9IDispatchEEEE6UnlockEv
FNDA:1,_ZN12WPEFramework4Core9QueueTypeINS0_9ProxyTypeINS0_9IDispatchEEEEC2Ej
FNDA:1,_ZN12WPEFramework4Core9QueueTypeINS0_9ProxyTypeINS0_9IDispatchEEEED2Ev
FNDA:0,_ZN12WPEFramework4Core9QueueTypeINS0_9ProxyTypeINS0_9IDispatchEEEE6RemoveERKS4_
FNF:14
FNH:9
DA:46,1
DA:48,1
DA:49,1
DA:50,1
DA:53,1
DA:56,1
DA:57,1
DA:62,1
DA:63,1
DA:80,0
DA:82,0
DA:85,0
DA:87,0
DA:90,0
DA:92,0
DA:94,0
DA:95,0
DA:99,0
DA:103,0
DA:105,0
DA:108,0
DA:110,0
DA:113,0
DA:115,0
DA:118,0
DA:121,0
DA:123,0
DA:127,0
DA:129,0
DA:132,7
DA:134,7
DA:135,7
DA:138,7
DA:140,7
DA:143,7
DA:145,7
DA:148,7
DA:151,7
DA:154,0
DA:157,0
DA:160,0
DA:163,0
DA:166,7
DA:170,7
DA:172,7
DA:175,9
DA:177,9
DA:178,9
DA:181,9
DA:183,9
DA:186,22
DA:187,7
DA:191,7
DA:194,7
DA:195,7
DA:198,7
DA:201,15
DA:204,15
DA:207,15
DA:210,15
DA:213,22
DA:217,9
DA:219,9
DA:222,1
DA:225,1
DA:227,1
DA:228,0
DA:232,1
DA:233,1
DA:235,4
DA:238,4
DA:240,4
DA:242,1
DA:246,4
DA:247,4
DA:270,7
DA:272,7
DA:274,7
DA:276,7
DA:284,0
DA:285,0
DA:286,0
DA:287,0
DA:289,0
DA:290,0
DA:291,7
DA:294,7
DA:296,7
DA:299,7
DA:300,0
DA:303,7
DA:306,7
DA:308,7
DA:310,0
DA:311,0
DA:312,0
DA:313,0
DA:314,0
DA:315,0
LF:99
LH:61
end_of_record
TN:
SF:/home/kavia/workspace/code-generation/app-gateway2/dependencies/install/include/WPEFramework/core/ResourceMonitor.h
FN:162,165,_ZNK12WPEFramework4Core19ResourceMonitorTypeINS0_9IResourceENS0_4VoidEE2IdEv
FNDA:7,_ZNK12WPEFramework4Core19ResourceMonitorTypeINS0_9IResourceENS0_4VoidEE2IdEv
FNF:1
FNH:1
DA:162,7
DA:164,7
LF:2
LH:2
end_of_record
TN:
SF:/home/kavia/workspace/code-generation/app-gateway2/dependencies/install/include/WPEFramework/core/Serialization.h
FN:88,91,_ZN12WPEFramework4Core8ToStringEPKcRNSt7__cxx1112basic_stringIcSt11char_traitsIcESaIcEEE
FN:93,102,_ZN12WPEFramework4Core8ToStringB5cxx11EPKc
FNDA:2689,_ZN12WPEFramework4Core8ToStringEPKcRNSt7__cxx1112basic_stringIcSt11char_traitsIcESaIcEEE
FNDA:3608,_ZN12WPEFramework4Core8ToStringB5cxx11EPKc
FNF:2
FNH:2
DA:88,2689
DA:90,2689
DA:91,2689
DA:93,3608
DA:100,7216
LF:5
LH:5
end_of_record
TN:
SF:/home/kavia/workspace/code-generation/app-gateway2/dependencies/install/include/WPEFramework/core/Services.h
FN:110,114,_ZNK12WPEFramework4Core20ServiceAdministrator6AddRefEv
FN:115,126,_ZNK12WPEFramework4Core20ServiceAdministrator7ReleaseEv
FN:162,166,_ZN12WPEFramework4Core7ServiceINS_6Plugin10AppGatewayEEC2IJEEEDpOT_
FN:162,166,_ZN12WPEFramework4Core7ServiceINS_6Plugin24AppGatewayImplementationEEC2IJEEEDpOT_
FN:162,166,_ZN12WPEFramework4Core7ServiceINS_6Plugin33AppGatewayResponderImplementationEEC2IJEEEDpOT_
FN:173,178,_ZN12WPEFramework4Core7ServiceINS_6Plugin10AppGatewayEE6CreateINS_10PluginHost7IPluginEJEEEPT_DpOT0_
FN:173,178,_ZN12WPEFramework4Core7ServiceINS_6Plugin24AppGatewayImplementationEE6CreateINS_8Exchange19IAppGatewayResolverEJEEEPT_DpOT0_
FN:179,182,_ZN12WPEFramework4Core7ServiceINS_6Plugin10AppGatewayEED2Ev
FN:179,182,_ZN12WPEFramework4Core7ServiceINS_6Plugin24AppGatewayImplementationEED2Ev
FN:179,182,_ZN12WPEFramework4Core7ServiceINS_6Plugin33AppGatewayResponderImplementationEED2Ev
FN:186,191,_ZN12WPEFramework4Core7ServiceINS_6Plugin10AppGatewayEE7ExtractINS_10PluginHost7IPluginEEEPT_RKNS0_9ProxyTypeIS4_EERK17TemplateIntToTypeILj0EE
FN:186,191,_ZN12WPEFramework4Core7ServiceINS_6Plugin24AppGatewayImplementationEE7ExtractINS_8Exchange19IAppGatewayResolverEEEPT_RKNS0_9ProxyTypeIS4_EERK17TemplateIntToTypeILj0EE
FN:209,213,_ZN12WPEFramework4Core4SinkINS_6Plugin33AppGatewayResponderImplementationEEC1IJEEEDpOT_
FN:214,230,_ZN12WPEFramework4Core4SinkINS_6Plugin33AppGatewayResponderImplementationEED0Ev
FN:214,230,_ZN12WPEFramework4Core4SinkINS_6Plugin33AppGatewayResponderImplementationEED1Ev
FN:233,237,_ZNK12WPEFramework4Core4SinkINS_6Plugin33AppGatewayResponderImplementationEE6AddRefEv
FN:238,243,_ZNK12WPEFramework4Core4SinkINS_6Plugin33AppGatewayResponderImplementationEE7ReleaseEv
FN:265,269,_ZN12WPEFramework4Core15ServiceMetadataINS_6Plugin10AppGatewayEE21ServiceImplementationIS3_EC2ERKNS0_7LibraryEPKNS0_16IServiceMetadataE
FN:265,269,_ZN12WPEFramework4Core15ServiceMetadataINS_6Plugin24AppGatewayImplementationEE21ServiceImplementationIS3_EC2ERKNS0_7LibraryEPKNS0_16IServiceMetadataE
FN:265,269,_ZN12WPEFramework4Core15ServiceMetadataINS_6Plugin33AppGatewayResponderImplementationEE21ServiceImplementationIS3_EC2ERKNS0_7LibraryEPKNS0_16IServiceMetadataE
FN:270,271,_ZN12WPEFramework4Core15ServiceMetadataINS_6Plugin10AppGatewayEE21ServiceImplementationIS3_ED2Ev
FN:270,271,_ZN12WPEFramework4Core15ServiceMetadataINS_6Plugin24AppGatewayImplementationEE21ServiceImplementationIS3_ED2Ev
FN:270,271,_ZN12WPEFramework4Core15ServiceMetadataINS_6Plugin33AppGatewayResponderImplementationEE21ServiceImplementationIS3_ED2Ev
FN:274,276,_ZNK12WPEFramework4Core15ServiceMetadataINS_6Plugin10AppGatewayEE21ServiceImplementationIS3_E5MajorEv
FN:274,276,_ZNK12WPEFramework4Core15ServiceMetadataINS_6Plugin24AppGatewayImplementationEE21ServiceImplementationIS3_E5MajorEv
FN:274,276,_ZNK12WPEFramework4Core15ServiceMetadataINS_6Plugin33AppGatewayResponderImplementationEE21ServiceImplementationIS3_E5MajorEv
FN:277,279,_ZNK12WPEFramework4Core15ServiceMetadataINS_6Plugin10AppGatewayEE21ServiceImplementationIS3_E5MinorEv
FN:277,279,_ZNK12WPEFramework4Core15ServiceMetadataINS_6Plugin24AppGatewayImplementationEE21ServiceImplementationIS3_E5MinorEv
FN:277,279,_ZNK12WPEFramework4Core15ServiceMetadataINS_6Plugin33AppGatewayResponderImplementationEE21ServiceImplementationIS3_E5MinorEv
FN:280,282,_ZNK12WPEFramework4Core15ServiceMetadataINS_6Plugin10AppGatewayEE21ServiceImplementationIS3_E5PatchEv
FN:280,282,_ZNK12WPEFramework4Core15ServiceMetadataINS_6Plugin24AppGatewayImplementationEE21ServiceImplementationIS3_E5PatchEv
FN:280,282,_ZNK12WPEFramework4Core15ServiceMetadataINS_6Plugin33AppGatewayResponderImplementationEE21ServiceImplementationIS3_E5PatchEv
FN:283,285,_ZNK12WPEFramework4Core15ServiceMetadataINS_6Plugin10AppGatewayEE21ServiceImplementationIS3_E11ServiceNameB5cxx11Ev
FN:283,285,_ZNK12WPEFramework4Core15ServiceMetadataINS_6Plugin24AppGatewayImplementationEE21ServiceImplementationIS3_E11ServiceNameB5cxx11Ev
FN:283,285,_ZNK12WPEFramework4Core15ServiceMetadataINS_6Plugin33AppGatewayResponderImplementationEE21ServiceImplementationIS3_E11ServiceNameB5cxx11Ev
FN:286,288,_ZNK12WPEFramework4Core15ServiceMetadataINS_6Plugin10AppGatewayEE21ServiceImplementationIS3_E6ModuleEv
FN:286,288,_ZNK12WPEFramework4Core15ServiceMetadataINS_6Plugin24AppGatewayImplementationEE21ServiceImplementationIS3_E6ModuleEv
FN:286,288,_ZNK12WPEFramework4Core15ServiceMetadataINS_6Plugin33AppGatewayResponderImplementationEE21ServiceImplementationIS3_E6ModuleEv
FN:295,297,_ZN12WPEFramework4Core15ServiceMetadataINS_6Plugin10AppGatewayEE21ServiceImplementationIS3_E10DestructedEv
FN:295,297,_ZN12WPEFramework4Core15ServiceMetadataINS_6Plugin24AppGatewayImplementationEE21ServiceImplementationIS3_E10DestructedEv
FN:295,297,_ZN12WPEFramework4Core15ServiceMetadataINS_6Plugin33AppGatewayResponderImplementationEE21ServiceImplementationIS3_E10DestructedEv
FN:311,316,_ZN12WPEFramework4Core15ServiceMetadataINS_6Plugin10AppGatewayEEC2Ehhh
FN:311,316,_ZN12WPEFramework4Core15ServiceMetadataINS_6Plugin24AppGatewayImplementationEEC2Ehhh
FN:311,316,_ZN12WPEFramework4Core15ServiceMetadataINS_6Plugin33AppGatewayResponderImplementationEEC2Ehhh
FN:317,320,_ZN12WPEFramework4Core15ServiceMetadataINS_6Plugin10AppGatewayEED0Ev
FN:317,320,_ZN12WPEFramework4Core15ServiceMetadataINS_6Plugin10AppGatewayEED2Ev
FN:317,320,_ZN12WPEFramework4Core15ServiceMetadataINS_6Plugin24AppGatewayImplementationEED0Ev
FN:317,320,_ZN12WPEFramework4Core15ServiceMetadataINS_6Plugin24AppGatewayImplementationEED2Ev
FN:317,320,_ZN12WPEFramework4Core15ServiceMetadataINS_6Plugin33AppGatewayResponderImplementationEED0Ev
FN:317,320,_ZN12WPEFramework4Core15ServiceMetadataINS_6Plugin33AppGatewayResponderImplementationEED2Ev
FN:323,325,_ZNK12WPEFramework4Core15ServiceMetadataINS_6Plugin10AppGatewayEE5MajorEv
FN:323,325,_ZNK12WPEFramework4Core15ServiceMetadataINS_6Plugin24AppGatewayImplementationEE5MajorEv
FN:323,325,_ZNK12WPEFramework4Core15ServiceMetadataINS_6Plugin33AppGatewayResponderImplementationEE5MajorEv
FN:326,328,_ZNK12WPEFramework4Core15ServiceMetadataINS_6Plugin10AppGatewayEE5MinorEv
FN:326,328,_ZNK12WPEFramework4Core15ServiceMetadataINS_6Plugin24AppGatewayImplementationEE5MinorEv
FN:326,328,_ZNK12WPEFramework4Core15ServiceMetadataINS_6Plugin33AppGatewayResponderImplementationEE5MinorEv
FN:329,331,_ZNK12WPEFramework4Core15ServiceMetadataINS_6Plugin10AppGatewayEE5PatchEv
FN:329,331,_ZNK12WPEFramework4Core15ServiceMetadataINS_6Plugin24AppGatewayImplementationEE5PatchEv
FN:329,331,_ZNK12WPEFramework4Core15ServiceMetadataINS_6Plugin33AppGatewayResponderImplementationEE5PatchEv
FN:332,335,_ZNK12WPEFramework4Core15ServiceMetadataINS_6Plugin10AppGatewayEE11ServiceNameB5cxx11Ev
FN:332,335,_ZNK12WPEFramework4Core15ServiceMetadataINS_6Plugin24AppGatewayImplementationEE11ServiceNameB5cxx11Ev
FN:332,335,_ZNK12WPEFramework4Core15ServiceMetadataINS_6Plugin33AppGatewayResponderImplementationEE11ServiceNameB5cxx11Ev
FN:336,339,_ZNK12WPEFramework4Core15ServiceMetadataINS_6Plugin10AppGatewayEE6ModuleEv
FN:336,339,_ZNK12WPEFramework4Core15ServiceMetadataINS_6Plugin24AppGatewayImplementationEE6ModuleEv
FN:336,339,_ZNK12WPEFramework4Core15ServiceMetadataINS_6Plugin33AppGatewayResponderImplementationEE6ModuleEv
FN:41,41,_ZN12WPEFramework4Core16IServiceMetadataD0Ev
FN:41,41,_ZN12WPEFramework4Core16IServiceMetadataD2Ev
FN:56,56,_ZN12WPEFramework4Core20ServiceAdministrator15IServiceFactoryD0Ev
FN:56,56,_ZN12WPEFramework4Core20ServiceAdministrator15IServiceFactoryD2Ev
FN:66,66,_ZN12WPEFramework4Core20ServiceAdministrator18ServiceFactoryTypeINS0_15ServiceMetadataINS_6Plugin10AppGatewayEE21ServiceImplementationIS5_EEEC2Ev
FN:66,66,_ZN12WPEFramework4Core20ServiceAdministrator18ServiceFactoryTypeINS0_15ServiceMetadataINS_6Plugin24AppGatewayImplementationEE21ServiceImplementationIS5_EEEC2Ev
FN:66,66,_ZN12WPEFramework4Core20ServiceAdministrator18ServiceFactoryTypeINS0_15ServiceMetadataINS_6Plugin33AppGatewayResponderImplementationEE21ServiceImplementationIS5_EEEC2Ev
FN:66,66,_ZN12WPEFramework4Core20ServiceAdministrator18ServiceFactoryTypeINS_6Plugin8MetadataINS3_10AppGatewayEE20PluginImplementationIS5_EEEC2Ev
FN:67,67,_ZN12WPEFramework4Core20ServiceAdministrator18ServiceFactoryTypeINS0_15ServiceMetadataINS_6Plugin10AppGatewayEE21ServiceImplementationIS5_EEED0Ev
FN:67,67,_ZN12WPEFramework4Core20ServiceAdministrator18ServiceFactoryTypeINS0_15ServiceMetadataINS_6Plugin10AppGatewayEE21ServiceImplementationIS5_EEED2Ev
FN:67,67,_ZN12WPEFramework4Core20ServiceAdministrator18ServiceFactoryTypeINS0_15ServiceMetadataINS_6Plugin24AppGatewayImplementationEE21ServiceImplementationIS5_EEED0Ev
FN:67,67,_ZN12WPEFramework4Core20ServiceAdministrator18ServiceFactoryTypeINS0_15ServiceMetadataINS_6Plugin24AppGatewayImplementationEE21ServiceImplementationIS5_EEED2Ev
FN:67,67,_ZN12WPEFramework4Core20ServiceAdministrator18ServiceFactoryTypeINS0_15ServiceMetadataINS_6Plugin33AppGatewayResponderImplementationEE21ServiceImplementationIS5_EEED0Ev
FN:67,67,_ZN12WPEFramework4Core20ServiceAdministrator18ServiceFactoryTypeINS0_15ServiceMetadataINS_6Plugin33AppGatewayResponderImplementationEE21ServiceImplementationIS5_EEED2Ev
FN:67,67,_ZN12WPEFramework4Core20ServiceAdministrator18ServiceFactoryTypeINS_6Plugin8MetadataINS3_10AppGatewayEE20PluginImplementationIS5_EEED0Ev
FN:67,67,_ZN12WPEFramework4Core20ServiceAdministrator18ServiceFactoryTypeINS_6Plugin8MetadataINS3_10AppGatewayEE20PluginImplementationIS5_EEED2Ev
FN:70,79,_ZN12WPEFramework4Core20ServiceAdministrator18ServiceFactoryTypeINS0_15ServiceMetadataINS_6Plugin10AppGatewayEE21ServiceImplementationIS5_EEE6CreateEPKNS0_16IServiceMetadataERKNS0_7LibraryEj
FN:70,79,_ZN12WPEFramework4Core20ServiceAdministrator18ServiceFactoryTypeINS0_15ServiceMetadataINS_6Plugin24AppGatewayImplementationEE21ServiceImplementationIS5_EEE6CreateEPKNS0_16IServiceMetadataERKNS0_7LibraryEj
FN:70,79,_ZN12WPEFramework4Core20ServiceAdministrator18ServiceFactoryTypeINS0_15ServiceMetadataINS_6Plugin33AppGatewayResponderImplementationEE21ServiceImplementationIS5_EEE6CreateEPKNS0_16IServiceMetadataERKNS0_7LibraryEj
FN:70,79,_ZN12WPEFramework4Core20ServiceAdministrator18ServiceFactoryTypeINS_6Plugin8MetadataINS3_10AppGatewayEE20PluginImplementationIS5_EEE6CreateEPKNS0_16IServiceMetadataERKNS0_7LibraryEj
FNDA:35,_ZNK12WPEFramework4Core20ServiceAdministrator6AddRefEv
FNDA:35,_ZNK12WPEFramework4Core20ServiceAdministrator7ReleaseEv
FNDA:27,_ZN12WPEFramework4Core7ServiceINS_6Plugin10AppGatewayEEC2IJEEEDpOT_
FNDA:8,_ZN12WPEFramework4Core7ServiceINS_6Plugin24AppGatewayImplementationEEC2IJEEEDpOT_
FNDA:0,_ZN12WPEFramework4Core7ServiceINS_6Plugin33AppGatewayResponderImplementationEEC2IJEEEDpOT_
FNDA:27,_ZN12WPEFramework4Core7ServiceINS_6Plugin10AppGatewayEE6CreateINS_10PluginHost7IPluginEJEEEPT_DpOT0_
FNDA:8,_ZN12WPEFramework4Core7ServiceINS_6Plugin24AppGatewayImplementationEE6CreateINS_8Exchange19IAppGatewayResolverEJEEEPT_DpOT0_
FNDA:27,_ZN12WPEFramework4Core7ServiceINS_6Plugin10AppGatewayEED2Ev
FNDA:8,_ZN12WPEFramework4Core7ServiceINS_6Plugin24AppGatewayImplementationEED2Ev
FNDA:0,_ZN12WPEFramework4Core7ServiceINS_6Plugin33AppGatewayResponderImplementationEED2Ev
FNDA:27,_ZN12WPEFramework4Core7ServiceINS_6Plugin10AppGatewayEE7ExtractINS_10PluginHost7IPluginEEEPT_RKNS0_9ProxyTypeIS4_EERK17TemplateIntToTypeILj0EE
FNDA:8,_ZN12WPEFramework4Core7ServiceINS_6Plugin24AppGatewayImplementationEE7ExtractINS_8Exchange19IAppGatewayResolverEEEPT_RKNS0_9ProxyTypeIS4_EERK17TemplateIntToTypeILj0EE
FNDA:2,_ZN12WPEFramework4Core4SinkINS_6Plugin33AppGatewayResponderImplementationEEC1IJEEEDpOT_
FNDA:0,_ZN12WPEFramework4Core4SinkINS_6Plugin33AppGatewayResponderImplementationEED0Ev
FNDA:2,_ZN12WPEFramework4Core4SinkINS_6Plugin33AppGatewayResponderImplementationEED1Ev
FNDA:0,_ZNK12WPEFramework4Core4SinkINS_6Plugin33AppGatewayResponderImplementationEE6AddRefEv
FNDA:0,_ZNK12WPEFramework4Core4SinkINS_6Plugin33AppGatewayResponderImplementationEE7ReleaseEv
FNDA:0,_ZN12WPEFramework4Core15ServiceMetadataINS_6Plugin10AppGatewayEE21ServiceImplementationIS3_EC2ERKNS0_7LibraryEPKNS0_16IServiceMetadataE
FNDA:0,_ZN12WPEFramework4Core15ServiceMetadataINS_6Plugin24AppGatewayImplementationEE21ServiceImplementationIS3_EC2ERKNS0_7LibraryEPKNS0_16IServiceMetadataE
FNDA:0,_ZN12WPEFramework4Core15ServiceMetadataINS_6Plugin33AppGatewayResponderImplementationEE21ServiceImplementationIS3_EC2ERKNS0_7LibraryEPKNS0_16IServiceMetadataE
FNDA:0,_ZN12WPEFramework4Core15ServiceMetadataINS_6Plugin10AppGatewayEE21ServiceImplementationIS3_ED2Ev
FNDA:0,_ZN12WPEFramework4Core15ServiceMetadataINS_6Plugin24AppGatewayImplementationEE21ServiceImplementationIS3_ED2Ev
FNDA:0,_ZN12WPEFramework4Core15ServiceMetadataINS_6Plugin33AppGatewayResponderImplementationEE21ServiceImplementationIS3_ED2Ev
FNDA:0,_ZNK12WPEFramework4Core15ServiceMetadataINS_6Plugin10AppGatewayEE21ServiceImplementationIS3_E5MajorEv
FNDA:0,_ZNK12WPEFramework4Core15ServiceMetadataINS_6Plugin24AppGatewayImplementationEE21ServiceImplementationIS3_E5MajorEv
FNDA:0,_ZNK12WPEFramework4Core15ServiceMetadataINS_6Plugin33AppGatewayResponderImplementationEE21ServiceImplementationIS3_E5MajorEv
FNDA:0,_ZNK12WPEFramework4Core15ServiceMetadataINS_6Plugin10AppGatewayEE21ServiceImplementationIS3_E5MinorEv
FNDA:0,_ZNK12WPEFramework4Core15ServiceMetadataINS_6Plugin24AppGatewayImplementationEE21ServiceImplementationIS3_E5MinorEv
FNDA:0,_ZNK12WPEFramework4Core15ServiceMetadataINS_6Plugin33AppGatewayResponderImplementationEE21ServiceImplementationIS3_E5MinorEv
FNDA:0,_ZNK12WPEFramework4Core15ServiceMetadataINS_6Plugin10AppGatewayEE21ServiceImplementationIS3_E5PatchEv
FNDA:0,_ZNK12WPEFramework4Core15ServiceMetadataINS_6Plugin24AppGatewayImplementationEE21ServiceImplementationIS3_E5PatchEv
FNDA:0,_ZNK12WPEFramework4Core15ServiceMetadataINS_6Plugin33AppGatewayResponderImplementationEE21ServiceImplementationIS3_E5PatchEv
FNDA:0,_ZNK12WPEFramework4Core15ServiceMetadataINS_6Plugin10AppGatewayEE21ServiceImplementationIS3_E11ServiceNameB5cxx11Ev
FNDA:0,_ZNK12WPEFramework4Core15ServiceMetadataINS_6Plugin24AppGatewayImplementationEE21ServiceImplementationIS3_E11ServiceNameB5cxx11Ev
FNDA:0,_ZNK12WPEFramework4Core15ServiceMetadataINS_6Plugin33AppGatewayResponderImplementationEE21ServiceImplementationIS3_E11ServiceNameB5cxx11Ev
FNDA:0,_ZNK12WPEFramework4Core15ServiceMetadataINS_6Plugin10AppGatewayEE21ServiceImplementationIS3_E6ModuleEv
FNDA:0,_ZNK12WPEFramework4Core15ServiceMetadataINS_6Plugin24AppGatewayImplementationEE21ServiceImplementationIS3_E6ModuleEv
FNDA:0,_ZNK12WPEFramework4Core15ServiceMetadataINS_6Plugin33AppGatewayResponderImplementationEE21ServiceImplementationIS3_E6ModuleEv
FNDA:0,_ZN12WPEFramework4Core15ServiceMetadataINS_6Plugin10AppGatewayEE21ServiceImplementationIS3_E10DestructedEv
FNDA:0,_ZN12WPEFramework4Core15ServiceMetadataINS_6Plugin24AppGatewayImplementationEE21ServiceImplementationIS3_E10DestructedEv
FNDA:0,_ZN12WPEFramework4Core15ServiceMetadataINS_6Plugin33AppGatewayResponderImplementationEE21ServiceImplementationIS3_E10DestructedEv
FNDA:1,_ZN12WPEFramework4Core15ServiceMetadataINS_6Plugin10AppGatewayEEC2Ehhh
FNDA:1,_ZN12WPEFramework4Core15ServiceMetadataINS_6Plugin24AppGatewayImplementationEEC2Ehhh
FNDA:1,_ZN12WPEFramework4Core15ServiceMetadataINS_6Plugin33AppGatewayResponderImplementationEEC2Ehhh
FNDA:0,_ZN12WPEFramework4Core15ServiceMetadataINS_6Plugin10AppGatewayEED0Ev
FNDA:1,_ZN12WPEFramework4Core15ServiceMetadataINS_6Plugin10AppGatewayEED2Ev
FNDA:0,_ZN12WPEFramework4Core15ServiceMetadataINS_6Plugin24AppGatewayImplementationEED0Ev
FNDA:1,_ZN12WPEFramework4Core15ServiceMetadataINS_6Plugin24AppGatewayImplementationEED2Ev
FNDA:0,_ZN12WPEFramework4Core15ServiceMetadataINS_6Plugin33AppGatewayResponderImplementationEED0Ev
FNDA:1,_ZN12WPEFramework4Core15ServiceMetadataINS_6Plugin33AppGatewayResponderImplementationEED2Ev
FNDA:0,_ZNK12WPEFramework4Core15ServiceMetadataINS_6Plugin10AppGatewayEE5MajorEv
FNDA:0,_ZNK12WPEFramework4Core15ServiceMetadataINS_6Plugin24AppGatewayImplementationEE5MajorEv
FNDA:0,_ZNK12WPEFramework4Core15ServiceMetadataINS_6Plugin33AppGatewayResponderImplementationEE5MajorEv
FNDA:0,_ZNK12WPEFramework4Core15ServiceMetadataINS_6Plugin10AppGatewayEE5MinorEv
FNDA:0,_ZNK12WPEFramework4Core15ServiceMetadataINS_6Plugin24AppGatewayImplementationEE5MinorEv
FNDA:0,_ZNK12WPEFramework4Core15ServiceMetadataINS_6Plugin33AppGatewayResponderImplementationEE5MinorEv
FNDA:0,_ZNK12WPEFramework4Core15ServiceMetadataINS_6Plugin10AppGatewayEE5PatchEv
FNDA:0,_ZNK12WPEFramework4Core15ServiceMetadataINS_6Plugin24AppGatewayImplementationEE5PatchEv
FNDA:0,_ZNK12WPEFramework4Core15ServiceMetadataINS_6Plugin33AppGatewayResponderImplementationEE5PatchEv
FNDA:0,_ZNK12WPEFramework4Core15ServiceMetadataINS_6Plugin10AppGatewayEE11ServiceNameB5cxx11Ev
FNDA:0,_ZNK12WPEFramework4Core15ServiceMetadataINS_6Plugin24AppGatewayImplementationEE11ServiceNameB5cxx11Ev
FNDA:0,_ZNK12WPEFramework4Core15ServiceMetadataINS_6Plugin33AppGatewayResponderImplementationEE11ServiceNameB5cxx11Ev
FNDA:0,_ZNK12WPEFramework4Core15ServiceMetadataINS_6Plugin10AppGatewayEE6ModuleEv
FNDA:0,_ZNK12WPEFramework4Core15ServiceMetadataINS_6Plugin24AppGatewayImplementationEE6ModuleEv
FNDA:0,_ZNK12WPEFramework4Core15ServiceMetadataINS_6Plugin33AppGatewayResponderImplementationEE6ModuleEv
FNDA:0,_ZN12WPEFramework4Core16IServiceMetadataD0Ev
FNDA:4,_ZN12WPEFramework4Core16IServiceMetadataD2Ev
FNDA:0,_ZN12WPEFramework4Core20ServiceAdministrator15IServiceFactoryD0Ev
FNDA:4,_ZN12WPEFramework4Core20ServiceAdministrator15IServiceFactoryD2Ev
FNDA:1,_ZN12WPEFramework4Core20ServiceAdministrator18ServiceFactoryTypeINS0_15ServiceMetadataINS_6Plugin10AppGatewayEE21ServiceImplementationIS5_EEEC2Ev
FNDA:1,_ZN12WPEFramework4Core20ServiceAdministrator18ServiceFactoryTypeINS0_15ServiceMetadataINS_6Plugin24AppGatewayImplementationEE21ServiceImplementationIS5_EEEC2Ev
FNDA:1,_ZN12WPEFramework4Core20ServiceAdministrator18ServiceFactoryTypeINS0_15ServiceMetadataINS_6Plugin33AppGatewayResponderImplementationEE21ServiceImplementationIS5_EEEC2Ev
FNDA:1,_ZN12WPEFramework4Core20ServiceAdministrator18ServiceFactoryTypeINS_6Plugin8MetadataINS3_10AppGatewayEE20PluginImplementationIS5_EEEC2Ev
FNDA:0,_ZN12WPEFramework4Core20ServiceAdministrator18ServiceFactoryTypeINS0_15ServiceMetadataINS_6Plugin10AppGatewayEE21ServiceImplementationIS5_EEED0Ev
FNDA:1,_ZN12WPEFramework4Core20ServiceAdministrator18ServiceFactoryTypeINS0_15ServiceMetadataINS_6Plugin10AppGatewayEE21ServiceImplementationIS5_EEED2Ev
FNDA:0,_ZN12WPEFramework4Core20ServiceAdministrator18ServiceFactoryTypeINS0_15ServiceMetadataINS_6Plugin24AppGatewayImplementationEE21ServiceImplementationIS5_EEED0Ev
FNDA:1,_ZN12WPEFramework4Core20ServiceAdministrator18ServiceFactoryTypeINS0_15ServiceMetadataINS_6Plugin24AppGatewayImplementationEE21ServiceImplementationIS5_EEED2Ev
FNDA:0,_ZN12WPEFramework4Core20ServiceAdministrator18ServiceFactoryTypeINS0_15ServiceMetadataINS_6Plugin33AppGatewayResponderImplementationEE21ServiceImplementationIS5_EEED0Ev
FNDA:1,_ZN12WPEFramework4Core20ServiceAdministrator18ServiceFactoryTypeINS0_15ServiceMetadataINS_6Plugin33AppGatewayResponderImplementationEE21ServiceImplementationIS5_EEED2Ev
FNDA:0,_ZN12WPEFramework4Core20ServiceAdministrator18ServiceFactoryTypeINS_6Plugin8MetadataINS3_10AppGatewayEE20PluginImplementationIS5_EEED0Ev
FNDA:1,_ZN12WPEFramework4Core20ServiceAdministrator18ServiceFactoryTypeINS_6Plugin8MetadataINS3_10AppGatewayEE20PluginImplementationIS5_EEED2Ev
FNDA:0,_ZN12WPEFramework4Core20ServiceAdministrator18ServiceFactoryTypeINS0_15ServiceMetadataINS_6Plugin10AppGatewayEE21ServiceImplementationIS5_EEE6CreateEPKNS0_16IServiceMetadataERKNS0_7LibraryEj
FNDA:0,_ZN12WPEFramework4Core20ServiceAdministrator18ServiceFactoryTypeINS0_15ServiceMetadataINS_6Plugin24AppGatewayImplementationEE21ServiceImplementationIS5_EEE6CreateEPKNS0_16IServiceMetadataERKNS0_7LibraryEj
FNDA:0,_ZN12WPEFramework4Core20ServiceAdministrator18ServiceFactoryTypeINS0_15ServiceMetadataINS_6Plugin33AppGatewayResponderImplementationEE21ServiceImplementationIS5_EEE6CreateEPKNS0_16IServiceMetadataERKNS0_7LibraryEj
FNDA:0,_ZN12WPEFramework4Core20ServiceAdministrator18ServiceFactoryTypeINS_6Plugin8MetadataINS3_10AppGatewayEE20PluginImplementationIS5_EEE6CreateEPKNS0_16IServiceMetadataERKNS0_7LibraryEj
FNF:85
FNH:28
DA:41,4
DA:56,4
DA:66,4
DA:67,4
DA:70,0
DA:71,0
DA:72,0
DA:74,0
DA:76,0
DA:78,0
DA:79,0
DA:110,35
DA:112,35
DA:113,35
DA:115,35
DA:117,35
DA:119,35
DA:121,35
DA:122,0
DA:125,35
DA:162,35
DA:163,35
DA:165,35
DA:166,35
DA:173,35
DA:175,35
DA:177,70
DA:178,35
DA:179,35
DA:181,35
DA:182,70
DA:186,35
DA:188,35
DA:190,35
DA:209,2
DA:211,2
DA:213,2
DA:214,2
DA:218,2
DA:228,0
DA:230,2
DA:233,0
DA:235,0
DA:236,0
DA:238,0
DA:240,0
DA:241,0
DA:242,0
DA:265,0
DA:267,0
DA:268,0
DA:269,0
DA:270,0
DA:271,0
DA:274,0
DA:275,0
DA:277,0
DA:278,0
DA:280,0
DA:281,0
DA:283,0
DA:284,0
DA:286,0
DA:287,0
DA:295,0
DA:296,0
DA:297,0
DA:311,3
DA:312,3
DA:313,3
DA:315,3
DA:316,3
DA:317,3
DA:319,3
DA:320,6
DA:323,0
DA:324,0
DA:326,0
DA:327,0
DA:329,0
DA:330,0
DA:332,0
DA:334,0
DA:336,0
DA:338,0
LF:85
LH:40
end_of_record
TN:
SF:/home/kavia/workspace/code-generation/app-gateway2/dependencies/install/include/WPEFramework/core/Singleton.h
FN:70,73,_ZN12WPEFramework4Core9Singleton7DisposeEv
FNDA:1,_ZN12WPEFramework4Core9Singleton7DisposeEv
FNF:1
FNH:1
DA:70,1
DA:72,1
DA:73,1
LF:3
LH:3
end_of_record
TN:
SF:/home/kavia/workspace/code-generation/app-gateway2/dependencies/install/include/WPEFramework/core/SocketPort.h
FN:116,119,_ZNK12WPEFramework4Core10SocketPort5StateEv
FN:140,143,_ZNK12WPEFramework4Core10SocketPort11IsSuspendedEv
FN:149,152,_ZNK12WPEFramework4Core10SocketPort6IsOpenEv
FN:153,156,_ZNK12WPEFramework4Core10SocketPort8IsClosedEv
FN:230,233,_ZN12WPEFramework4Core10SocketPort4OpenEj
FN:269,272,_ZNK12WPEFramework4Core10SocketPort10DescriptorEv
FN:338,345,_ZN12WPEFramework4Core12SocketStreamC2EbRKiRKNS0_6NodeIdEtt
FN:347,356,_ZN12WPEFramework4Core12SocketStreamC2EbRKiRKNS0_6NodeIdEttjj
FN:358,358,_ZN12WPEFramework4Core12SocketStreamD0Ev
FN:358,358,_ZN12WPEFramework4Core12SocketStreamD2Ev
FN:423,427,_ZN12WPEFramework4Core13SocketListner7HandlerC2ERS1_RKNS0_6NodeIdE
FN:428,430,_ZN12WPEFramework4Core13SocketListner7HandlerD0Ev
FN:428,430,_ZN12WPEFramework4Core13SocketListner7HandlerD2Ev
FN:437,443,_ZN12WPEFramework4Core13SocketListner7Handler8SendDataEPht
FN:444,450,_ZN12WPEFramework4Core13SocketListner7Handler11ReceiveDataEPht
FN:451,459,_ZN12WPEFramework4Core13SocketListner7Handler11StateChangeEv
FN:482,486,_ZN12WPEFramework4Core13SocketListnerC2ERKNS0_6NodeIdE
FN:489,494,_ZN12WPEFramework4Core13SocketListnerD0Ev
FN:489,494,_ZN12WPEFramework4Core13SocketListnerD2Ev
FN:501,504,_ZN12WPEFramework4Core13SocketListner4OpenEj
FN:505,508,_ZN12WPEFramework4Core13SocketListner5CloseEj
FNDA:0,_ZNK12WPEFramework4Core10SocketPort5StateEv
FNDA:0,_ZNK12WPEFramework4Core10SocketPort11IsSuspendedEv
FNDA:0,_ZNK12WPEFramework4Core10SocketPort6IsOpenEv
FNDA:0,_ZNK12WPEFramework4Core10SocketPort8IsClosedEv
FNDA:0,_ZN12WPEFramework4Core10SocketPort4OpenEj
FNDA:0,_ZNK12WPEFramework4Core10SocketPort10DescriptorEv
FNDA:0,_ZN12WPEFramework4Core12SocketStreamC2EbRKiRKNS0_6NodeIdEtt
FNDA:0,_ZN12WPEFramework4Core12SocketStreamC2EbRKiRKNS0_6NodeIdEttjj
FNDA:0,_ZN12WPEFramework4Core12SocketStreamD0Ev
FNDA:0,_ZN12WPEFramework4Core12SocketStreamD2Ev
FNDA:0,_ZN12WPEFramework4Core13SocketListner7HandlerC2ERS1_RKNS0_6NodeIdE
FNDA:0,_ZN12WPEFramework4Core13SocketListner7HandlerD0Ev
FNDA:0,_ZN12WPEFramework4Core13SocketListner7HandlerD2Ev
FNDA:0,_ZN12WPEFramework4Core13SocketListner7Handler8SendDataEPht
FNDA:0,_ZN12WPEFramework4Core13SocketListner7Handler11ReceiveDataEPht
FNDA:0,_ZN12WPEFramework4Core13SocketListner7Handler11StateChangeEv
FNDA:0,_ZN12WPEFramework4Core13SocketListnerC2ERKNS0_6NodeIdE
FNDA:0,_ZN12WPEFramework4Core13SocketListnerD0Ev
FNDA:0,_ZN12WPEFramework4Core13SocketListnerD2Ev
FNDA:0,_ZN12WPEFramework4Core13SocketListner4OpenEj
FNDA:0,_ZN12WPEFramework4Core13SocketListner5CloseEj
FNF:21
FNH:0
DA:116,0
DA:118,0
DA:140,0
DA:142,0
DA:149,0
DA:151,0
DA:153,0
DA:155,0
DA:230,0
DA:232,0
DA:269,0
DA:271,0
DA:338,0
DA:343,0
DA:345,0
DA:347,0
DA:354,0
DA:356,0
DA:358,0
DA:423,0
DA:424,0
DA:425,0
DA:427,0
DA:428,0
DA:429,0
DA:430,0
DA:437,0
DA:440,0
DA:444,0
DA:447,0
DA:451,0
DA:454,0
DA:456,0
DA:457,0
DA:459,0
DA:482,0
DA:483,0
DA:486,0
DA:489,0
DA:490,0
DA:493,0
DA:494,0
DA:501,0
DA:503,0
DA:505,0
DA:507,0
LF:46
LH:0
end_of_record
TN:
SF:/home/kavia/workspace/code-generation/app-gateway2/dependencies/install/include/WPEFramework/core/SocketServer.h
FN:137,146,_ZN12WPEFramework4Core16SocketServerTypeIN26WebSocketConnectionManager15WebSocketServerEE13SocketHandlerIS3_EC2ERKNS0_6NodeIdEPS4_
FN:147,167,_ZN12WPEFramework4Core16SocketServerTypeIN26WebSocketConnectionManager15WebSocketServerEE13SocketHandlerIS3_ED0Ev
FN:147,167,_ZN12WPEFramework4Core16SocketServerTypeIN26WebSocketConnectionManager15WebSocketServerEE13SocketHandlerIS3_ED2Ev
FN:175,198,_ZN12WPEFramework4Core16SocketServerTypeIN26WebSocketConnectionManager15WebSocketServerEE13SocketHandlerIS3_E6SubmitINS0_9ProxyTypeINS0_4JSON8IElementEEEEEjjT_
FN:211,227,_ZN12WPEFramework4Core16SocketServerTypeIN26WebSocketConnectionManager15WebSocketServerEE13SocketHandlerIS3_E6ClientEj
FN:241,254,_ZN12WPEFramework4Core16SocketServerTypeIN26WebSocketConnectionManager15WebSocketServerEE13SocketHandlerIS3_E12CloseClientsEj
FN:285,316,_ZN12WPEFramework4Core16SocketServerTypeIN26WebSocketConnectionManager15WebSocketServerEE13SocketHandlerIS3_E6AcceptERiRKNS0_6NodeIdE
FN:334,337,_ZN12WPEFramework4Core16SocketServerTypeIN26WebSocketConnectionManager15WebSocketServerEE13SocketHandlerIS3_E4__IdIS3_EENS0_10TypeTraits9enable_ifIXsrNS6_5hasIdIT_vJjEEE5valueEvE4typeERS3_j
FN:361,364,_ZN12WPEFramework4Core16SocketServerTypeIN26WebSocketConnectionManager15WebSocketServerEEC2ERKNS0_6NodeIdE
FN:366,368,_ZN12WPEFramework4Core16SocketServerTypeIN26WebSocketConnectionManager15WebSocketServerEED2Ev
FN:371,374,_ZN12WPEFramework4Core16SocketServerTypeIN26WebSocketConnectionManager15WebSocketServerEE4OpenEj
FN:375,380,_ZN12WPEFramework4Core16SocketServerTypeIN26WebSocketConnectionManager15WebSocketServerEE5CloseEj
FN:385,388,_ZN12WPEFramework4Core16SocketServerTypeIN26WebSocketConnectionManager15WebSocketServerEE6ClientEj
FN:398,401,_ZN12WPEFramework4Core16SocketServerTypeIN26WebSocketConnectionManager15WebSocketServerEE6SubmitINS0_9ProxyTypeINS0_4JSON8IElementEEEEEjjT_
FNDA:0,_ZN12WPEFramework4Core16SocketServerTypeIN26WebSocketConnectionManager15WebSocketServerEE13SocketHandlerIS3_EC2ERKNS0_6NodeIdEPS4_
FNDA:0,_ZN12WPEFramework4Core16SocketServerTypeIN26WebSocketConnectionManager15WebSocketServerEE13SocketHandlerIS3_ED0Ev
FNDA:0,_ZN12WPEFramework4Core16SocketServerTypeIN26WebSocketConnectionManager15WebSocketServerEE13SocketHandlerIS3_ED2Ev
FNDA:0,_ZN12WPEFramework4Core16SocketServerTypeIN26WebSocketConnectionManager15WebSocketServerEE13SocketHandlerIS3_E6SubmitINS0_9ProxyTypeINS0_4JSON8IElementEEEEEjjT_
FNDA:0,_ZN12WPEFramework4Core16SocketServerTypeIN26WebSocketConnectionManager15WebSocketServerEE13SocketHandlerIS3_E6ClientEj
FNDA:0,_ZN12WPEFramework4Core16SocketServerTypeIN26WebSocketConnectionManager15WebSocketServerEE13SocketHandlerIS3_E12CloseClientsEj
FNDA:0,_ZN12WPEFramework4Core16SocketServerTypeIN26WebSocketConnectionManager15WebSocketServerEE13SocketHandlerIS3_E6AcceptERiRKNS0_6NodeIdE
FNDA:0,_ZN12WPEFramework4Core16SocketServerTypeIN26WebSocketConnectionManager15WebSocketServerEE13SocketHandlerIS3_E4__IdIS3_EENS0_10TypeTraits9enable_ifIXsrNS6_5hasIdIT_vJjEEE5valueEvE4typeERS3_j
FNDA:0,_ZN12WPEFramework4Core16SocketServerTypeIN26WebSocketConnectionManager15WebSocketServerEEC2ERKNS0_6NodeIdE
FNDA:0,_ZN12WPEFramework4Core16SocketServerTypeIN26WebSocketConnectionManager15WebSocketServerEED2Ev
FNDA:0,_ZN12WPEFramework4Core16SocketServerTypeIN26WebSocketConnectionManager15WebSocketServerEE4OpenEj
FNDA:0,_ZN12WPEFramework4Core16SocketServerTypeIN26WebSocketConnectionManager15WebSocketServerEE5CloseEj
FNDA:0,_ZN12WPEFramework4Core16SocketServerTypeIN26WebSocketConnectionManager15WebSocketServerEE6ClientEj
FNDA:0,_ZN12WPEFramework4Core16SocketServerTypeIN26WebSocketConnectionManager15WebSocketServerEE6SubmitINS0_9ProxyTypeINS0_4JSON8IElementEEEEEjjT_
FNF:14
FNH:0
DA:137,0
DA:139,0
DA:140,0
DA:141,0
DA:142,0
DA:145,0
DA:146,0
DA:147,0
DA:149,0
DA:150,0
DA:152,0
DA:154,0
DA:155,0
DA:157,0
DA:158,0
DA:161,0
DA:163,0
DA:166,0
DA:167,0
DA:175,0
DA:177,0
DA:179,0
DA:181,0
DA:183,0
DA:184,0
DA:188,0
DA:189,0
DA:191,0
DA:192,0
DA:194,0
DA:195,0
DA:197,0
DA:211,0
DA:213,0
DA:215,0
DA:217,0
DA:219,0
DA:221,0
DA:224,0
DA:226,0
DA:227,0
DA:241,0
DA:243,0
DA:245,0
DA:247,0
DA:249,0
DA:250,0
DA:253,0
DA:254,0
DA:285,0
DA:287,0
DA:289,0
DA:292,0
DA:294,0
DA:297,0
DA:299,0
DA:300,0
DA:301,0
DA:304,0
DA:309,0
DA:312,0
DA:314,0
DA:316,0
DA:334,0
DA:336,0
DA:337,0
DA:361,0
DA:362,0
DA:364,0
DA:366,0
DA:368,0
DA:371,0
DA:373,0
DA:375,0
DA:377,0
DA:378,0
DA:379,0
DA:385,0
DA:387,0
DA:398,0
DA:400,0
LF:81
LH:0
end_of_record
TN:
SF:/home/kavia/workspace/code-generation/app-gateway2/dependencies/install/include/WPEFramework/core/StateTrigger.h
FN:104,128,_ZNK12WPEFramework4Core12StateTriggerINS0_9QueueTypeINS0_9ProxyTypeINS0_9IDispatchEEEE14enumQueueStateEE9WaitStateEjj
FN:160,185,_ZN12WPEFramework4Core12StateTriggerINS0_9QueueTypeINS0_9ProxyTypeINS0_9IDispatchEEEE14enumQueueStateEE8SetStateES7_
FN:199,203,_ZNK12WPEFramework4Core12StateTriggerINS0_9QueueTypeINS0_9ProxyTypeINS0_9IDispatchEEEE14enumQueueStateEEeqES7_
FN:207,211,_ZNK12WPEFramework4Core12StateTriggerINS0_9QueueTypeINS0_9ProxyTypeINS0_9IDispatchEEEE14enumQueueStateEEneES7_
FN:80,87,_ZN12WPEFramework4Core12StateTriggerINS0_9QueueTypeINS0_9ProxyTypeINS0_9IDispatchEEEE14enumQueueStateEEC2ES7_
FN:90,93,_ZN12WPEFramework4Core12StateTriggerINS0_9QueueTypeINS0_9ProxyTypeINS0_9IDispatchEEEE14enumQueueStateEED0Ev
FN:90,93,_ZN12WPEFramework4Core12StateTriggerINS0_9QueueTypeINS0_9ProxyTypeINS0_9IDispatchEEEE14enumQueueStateEED2Ev
FNDA:15,_ZNK12WPEFramework4Core12StateTriggerINS0_9QueueTypeINS0_9ProxyTypeINS0_9IDispatchEEEE14enumQueueStateEE9WaitStateEjj
FNDA:15,_ZN12WPEFramework4Core12StateTriggerINS0_9QueueTypeINS0_9ProxyTypeINS0_9IDispatchEEEE14enumQueueStateEE8SetStateES7_
FNDA:1,_ZNK12WPEFramework4Core12StateTriggerINS0_9QueueTypeINS0_9ProxyTypeINS0_9IDispatchEEEE14enumQueueStateEEeqES7_
FNDA:64,_ZNK12WPEFramework4Core12StateTriggerINS0_9QueueTypeINS0_9ProxyTypeINS0_9IDispatchEEEE14enumQueueStateEEneES7_
FNDA:1,_ZN12WPEFramework4Core12StateTriggerINS0_9QueueTypeINS0_9ProxyTypeINS0_9IDispatchEEEE14enumQueueStateEEC2ES7_
FNDA:0,_ZN12WPEFramework4Core12StateTriggerINS0_9QueueTypeINS0_9ProxyTypeINS0_9IDispatchEEEE14enumQueueStateEED0Ev
FNDA:1,_ZN12WPEFramework4Core12StateTriggerINS0_9QueueTypeINS0_9ProxyTypeINS0_9IDispatchEEEE14enumQueueStateEED2Ev
FNF:7
FNH:6
DA:80,1
DA:81,1
DA:82,1
DA:83,1
DA:84,1
DA:87,1
DA:90,1
DA:93,1
DA:104,15
DA:108,15
DA:110,15
DA:113,31
DA:114,16
DA:116,16
DA:118,16
DA:120,16
DA:122,16
DA:125,15
DA:127,15
DA:160,15
DA:163,15
DA:165,15
DA:166,15
DA:169,15
DA:170,8
DA:173,76
DA:175,68
DA:178,8
DA:182,15
DA:184,15
DA:199,1
DA:202,1
DA:207,64
DA:210,64
LF:34
LH:34
end_of_record
TN:
SF:/home/kavia/workspace/code-generation/app-gateway2/dependencies/install/include/WPEFramework/core/StreamText.h
FN:100,102,_ZN12WPEFramework4Core32TerminatorCarriageReturnLineFeedD2Ev
FN:108,131,_ZNK12WPEFramework4Core32TerminatorCarriageReturnLineFeed12IsTerminatedEc
FN:96,99,_ZN12WPEFramework4Core32TerminatorCarriageReturnLineFeedC2Ev
FNDA:0,_ZN12WPEFramework4Core32TerminatorCarriageReturnLineFeedD2Ev
FNDA:0,_ZNK12WPEFramework4Core32TerminatorCarriageReturnLineFeed12IsTerminatedEc
FNDA:0,_ZN12WPEFramework4Core32TerminatorCarriageReturnLineFeedC2Ev
FNF:3
FNH:0
DA:96,0
DA:97,0
DA:99,0
DA:100,0
DA:102,0
DA:108,0
DA:112,0
DA:113,0
DA:115,0
DA:118,0
DA:120,0
DA:121,0
DA:122,0
DA:124,0
DA:125,0
DA:126,0
DA:129,0
DA:130,0
LF:18
LH:0
end_of_record
TN:
SF:/home/kavia/workspace/code-generation/app-gateway2/dependencies/install/include/WPEFramework/core/Sync.h
FN:229,233,_ZN12WPEFramework4Core12SafeSyncTypeINS0_15CriticalSectionEEC2ERS2_
FN:235,238,_ZN12WPEFramework4Core12SafeSyncTypeINS0_15CriticalSectionEED2Ev
FN:50,70,_ZN12WPEFramework4Core15CriticalSection4LockEv
FN:72,84,_ZN12WPEFramework4Core15CriticalSection6UnlockEv
FNDA:54,_ZN12WPEFramework4Core12SafeSyncTypeINS0_15CriticalSectionEEC2ERS2_
FNDA:54,_ZN12WPEFramework4Core12SafeSyncTypeINS0_15CriticalSectionEED2Ev
FNDA:158,_ZN12WPEFramework4Core15CriticalSection4LockEv
FNDA:158,_ZN12WPEFramework4Core15CriticalSection6UnlockEv
FNF:4
FNH:4
DA:50,158
DA:57,158
DA:59,158
DA:60,158
DA:61,0
DA:70,158
DA:72,158
DA:75,158
DA:76,158
DA:77,0
DA:84,158
DA:229,54
DA:230,54
DA:232,54
DA:233,54
DA:235,54
DA:237,54
DA:238,54
LF:18
LH:16
end_of_record
TN:
SF:/home/kavia/workspace/code-generation/app-gateway2/dependencies/install/include/WPEFramework/core/TextFragment.h
FN:173,175,_ZN12WPEFramework4Core12TextFragmentD2Ev
FN:248,251,_ZNK12WPEFramework4Core12TextFragment4TextB5cxx11Ev
FN:57,59,_ZN12WPEFramework4Core12TextFragment5IndexD2Ev
FN:69,72,_ZNK12WPEFramework4Core12TextFragment5Index5BeginEv
FN:79,82,_ZNK12WPEFramework4Core12TextFragment5Index6LengthEv
FNDA:4,_ZN12WPEFramework4Core12TextFragmentD2Ev
FNDA:4,_ZNK12WPEFramework4Core12TextFragment4TextB5cxx11Ev
FNDA:4,_ZN12WPEFramework4Core12TextFragment5IndexD2Ev
FNDA:8,_ZNK12WPEFramework4Core12TextFragment5Index5BeginEv
FNDA:4,_ZNK12WPEFramework4Core12TextFragment5Index6LengthEv
FNF:5
FNH:5
DA:57,4
DA:59,4
DA:69,8
DA:71,8
DA:79,4
DA:81,4
DA:173,4
DA:175,4
DA:248,4
DA:250,8
LF:10
LH:10
end_of_record
TN:
SF:/home/kavia/workspace/code-generation/app-gateway2/dependencies/install/include/WPEFramework/core/Thread.h
FN:170,173,_ZN12WPEFramework4Core6Thread16DefaultStackSizeEv
FN:221,224,_ZNK12WPEFramework4Core6Thread2IdEv
FNDA:2,_ZN12WPEFramework4Core6Thread16DefaultStackSizeEv
FNDA:0,_ZNK12WPEFramework4Core6Thread2IdEv
FNF:2
FNH:1
DA:170,2
DA:172,2
DA:221,0
DA:223,0
LF:4
LH:2
end_of_record
TN:
SF:/home/kavia/workspace/code-generation/app-gateway2/dependencies/install/include/WPEFramework/core/ThreadPool.h
FN:375,385,_ZN12WPEFramework4Core10ThreadPool6MinionC2ERS1_PNS1_11IDispatcherE
FN:386,386,_ZN12WPEFramework4Core10ThreadPool6MinionD2Ev
FN:389,392,_ZNK12WPEFramework4Core10ThreadPool6Minion8IsActiveEv
FN:393,405,_ZNK12WPEFramework4Core10ThreadPool6Minion4InfoERNS1_8MetadataE
FN:406,422,_ZN12WPEFramework4Core10ThreadPool6Minion9CompletedERKNS0_9ProxyTypeINS0_9IDispatchEEEj
FN:42,42,_ZN12WPEFramework4Core10ThreadPool10ISchedulerD0Ev
FN:42,42,_ZN12WPEFramework4Core10ThreadPool10ISchedulerD2Ev
FN:423,485,_ZN12WPEFramework4Core10ThreadPool6Minion7ProcessEv
FN:47,47,_ZN12WPEFramework4Core10ThreadPool11IDispatcherD0Ev
FN:47,47,_ZN12WPEFramework4Core10ThreadPool11IDispatcherD2Ev
FN:508,512,_ZN12WPEFramework4Core10ThreadPool8ExecutorC2ERS1_PNS1_11IDispatcherEjPKc
FN:513,517,_ZN12WPEFramework4Core10ThreadPool8ExecutorD0Ev
FN:513,517,_ZN12WPEFramework4Core10ThreadPool8ExecutorD2Ev
FN:520,522,_ZNK12WPEFramework4Core10ThreadPool8Executor8IsActiveEv
FN:523,526,_ZNK12WPEFramework4Core10ThreadPool8Executor4InfoERNS1_8MetadataE
FN:527,529,_ZN12WPEFramework4Core10ThreadPool8Executor3RunEv
FN:530,532,_ZN12WPEFramework4Core10ThreadPool8Executor4StopEv
FN:533,535,_ZN12WPEFramework4Core10ThreadPool8Executor2MeEv
FN:538,543,_ZN12WPEFramework4Core10ThreadPool8Executor6WorkerEv
FN:553,566,_ZN12WPEFramework4Core10ThreadPoolC2EhjjPNS1_11IDispatcherEPNS1_10ISchedulerEPNS1_6MinionEPNS1_9ICallbackE
FN:567,570,_ZN12WPEFramework4Core10ThreadPoolD2Ev
FN:573,576,_ZNK12WPEFramework4Core10ThreadPool5CountEv
FN:580,598,_ZNK12WPEFramework4Core10ThreadPool8SnapshotEhPNS1_8MetadataERSt6vectorINSt7__cxx1112basic_stringIcSt11char_traitsIcESaIcEEESaISA_EE
FN:593,595,_ZZNK12WPEFramework4Core10ThreadPool8SnapshotEhPNS1_8MetadataERSt6vectorINSt7__cxx1112basic_stringIcSt11char_traitsIcESaIcEEESaISA_EEENKUlRKNS0_9ProxyTypeINS0_9IDispatchEEEE_clESI_
FN:599,608,_ZNK12WPEFramework4Core10ThreadPool2IdEh
FN:609,621,_ZN12WPEFramework4Core10ThreadPool6SubmitERKNS0_9ProxyTypeINS0_9IDispatchEEEj
FN:622,652,_ZN12WPEFramework4Core10ThreadPool6RevokeERKNS0_9ProxyTypeINS0_9IDispatchEEEj
FN:653,661,_ZN12WPEFramework4Core10ThreadPool3RunEv
FN:662,670,_ZN12WPEFramework4Core10ThreadPool4StopEv
FN:694,712,_ZN12WPEFramework4Core10ThreadPool4IdleEv
FN:713,727,_ZN12WPEFramework4Core10ThreadPool7ClosureERNS1_4IJobE
FNDA:3,_ZN12WPEFramework4Core10ThreadPool6MinionC2ERS1_PNS1_11IDispatcherE
FNDA:3,_ZN12WPEFramework4Core10ThreadPool6MinionD2Ev
FNDA:0,_ZNK12WPEFramework4Core10ThreadPool6Minion8IsActiveEv
FNDA:0,_ZNK12WPEFramework4Core10ThreadPool6Minion4InfoERNS1_8MetadataE
FNDA:0,_ZN12WPEFramework4Core10ThreadPool6Minion9CompletedERKNS0_9ProxyTypeINS0_9IDispatchEEEj
FNDA:0,_ZN12WPEFramework4Core10ThreadPool10ISchedulerD0Ev
FNDA:1,_ZN12WPEFramework4Core10ThreadPool10ISchedulerD2Ev
FNDA:2,_ZN12WPEFramework4Core10ThreadPool6Minion7ProcessEv
FNDA:0,_ZN12WPEFramework4Core10ThreadPool11IDispatcherD0Ev
FNDA:1,_ZN12WPEFramework4Core10ThreadPool11IDispatcherD2Ev
FNDA:2,_ZN12WPEFramework4Core10ThreadPool8ExecutorC2ERS1_PNS1_11IDispatcherEjPKc
FNDA:0,_ZN12WPEFramework4Core10ThreadPool8ExecutorD0Ev
FNDA:2,_ZN12WPEFramework4Core10ThreadPool8ExecutorD2Ev
FNDA:0,_ZNK12WPEFramework4Core10ThreadPool8Executor8IsActiveEv
FNDA:0,_ZNK12WPEFramework4Core10ThreadPool8Executor4InfoERNS1_8MetadataE
FNDA:2,_ZN12WPEFramework4Core10ThreadPool8Executor3RunEv
FNDA:6,_ZN12WPEFramework4Core10ThreadPool8Executor4StopEv
FNDA:0,_ZN12WPEFramework4Core10ThreadPool8Executor2MeEv
FNDA:2,_ZN12WPEFramework4Core10ThreadPool8Executor6WorkerEv
FNDA:1,_ZN12WPEFramework4Core10ThreadPoolC2EhjjPNS1_11IDispatcherEPNS1_10ISchedulerEPNS1_6MinionEPNS1_9ICallbackE
FNDA:1,_ZN12WPEFramework4Core10ThreadPoolD2Ev
FNDA:0,_ZNK12WPEFramework4Core10ThreadPool5CountEv
FNDA:0,_ZNK12WPEFramework4Core10ThreadPool8SnapshotEhPNS1_8MetadataERSt6vectorINSt7__cxx1112basic_stringIcSt11char_traitsIcESaIcEEESaISA_EE
FNDA:0,_ZZNK12WPEFramework4Core10ThreadPool8SnapshotEhPNS1_8MetadataERSt6vectorINSt7__cxx1112basic_stringIcSt11char_traitsIcESaIcEEESaISA_EEENKUlRKNS0_9ProxyTypeINS0_9IDispatchEEEE_clESI_
FNDA:0,_ZNK12WPEFramework4Core10ThreadPool2IdEh
FNDA:7,_ZN12WPEFramework4Core10ThreadPool6SubmitERKNS0_9ProxyTypeINS0_9IDispatchEEEj
FNDA:0,_ZN12WPEFramework4Core10ThreadPool6RevokeERKNS0_9ProxyTypeINS0_9IDispatchEEEj
FNDA:1,_ZN12WPEFramework4Core10ThreadPool3RunEv
FNDA:3,_ZN12WPEFramework4Core10ThreadPool4StopEv
FNDA:7,_ZN12WPEFramework4Core10ThreadPool4IdleEv
FNDA:0,_ZN12WPEFramework4Core10ThreadPool7ClosureERNS1_4IJobE
FNF:31
FNH:16
DA:42,1
DA:47,1
DA:375,3
DA:376,3
DA:377,3
DA:378,3
DA:379,3
DA:380,3
DA:381,3
DA:382,3
DA:384,3
DA:385,3
DA:386,3
DA:389,0
DA:390,0
DA:391,0
DA:392,0
DA:393,0
DA:394,0
DA:396,0
DA:397,0
DA:398,0
DA:399,0
DA:402,0
DA:403,0
DA:405,0
DA:406,0
DA:407,0
DA:409,0
DA:411,0
DA:412,0
DA:415,0
DA:416,0
DA:417,0
DA:418,0
DA:421,0
DA:423,2
DA:425,2
DA:427,9
DA:429,7
DA:431,7
DA:450,7
DA:452,7
DA:454,7
DA:456,7
DA:458,0
DA:465,7
DA:467,7
DA:469,7
DA:471,0
DA:473,0
DA:474,0
DA:477,0
DA:479,7
DA:481,7
DA:484,2
DA:485,2
DA:508,2
DA:509,2
DA:510,4
DA:512,2
DA:513,2
DA:514,2
DA:515,2
DA:516,2
DA:517,2
DA:520,0
DA:521,0
DA:523,0
DA:524,0
DA:525,0
DA:526,0
DA:527,2
DA:528,2
DA:529,2
DA:530,6
DA:531,6
DA:532,6
DA:533,0
DA:534,0
DA:538,2
DA:540,2
DA:541,2
DA:542,2
DA:553,1
DA:554,1
DA:555,1
DA:559,1
DA:560,1
DA:562,1
DA:563,3
DA:564,2
DA:566,1
DA:567,1
DA:568,1
DA:569,1
DA:570,1
DA:573,0
DA:575,0
DA:580,0
DA:582,0
DA:583,0
DA:586,0
DA:588,0
DA:589,0
DA:590,0
DA:591,0
DA:593,0
DA:594,0
DA:595,0
DA:597,0
DA:598,0
DA:599,0
DA:601,0
DA:602,0
DA:603,0
DA:605,0
DA:607,0
DA:609,7
DA:611,7
DA:612,7
DA:614,7
DA:615,0
DA:618,7
DA:621,7
DA:622,0
DA:624,0
DA:626,0
DA:628,0
DA:629,0
DA:633,0
DA:635,0
DA:638,0
DA:639,0
DA:642,0
DA:643,0
DA:644,0
DA:647,0
DA:651,0
DA:653,1
DA:655,1
DA:656,1
DA:657,3
DA:658,2
DA:659,2
DA:661,1
DA:662,3
DA:664,3
DA:665,3
DA:666,9
DA:667,6
DA:668,6
DA:670,3
DA:694,7
DA:695,7
DA:696,0
DA:697,0
DA:698,0
DA:701,0
DA:702,0
DA:703,0
DA:704,0
DA:706,0
DA:708,0
DA:712,7
DA:713,0
DA:714,0
DA:715,0
DA:716,0
DA:717,0
DA:718,0
DA:719,0
DA:723,0
DA:726,0
DA:727,0
LF:175
LH:84
end_of_record
TN:
SF:/home/kavia/workspace/code-generation/app-gateway2/dependencies/install/include/WPEFramework/core/Time.h
FN:105,108,_ZN12WPEFramework4Core4TimeC2Ev
FN:110,113,_ZNK12WPEFramework4Core4Time7IsValidEv
FN:123,128,_ZN12WPEFramework4Core4TimeaSERKS1_
FN:270,273,_ZNK12WPEFramework4Core4TimeltERKS1_
FN:278,281,_ZNK12WPEFramework4Core4TimegtERKS1_
FNDA:0,_ZN12WPEFramework4Core4TimeC2Ev
FNDA:0,_ZNK12WPEFramework4Core4Time7IsValidEv
FNDA:0,_ZN12WPEFramework4Core4TimeaSERKS1_
FNDA:0,_ZNK12WPEFramework4Core4TimeltERKS1_
FNDA:0,_ZNK12WPEFramework4Core4TimegtERKS1_
FNF:5
FNH:0
DA:105,0
DA:106,0
DA:108,0
DA:110,0
DA:112,0
DA:123,0
DA:125,0
DA:127,0
DA:270,0
DA:272,0
DA:278,0
DA:280,0
LF:12
LH:0
end_of_record
TN:
SF:/home/kavia/workspace/code-generation/app-gateway2/dependencies/install/include/WPEFramework/core/Timer.h
FN:113,116,_ZNK12WPEFramework4Core9TimerTypeINS0_10WorkerPool5TimerEE9TimedInfoIS3_E12ScheduleTimeEv
FN:118,121,_ZN12WPEFramework4Core9TimerTypeINS0_10WorkerPool5TimerEE9TimedInfoIS3_E12ScheduleTimeEm
FN:123,126,_ZN12WPEFramework4Core9TimerTypeINS0_10WorkerPool5TimerEE9TimedInfoIS3_E7ContentEv
FN:139,143,_ZN12WPEFramework4Core9TimerTypeINS0_10WorkerPool5TimerEE10TimeWorkerC2ERS4_jPKc
FN:144,144,_ZN12WPEFramework4Core9TimerTypeINS0_10WorkerPool5TimerEE10TimeWorkerD0Ev
FN:144,144,_ZN12WPEFramework4Core9TimerTypeINS0_10WorkerPool5TimerEE10TimeWorkerD2Ev
FN:146,149,_ZN12WPEFramework4Core9TimerTypeINS0_10WorkerPool5TimerEE10TimeWorker6WorkerEv
FN:162,173,_ZN12WPEFramework4Core9TimerTypeINS0_10WorkerPool5TimerEEC2EjPKc
FN:174,186,_ZN12WPEFramework4Core9TimerTypeINS0_10WorkerPool5TimerEED2Ev
FN:188,191,_ZN12WPEFramework4Core9TimerTypeINS0_10WorkerPool5TimerEE8ScheduleERKNS0_4TimeEOS3_
FN:198,201,_ZN12WPEFramework4Core9TimerTypeINS0_10WorkerPool5TimerEE8ScheduleERKmOS3_
FN:220,238,_ZNK12WPEFramework4Core9TimerTypeINS0_10WorkerPool5TimerEE8HasEntryERKS3_
FN:241,250,_ZN12WPEFramework4Core9TimerTypeINS0_10WorkerPool5TimerEE8ScheduleEONS4_9TimedInfoIS3_EE
FN:276,319,_ZN12WPEFramework4Core9TimerTypeINS0_10WorkerPool5TimerEE6RevokeERKS3_
FN:326,329,_ZNK12WPEFramework4Core9TimerTypeINS0_10WorkerPool5TimerEE7PendingEv
FN:331,334,_ZNK12WPEFramework4Core9TimerTypeINS0_10WorkerPool5TimerEE8ThreadIdEv
FN:337,394,_ZN12WPEFramework4Core9TimerTypeINS0_10WorkerPool5TimerEE7ProcessEv
FN:397,418,_ZN12WPEFramework4Core9TimerTypeINS0_10WorkerPool5TimerEE13ScheduleEntryEONS4_9TimedInfoIS3_EE
FN:66,70,_ZN12WPEFramework4Core9TimerTypeINS0_10WorkerPool5TimerEE9TimedInfoIS3_EC2EmOS3_
FN:78,82,_ZN12WPEFramework4Core9TimerTypeINS0_10WorkerPool5TimerEE9TimedInfoIS3_EC2EOS6_
FN:84,86,_ZN12WPEFramework4Core9TimerTypeINS0_10WorkerPool5TimerEE9TimedInfoIS3_ED2Ev
FN:92,95,_ZNK12WPEFramework4Core9TimerTypeINS0_10WorkerPool5TimerEE9TimedInfoIS3_EneERKS3_
FNDA:0,_ZNK12WPEFramework4Core9TimerTypeINS0_10WorkerPool5TimerEE9TimedInfoIS3_E12ScheduleTimeEv
FNDA:0,_ZN12WPEFramework4Core9TimerTypeINS0_10WorkerPool5TimerEE9TimedInfoIS3_E12ScheduleTimeEm
FNDA:0,_ZN12WPEFramework4Core9TimerTypeINS0_10WorkerPool5TimerEE9TimedInfoIS3_E7ContentEv
FNDA:1,_ZN12WPEFramework4Core9TimerTypeINS0_10WorkerPool5TimerEE10TimeWorkerC2ERS4_jPKc
FNDA:0,_ZN12WPEFramework4Core9TimerTypeINS0_10WorkerPool5TimerEE10TimeWorkerD0Ev
FNDA:1,_ZN12WPEFramework4Core9TimerTypeINS0_10WorkerPool5TimerEE10TimeWorkerD2Ev
FNDA:0,_ZN12WPEFramework4Core9TimerTypeINS0_10WorkerPool5TimerEE10TimeWorker6WorkerEv
FNDA:1,_ZN12WPEFramework4Core9TimerTypeINS0_10WorkerPool5TimerEEC2EjPKc
FNDA:1,_ZN12WPEFramework4Core9TimerTypeINS0_10WorkerPool5TimerEED2Ev
FNDA:0,_ZN12WPEFramework4Core9TimerTypeINS0_10WorkerPool5TimerEE8ScheduleERKNS0_4TimeEOS3_
FNDA:0,_ZN12WPEFramework4Core9TimerTypeINS0_10WorkerPool5TimerEE8ScheduleERKmOS3_
FNDA:7,_ZNK12WPEFramework4Core9TimerTypeINS0_10WorkerPool5TimerEE8HasEntryERKS3_
FNDA:0,_ZN12WPEFramework4Core9TimerTypeINS0_10WorkerPool5TimerEE8ScheduleEONS4_9TimedInfoIS3_EE
FNDA:0,_ZN12WPEFramework4Core9TimerTypeINS0_10WorkerPool5TimerEE6RevokeERKS3_
FNDA:0,_ZNK12WPEFramework4Core9TimerTypeINS0_10WorkerPool5TimerEE7PendingEv
FNDA:0,_ZNK12WPEFramework4Core9TimerTypeINS0_10WorkerPool5TimerEE8ThreadIdEv
FNDA:0,_ZN12WPEFramework4Core9TimerTypeINS0_10WorkerPool5TimerEE7ProcessEv
FNDA:0,_ZN12WPEFramework4Core9TimerTypeINS0_10WorkerPool5TimerEE13ScheduleEntryEONS4_9TimedInfoIS3_EE
FNDA:0,_ZN12WPEFramework4Core9TimerTypeINS0_10WorkerPool5TimerEE9TimedInfoIS3_EC2EmOS3_
FNDA:0,_ZN12WPEFramework4Core9TimerTypeINS0_10WorkerPool5TimerEE9TimedInfoIS3_EC2EOS6_
FNDA:0,_ZN12WPEFramework4Core9TimerTypeINS0_10WorkerPool5TimerEE9TimedInfoIS3_ED2Ev
FNDA:0,_ZNK12WPEFramework4Core9TimerTypeINS0_10WorkerPool5TimerEE9TimedInfoIS3_EneERKS3_
FNF:22
FNH:5
DA:66,0
DA:67,0
DA:68,0
DA:70,0
DA:78,0
DA:79,0
DA:80,0
DA:82,0
DA:84,0
DA:86,0
DA:92,0
DA:94,0
DA:113,0
DA:115,0
DA:118,0
DA:120,0
DA:121,0
DA:123,0
DA:125,0
DA:139,1
DA:141,1
DA:143,1
DA:144,1
DA:146,0
DA:148,0
DA:162,1
DA:163,1
DA:164,1
DA:165,1
DA:166,1
DA:167,1
DA:168,1
DA:172,1
DA:173,1
DA:174,1
DA:176,1
DA:178,1
DA:181,1
DA:183,1
DA:185,1
DA:186,1
DA:188,0
DA:190,0
DA:191,0
DA:198,0
DA:200,0
DA:201,0
DA:220,7
DA:223,7
DA:225,7
DA:228,7
DA:229,0
DA:232,7
DA:235,7
DA:237,7
DA:241,0
DA:243,0
DA:245,0
DA:246,0
DA:249,0
DA:250,0
DA:276,0
DA:278,0
DA:280,0
DA:282,0
DA:285,0
DA:287,0
DA:289,0
DA:291,0
DA:294,0
DA:296,0
DA:298,0
DA:299,0
DA:300,0
DA:301,0
DA:304,0
DA:307,0
DA:311,0
DA:313,0
DA:316,0
DA:318,0
DA:326,0
DA:328,0
DA:331,0
DA:333,0
DA:337,0
DA:339,0
DA:340,0
DA:342,0
DA:346,0
DA:348,0
DA:349,0
DA:350,0
DA:353,0
DA:354,0
DA:356,0
DA:358,0
DA:360,0
DA:362,0
DA:363,0
DA:365,0
DA:366,0
DA:369,0
DA:370,0
DA:374,0
DA:375,0
DA:378,0
DA:380,0
DA:381,0
DA:382,0
DA:386,0
DA:387,0
DA:391,0
DA:393,0
DA:397,0
DA:399,0
DA:400,0
DA:402,0
DA:403,0
DA:406,0
DA:407,0
DA:410,0
DA:411,0
DA:412,0
DA:414,0
DA:417,0
LF:126
LH:27
end_of_record
TN:
SF:/home/kavia/workspace/code-generation/app-gateway2/dependencies/install/include/WPEFramework/core/TokenizedStringList.h
FN:29,29,_ZN12WPEFramework4Core19TokenizedStringListILc44ELb1EEC2Ev
FN:30,30,_ZN12WPEFramework4Core19TokenizedStringListILc44ELb1EED2Ev
FN:32,32,_ZN12WPEFramework4Core19TokenizedStringListILc44ELb1EEaSERKS2_
FN:59,62,_ZN12WPEFramework4Core19TokenizedStringListILc44ELb1EE5ClearEv
FN:64,67,_ZNK12WPEFramework4Core19TokenizedStringListILc44ELb1EE5FirstB5cxx11Ev
FN:86,89,_ZNK12WPEFramework4Core19TokenizedStringListILc44ELb1EE5EmptyEv
FN:91,94,_ZNK12WPEFramework4Core19TokenizedStringListILc44ELb1EE4SizeEv
FNDA:0,_ZN12WPEFramework4Core19TokenizedStringListILc44ELb1EEC2Ev
FNDA:0,_ZN12WPEFramework4Core19TokenizedStringListILc44ELb1EED2Ev
FNDA:0,_ZN12WPEFramework4Core19TokenizedStringListILc44ELb1EEaSERKS2_
FNDA:0,_ZN12WPEFramework4Core19TokenizedStringListILc44ELb1EE5ClearEv
FNDA:0,_ZNK12WPEFramework4Core19TokenizedStringListILc44ELb1EE5FirstB5cxx11Ev
FNDA:0,_ZNK12WPEFramework4Core19TokenizedStringListILc44ELb1EE5EmptyEv
FNDA:0,_ZNK12WPEFramework4Core19TokenizedStringListILc44ELb1EE4SizeEv
FNF:7
FNH:0
DA:29,0
DA:30,0
DA:32,0
DA:59,0
DA:61,0
DA:62,0
DA:64,0
DA:66,0
DA:86,0
DA:88,0
DA:91,0
DA:93,0
LF:12
LH:0
end_of_record
TN:
SF:/home/kavia/workspace/code-generation/app-gateway2/dependencies/install/include/WPEFramework/core/WorkerPool.h
FN:124,128,_ZN12WPEFramework4Core10WorkerPool5TimerC2ERKS2_
FN:129,133,_ZN12WPEFramework4Core10WorkerPool5TimerC2EPNS0_11IWorkerPoolERKNS0_9ProxyTypeINS0_9IDispatchEEE
FN:134,136,_ZN12WPEFramework4Core10WorkerPool5TimerD2Ev
FN:139,142,_ZNK12WPEFramework4Core10WorkerPool5TimereqERKS2_
FN:143,146,_ZNK12WPEFramework4Core10WorkerPool5TimerneERKS2_
FN:147,155,_ZN12WPEFramework4Core10WorkerPool5Timer5TimedEm
FN:167,168,_ZN12WPEFramework4Core10WorkerPool9SchedulerC2EPNS0_11IWorkerPoolERNS0_9TimerTypeINS1_5TimerEEE
FN:169,169,_ZN12WPEFramework4Core10WorkerPool9SchedulerD0Ev
FN:169,169,_ZN12WPEFramework4Core10WorkerPool9SchedulerD2Ev
FN:173,175,_ZN12WPEFramework4Core10WorkerPool9Scheduler8ScheduleERKNS0_4TimeERKNS0_9ProxyTypeINS0_9IDispatchEEE
FN:31,31,_ZN12WPEFramework4Core11IWorkerPoolD0Ev
FN:31,31,_ZN12WPEFramework4Core11IWorkerPoolD2Ev
FN:311,324,_ZN12WPEFramework4Core10WorkerPoolC2EhjjPNS0_10ThreadPool11IDispatcherEPNS2_9ICallbackE
FN:327,331,_ZN12WPEFramework4Core10WorkerPoolD0Ev
FN:327,331,_ZN12WPEFramework4Core10WorkerPoolD2Ev
FN:334,340,_ZN12WPEFramework4Core10WorkerPool6SubmitERKNS0_9ProxyTypeINS0_9IDispatchEEE
FN:341,352,_ZN12WPEFramework4Core10WorkerPool8ScheduleERKNS0_4TimeERKNS0_9ProxyTypeINS0_9IDispatchEEE
FN:353,360,_ZN12WPEFramework4Core10WorkerPool10RescheduleERKNS0_4TimeERKNS0_9ProxyTypeINS0_9IDispatchEEE
FN:361,376,_ZN12WPEFramework4Core10WorkerPool6RevokeERKNS0_9ProxyTypeINS0_9IDispatchEEEj
FN:377,382,_ZN12WPEFramework4Core10WorkerPool4JoinEv
FN:383,396,_ZNK12WPEFramework4Core10WorkerPool2IdEh
FN:397,406,_ZNK12WPEFramework4Core10WorkerPool8SnapshotEv
FN:407,414,_ZN12WPEFramework4Core10WorkerPool3RunEv
FN:415,422,_ZN12WPEFramework4Core10WorkerPool4StopEv
FNDA:0,_ZN12WPEFramework4Core10WorkerPool5TimerC2ERKS2_
FNDA:7,_ZN12WPEFramework4Core10WorkerPool5TimerC2EPNS0_11IWorkerPoolERKNS0_9ProxyTypeINS0_9IDispatchEEE
FNDA:7,_ZN12WPEFramework4Core10WorkerPool5TimerD2Ev
FNDA:0,_ZNK12WPEFramework4Core10WorkerPool5TimereqERKS2_
FNDA:0,_ZNK12WPEFramework4Core10WorkerPool5TimerneERKS2_
FNDA:0,_ZN12WPEFramework4Core10WorkerPool5Timer5TimedEm
FNDA:1,_ZN12WPEFramework4Core10WorkerPool9SchedulerC2EPNS0_11IWorkerPoolERNS0_9TimerTypeINS1_5TimerEEE
FNDA:0,_ZN12WPEFramework4Core10WorkerPool9SchedulerD0Ev
FNDA:1,_ZN12WPEFramework4Core10WorkerPool9SchedulerD2Ev
FNDA:0,_ZN12WPEFramework4Core10WorkerPool9Scheduler8ScheduleERKNS0_4TimeERKNS0_9ProxyTypeINS0_9IDispatchEEE
FNDA:0,_ZN12WPEFramework4Core11IWorkerPoolD0Ev
FNDA:1,_ZN12WPEFramework4Core11IWorkerPoolD2Ev
FNDA:1,_ZN12WPEFramework4Core10WorkerPoolC2EhjjPNS0_10ThreadPool11IDispatcherEPNS2_9ICallbackE
FNDA:1,_ZN12WPEFramework4Core10WorkerPoolD0Ev
FNDA:1,_ZN12WPEFramework4Core10WorkerPoolD2Ev
FNDA:7,_ZN12WPEFramework4Core10WorkerPool6SubmitERKNS0_9ProxyTypeINS0_9IDispatchEEE
FNDA:0,_ZN12WPEFramework4Core10WorkerPool8ScheduleERKNS0_4TimeERKNS0_9ProxyTypeINS0_9IDispatchEEE
FNDA:0,_ZN12WPEFramework4Core10WorkerPool10RescheduleERKNS0_4TimeERKNS0_9ProxyTypeINS0_9IDispatchEEE
FNDA:0,_ZN12WPEFramework4Core10WorkerPool6RevokeERKNS0_9ProxyTypeINS0_9IDispatchEEEj
FNDA:0,_ZN12WPEFramework4Core10WorkerPool4JoinEv
FNDA:0,_ZNK12WPEFramework4Core10WorkerPool2IdEh
FNDA:0,_ZNK12WPEFramework4Core10WorkerPool8SnapshotEv
FNDA:1,_ZN12WPEFramework4Core10WorkerPool3RunEv
FNDA:1,_ZN12WPEFramework4Core10WorkerPool4StopEv
FNF:24
FNH:11
DA:31,1
DA:124,0
DA:125,0
DA:126,0
DA:128,0
DA:129,7
DA:130,7
DA:131,7
DA:133,7
DA:134,7
DA:136,7
DA:139,0
DA:141,0
DA:143,0
DA:145,0
DA:147,0
DA:149,0
DA:150,0
DA:151,0
DA:154,0
DA:167,1
DA:168,1
DA:169,1
DA:173,0
DA:174,0
DA:175,0
DA:311,1
DA:312,2
DA:313,1
DA:314,1
DA:315,1
DA:316,1
DA:317,1
DA:322,1
DA:323,5
DA:324,1
DA:327,2
DA:328,1
DA:329,1
DA:330,5
DA:331,2
DA:334,7
DA:337,7
DA:339,7
DA:340,7
DA:341,0
DA:343,0
DA:344,0
DA:345,0
DA:347,0
DA:350,0
DA:352,0
DA:353,0
DA:355,0
DA:357,0
DA:358,0
DA:359,0
DA:361,0
DA:363,0
DA:365,0
DA:367,0
DA:368,0
DA:370,0
DA:371,0
DA:375,0
DA:377,0
DA:379,0
DA:380,0
DA:381,0
DA:382,0
DA:383,0
DA:385,0
DA:387,0
DA:388,0
DA:389,0
DA:390,0
DA:391,0
DA:392,0
DA:395,0
DA:397,0
DA:399,0
DA:400,0
DA:401,0
DA:402,0
DA:403,0
DA:404,0
DA:405,0
DA:407,1
DA:409,1
DA:414,1
DA:415,1
DA:421,1
DA:422,1
LF:93
LH:35
end_of_record
TN:
SF:/home/kavia/workspace/code-generation/app-gateway2/dependencies/install/include/WPEFramework/interfaces/IConfiguration.h
FNF:0
FNH:0
LF:0
LH:0
end_of_record
TN:
SF:/home/kavia/workspace/code-generation/app-gateway2/dependencies/install/include/WPEFramework/plugins/IPlugin.h
FN:70,70,_ZN12WPEFramework10PluginHost7IPluginD2Ev
FNDA:27,_ZN12WPEFramework10PluginHost7IPluginD2Ev
FNF:1
FNH:1
DA:70,27
LF:1
LH:1
end_of_record
TN:
SF:/home/kavia/workspace/code-generation/app-gateway2/dependencies/install/include/WPEFramework/plugins/IShell.h
FN:309,317,_ZN12WPEFramework10PluginHost6IShell16RemoteConnectionEj
FN:328,338,_ZN12WPEFramework10PluginHost6IShell4RootINS_8Exchange19IAppGatewayResolverEEEPT_RjjNSt7__cxx1112basic_stringIcSt11char_traitsIcESaIcEEEj
FN:328,338,_ZN12WPEFramework10PluginHost6IShell4RootINS_8Exchange20IAppGatewayResponderEEEPT_RjjNSt7__cxx1112basic_stringIcSt11char_traitsIcESaIcEEEj
FN:340,349,_ZN12WPEFramework10PluginHost6IShell24QueryInterfaceByCallsignINS0_13IAuthenticateEEEPT_RKNSt7__cxx1112basic_stringIcSt11char_traitsIcESaIcEEE
FN:340,349,_ZN12WPEFramework10PluginHost6IShell24QueryInterfaceByCallsignINS0_16ILocalDispatcherEEEPT_RKNSt7__cxx1112basic_stringIcSt11char_traitsIcESaIcEEE
FN:340,349,_ZN12WPEFramework10PluginHost6IShell24QueryInterfaceByCallsignINS_8Exchange17IAppNotificationsEEEPT_RKNSt7__cxx1112basic_stringIcSt11char_traitsIcESaIcEEE
FN:340,349,_ZN12WPEFramework10PluginHost6IShell24QueryInterfaceByCallsignINS_8Exchange20IAppGatewayResponderEEEPT_RKNSt7__cxx1112basic_stringIcSt11char_traitsIcESaIcEEE
FN:340,349,_ZN12WPEFramework10PluginHost6IShell24QueryInterfaceByCallsignINS_8Exchange24IAppGatewayAuthenticatorEEEPT_RKNSt7__cxx1112basic_stringIcSt11char_traitsIcESaIcEEE
FN:340,349,_ZN12WPEFramework10PluginHost6IShell24QueryInterfaceByCallsignINS_8Exchange25IAppGatewayRequestHandlerEEEPT_RKNSt7__cxx1112basic_stringIcSt11char_traitsIcESaIcEEE
FN:382,385,_ZNK12WPEFramework10PluginHost6IShell21GetLibrarySearchPathsERKNSt7__cxx1112basic_stringIcSt11char_traitsIcESaIcEEE
FN:51,51,_ZN12WPEFramework10PluginHost6IShell8ICOMLinkD0Ev
FN:51,51,_ZN12WPEFramework10PluginHost6IShell8ICOMLinkD2Ev
FNDA:26,_ZN12WPEFramework10PluginHost6IShell16RemoteConnectionEj
FNDA:0,_ZN12WPEFramework10PluginHost6IShell4RootINS_8Exchange19IAppGatewayResolverEEEPT_RjjNSt7__cxx1112basic_stringIcSt11char_traitsIcESaIcEEEj
FNDA:0,_ZN12WPEFramework10PluginHost6IShell4RootINS_8Exchange20IAppGatewayResponderEEEPT_RjjNSt7__cxx1112basic_stringIcSt11char_traitsIcESaIcEEEj
FNDA:0,_ZN12WPEFramework10PluginHost6IShell24QueryInterfaceByCallsignINS0_13IAuthenticateEEEPT_RKNSt7__cxx1112basic_stringIcSt11char_traitsIcESaIcEEE
FNDA:0,_ZN12WPEFramework10PluginHost6IShell24QueryInterfaceByCallsignINS0_16ILocalDispatcherEEEPT_RKNSt7__cxx1112basic_stringIcSt11char_traitsIcESaIcEEE
FNDA:1,_ZN12WPEFramework10PluginHost6IShell24QueryInterfaceByCallsignINS_8Exchange17IAppNotificationsEEEPT_RKNSt7__cxx1112basic_stringIcSt11char_traitsIcESaIcEEE
FNDA:0,_ZN12WPEFramework10PluginHost6IShell24QueryInterfaceByCallsignINS_8Exchange20IAppGatewayResponderEEEPT_RKNSt7__cxx1112basic_stringIcSt11char_traitsIcESaIcEEE
FNDA:2,_ZN12WPEFramework10PluginHost6IShell24QueryInterfaceByCallsignINS_8Exchange24IAppGatewayAuthenticatorEEEPT_RKNSt7__cxx1112basic_stringIcSt11char_traitsIcESaIcEEE
FNDA:1,_ZN12WPEFramework10PluginHost6IShell24QueryInterfaceByCallsignINS_8Exchange25IAppGatewayRequestHandlerEEEPT_RKNSt7__cxx1112basic_stringIcSt11char_traitsIcESaIcEEE
FNDA:0,_ZNK12WPEFramework10PluginHost6IShell21GetLibrarySearchPathsERKNSt7__cxx1112basic_stringIcSt11char_traitsIcESaIcEEE
FNDA:0,_ZN12WPEFramework10PluginHost6IShell8ICOMLinkD0Ev
FNDA:8,_ZN12WPEFramework10PluginHost6IShell8ICOMLinkD2Ev
FNF:12
FNH:5
DA:51,8
DA:309,26
DA:311,26
DA:314,26
DA:316,26
DA:328,0
DA:330,0
DA:332,0
DA:334,0
DA:337,0
DA:340,4
DA:342,4
DA:344,4
DA:345,4
DA:348,0
DA:382,0
DA:384,0
LF:17
LH:9
end_of_record
TN:
SF:/home/kavia/workspace/code-generation/app-gateway2/dependencies/install/include/WPEFramework/plugins/JSONRPC.h
FN:113,129,_ZN12WPEFramework10PluginHost7JSONRPC8Observer11UnsubscribeEjRKNSt7__cxx1112basic_stringIcSt11char_traitsIcESaIcEEE
FN:130,139,_ZN12WPEFramework10PluginHost7JSONRPC8Observer9SubscribeEPNS0_11IDispatcher9ICallbackE
FN:140,149,_ZN12WPEFramework10PluginHost7JSONRPC8Observer11UnsubscribeEPKNS0_11IDispatcher9ICallbackE
FN:151,162,_ZN12WPEFramework10PluginHost7JSONRPC8Observer7DroppedIZNS1_7DroppedEjEUlRKNSt7__cxx1112basic_stringIcSt11char_traitsIcESaIcEEEE_EEvjT_
FN:163,172,_ZN12WPEFramework10PluginHost7JSONRPC8Observer5EventERS1_NSt7__cxx1112basic_stringIcSt11char_traitsIcESaIcEEERKS9_OSt8functionIFbSB_EE
FN:234,241,_ZN12WPEFramework10PluginHost7JSONRPC12RegistrationC2Ev
FN:242,242,_ZN12WPEFramework10PluginHost7JSONRPC12RegistrationD0Ev
FN:242,242,_ZN12WPEFramework10PluginHost7JSONRPC12RegistrationD2Ev
FN:35,42,_ZN12WPEFramework10PluginHost12_GLOBAL__N_115InvokeOnHandlerIRKSt8functionIFiRKNS_4Core7JSONRPC7ContextERKNSt7__cxx1112basic_stringIcSt11char_traitsIcESaIcEEESG_jRSE_EEEEjS8_SG_SG_SH_RNS5_7HandlerET_
FN:357,360,_ZN12WPEFramework10PluginHost7JSONRPC8RegisterERKNSt7__cxx1112basic_stringIcSt11char_traitsIcESaIcEEERKSt8functionIFjRKNS_4Core7JSONRPC7ContextES9_S9_RS7_EE
FN:365,368,_ZN12WPEFramework10PluginHost7JSONRPC10UnregisterERKNSt7__cxx1112basic_stringIcSt11char_traitsIcESaIcEEE
FN:436,448,_ZNK12WPEFramework10PluginHost7JSONRPC8ValidateERKNSt7__cxx1112basic_stringIcSt11char_traitsIcESaIcEEES9_S9_
FN:44,47,_ZN12WPEFramework10PluginHost12_GLOBAL__N_115InvokeOnHandlerIPvEEjRKNS_4Core7JSONRPC7ContextERKNSt7__cxx1112basic_stringIcSt11char_traitsIcESaIcEEESG_RSE_RNS5_7HandlerET_
FN:450,453,_ZN12WPEFramework10PluginHost7JSONRPC6InvokeEPNS0_11IDispatcher9ICallbackEjjRKNSt7__cxx1112basic_stringIcSt11char_traitsIcESaIcEEESC_SC_RSA_
FN:456,479,_ZN12WPEFramework10PluginHost7JSONRPC13InvokeHandlerIPvEEjPNS0_11IDispatcher9ICallbackEjjRKNSt7__cxx1112basic_stringIcSt11char_traitsIcESaIcEEESE_SE_RSC_T_
FN:480,486,_ZN12WPEFramework10PluginHost7JSONRPC6RevokeEPNS0_11IDispatcher9ICallbackE
FN:487,489,_ZN12WPEFramework10PluginHost7JSONRPC5LocalEv
FN:493,529,_ZN12WPEFramework10PluginHost7JSONRPC6InvokeEjjRKNSt7__cxx1112basic_stringIcSt11char_traitsIcESaIcEEES9_S9_RS7_
FN:530,538,_ZN12WPEFramework10PluginHost7JSONRPC8ActivateEPNS0_6IShellE
FN:539,549,_ZN12WPEFramework10PluginHost7JSONRPC10DeactivateEv
FN:550,571,_ZN12WPEFramework10PluginHost7JSONRPC7DroppedEj
FN:559,559,_ZZN12WPEFramework10PluginHost7JSONRPC7DroppedEjENKUlRKNSt7__cxx1112basic_stringIcSt11char_traitsIcESaIcEEEE_clES9_
FN:575,588,_ZN12WPEFramework10PluginHost7JSONRPC5EventERKNSt7__cxx1112basic_stringIcSt11char_traitsIcESaIcEEES9_
FN:589,600,_ZN12WPEFramework10PluginHost7JSONRPC5ErrorEjjjRKNSt7__cxx1112basic_stringIcSt11char_traitsIcESaIcEEE
FN:601,611,_ZN12WPEFramework10PluginHost7JSONRPC8ResponseEjjRKNSt7__cxx1112basic_stringIcSt11char_traitsIcESaIcEEE
FN:612,615,_ZN12WPEFramework10PluginHost7JSONRPC9SubscribeEjRKNSt7__cxx1112basic_stringIcSt11char_traitsIcESaIcEEES9_
FN:616,639,_ZN12WPEFramework10PluginHost7JSONRPC11UnsubscribeEjRKNSt7__cxx1112basic_stringIcSt11char_traitsIcESaIcEEES9_
FN:642,664,_ZN12WPEFramework10PluginHost7JSONRPC11DoSubscribeEjRKNSt7__cxx1112basic_stringIcSt11char_traitsIcESaIcEEES9_
FN:667,670,_ZN12WPEFramework10PluginHost7JSONRPC16ProcessSubscribeEjRKNSt7__cxx1112basic_stringIcSt11char_traitsIcESaIcEEES9_
FN:672,674,_ZN12WPEFramework10PluginHost7JSONRPC19ProcessUnsubscribedEjRKNSt7__cxx1112basic_stringIcSt11char_traitsIcESaIcEEES9_
FN:698,711,_ZN12WPEFramework10PluginHost7JSONRPC7HandlerERKNSt7__cxx1112basic_stringIcSt11char_traitsIcESaIcEEE
FN:71,74,_ZN12WPEFramework10PluginHost7JSONRPC8ObserverC2Ev
FN:714,741,_ZN12WPEFramework10PluginHost7JSONRPC9SubscribeEPNS0_11IDispatcher9ICallbackEjRKNSt7__cxx1112basic_stringIcSt11char_traitsIcESaIcEEESC_
FN:742,765,_ZN12WPEFramework10PluginHost7JSONRPC11UnsubscribeEPNS0_11IDispatcher9ICallbackEjRKNSt7__cxx1112basic_stringIcSt11char_traitsIcESaIcEEESC_
FN:782,796,_ZN12WPEFramework10PluginHost7JSONRPC6NotifyEjRKNSt7__cxx1112basic_stringIcSt11char_traitsIcESaIcEEES9_
FN:86,90,_ZN12WPEFramework10PluginHost7JSONRPC8ObserverD2Ev
FN:93,95,_ZNK12WPEFramework10PluginHost7JSONRPC8Observer7IsEmptyEv
FN:96,112,_ZN12WPEFramework10PluginHost7JSONRPC8Observer9SubscribeEjRKNSt7__cxx1112basic_stringIcSt11char_traitsIcESaIcEEE
FNDA:0,_ZN12WPEFramework10PluginHost7JSONRPC8Observer11UnsubscribeEjRKNSt7__cxx1112basic_stringIcSt11char_traitsIcESaIcEEE
FNDA:0,_ZN12WPEFramework10PluginHost7JSONRPC8Observer9SubscribeEPNS0_11IDispatcher9ICallbackE
FNDA:0,_ZN12WPEFramework10PluginHost7JSONRPC8Observer11UnsubscribeEPKNS0_11IDispatcher9ICallbackE
FNDA:0,_ZN12WPEFramework10PluginHost7JSONRPC8Observer7DroppedIZNS1_7DroppedEjEUlRKNSt7__cxx1112basic_stringIcSt11char_traitsIcESaIcEEEE_EEvjT_
FNDA:0,_ZN12WPEFramework10PluginHost7JSONRPC8Observer5EventERS1_NSt7__cxx1112basic_stringIcSt11char_traitsIcESaIcEEERKS9_OSt8functionIFbSB_EE
FNDA:0,_ZN12WPEFramework10PluginHost7JSONRPC12RegistrationC2Ev
FNDA:0,_ZN12WPEFramework10PluginHost7JSONRPC12RegistrationD0Ev
FNDA:0,_ZN12WPEFramework10PluginHost7JSONRPC12RegistrationD2Ev
FNDA:0,_ZN12WPEFramework10PluginHost12_GLOBAL__N_115InvokeOnHandlerIRKSt8functionIFiRKNS_4Core7JSONRPC7ContextERKNSt7__cxx1112basic_stringIcSt11char_traitsIcESaIcEEESG_jRSE_EEEEjS8_SG_SG_SH_RNS5_7HandlerET_
FNDA:52,_ZN12WPEFramework10PluginHost7JSONRPC8RegisterERKNSt7__cxx1112basic_stringIcSt11char_traitsIcESaIcEEERKSt8functionIFjRKNS_4Core7JSONRPC7ContextES9_S9_RS7_EE
FNDA:26,_ZN12WPEFramework10PluginHost7JSONRPC10UnregisterERKNSt7__cxx1112basic_stringIcSt11char_traitsIcESaIcEEE
FNDA:0,_ZNK12WPEFramework10PluginHost7JSONRPC8ValidateERKNSt7__cxx1112basic_stringIcSt11char_traitsIcESaIcEEES9_S9_
FNDA:21,_ZN12WPEFramework10PluginHost12_GLOBAL__N_115InvokeOnHandlerIPvEEjRKNS_4Core7JSONRPC7ContextERKNSt7__cxx1112basic_stringIcSt11char_traitsIcESaIcEEESG_RSE_RNS5_7HandlerET_
FNDA:23,_ZN12WPEFramework10PluginHost7JSONRPC6InvokeEPNS0_11IDispatcher9ICallbackEjjRKNSt7__cxx1112basic_stringIcSt11char_traitsIcESaIcEEESC_SC_RSA_
FNDA:23,_ZN12WPEFramework10PluginHost7JSONRPC13InvokeHandlerIPvEEjPNS0_11IDispatcher9ICallbackEjjRKNSt7__cxx1112basic_stringIcSt11char_traitsIcESaIcEEESE_SE_RSC_T_
FNDA:0,_ZN12WPEFramework10PluginHost7JSONRPC6RevokeEPNS0_11IDispatcher9ICallbackE
FNDA:0,_ZN12WPEFramework10PluginHost7JSONRPC5LocalEv
FNDA:0,_ZN12WPEFramework10PluginHost7JSONRPC6InvokeEjjRKNSt7__cxx1112basic_stringIcSt11char_traitsIcESaIcEEES9_S9_RS7_
FNDA:0,_ZN12WPEFramework10PluginHost7JSONRPC8ActivateEPNS0_6IShellE
FNDA:0,_ZN12WPEFramework10PluginHost7JSONRPC10DeactivateEv
FNDA:0,_ZN12WPEFramework10PluginHost7JSONRPC7DroppedEj
FNDA:0,_ZZN12WPEFramework10PluginHost7JSONRPC7DroppedEjENKUlRKNSt7__cxx1112basic_stringIcSt11char_traitsIcESaIcEEEE_clES9_
FNDA:0,_ZN12WPEFramework10PluginHost7JSONRPC5EventERKNSt7__cxx1112basic_stringIcSt11char_traitsIcESaIcEEES9_
FNDA:0,_ZN12WPEFramework10PluginHost7JSONRPC5ErrorEjjjRKNSt7__cxx1112basic_stringIcSt11char_traitsIcESaIcEEE
FNDA:0,_ZN12WPEFramework10PluginHost7JSONRPC8ResponseEjjRKNSt7__cxx1112basic_stringIcSt11char_traitsIcESaIcEEE
FNDA:0,_ZN12WPEFramework10PluginHost7JSONRPC9SubscribeEjRKNSt7__cxx1112basic_stringIcSt11char_traitsIcESaIcEEES9_
FNDA:0,_ZN12WPEFramework10PluginHost7JSONRPC11UnsubscribeEjRKNSt7__cxx1112basic_stringIcSt11char_traitsIcESaIcEEES9_
FNDA:0,_ZN12WPEFramework10PluginHost7JSONRPC11DoSubscribeEjRKNSt7__cxx1112basic_stringIcSt11char_traitsIcESaIcEEES9_
FNDA:0,_ZN12WPEFramework10PluginHost7JSONRPC16ProcessSubscribeEjRKNSt7__cxx1112basic_stringIcSt11char_traitsIcESaIcEEES9_
FNDA:0,_ZN12WPEFramework10PluginHost7JSONRPC19ProcessUnsubscribedEjRKNSt7__cxx1112basic_stringIcSt11char_traitsIcESaIcEEES9_
FNDA:49,_ZN12WPEFramework10PluginHost7JSONRPC7HandlerERKNSt7__cxx1112basic_stringIcSt11char_traitsIcESaIcEEE
FNDA:0,_ZN12WPEFramework10PluginHost7JSONRPC8ObserverC2Ev
FNDA:0,_ZN12WPEFramework10PluginHost7JSONRPC9SubscribeEPNS0_11IDispatcher9ICallbackEjRKNSt7__cxx1112basic_stringIcSt11char_traitsIcESaIcEEESC_
FNDA:0,_ZN12WPEFramework10PluginHost7JSONRPC11UnsubscribeEPNS0_11IDispatcher9ICallbackEjRKNSt7__cxx1112basic_stringIcSt11char_traitsIcESaIcEEESC_
FNDA:0,_ZN12WPEFramework10PluginHost7JSONRPC6NotifyEjRKNSt7__cxx1112basic_stringIcSt11char_traitsIcESaIcEEES9_
FNDA:0,_ZN12WPEFramework10PluginHost7JSONRPC8ObserverD2Ev
FNDA:0,_ZNK12WPEFramework10PluginHost7JSONRPC8Observer7IsEmptyEv
FNDA:0,_ZN12WPEFramework10PluginHost7JSONRPC8Observer9SubscribeEjRKNSt7__cxx1112basic_stringIcSt11char_traitsIcESaIcEEE
FNF:38
FNH:6
DA:35,0
DA:37,0
DA:38,0
DA:39,0
DA:41,0
DA:44,21
DA:46,21
DA:71,0
DA:72,0
DA:73,0
DA:74,0
DA:86,0
DA:87,0
DA:88,0
DA:90,0
DA:93,0
DA:94,0
DA:96,0
DA:97,0
DA:99,0
DA:100,0
DA:101,0
DA:104,0
DA:105,0
DA:108,0
DA:111,0
DA:113,0
DA:114,0
DA:116,0
DA:117,0
DA:118,0
DA:121,0
DA:122,0
DA:125,0
DA:128,0
DA:130,0
DA:131,0
DA:133,0
DA:135,0
DA:136,0
DA:137,0
DA:139,0
DA:140,0
DA:141,0
DA:143,0
DA:145,0
DA:146,0
DA:147,0
DA:149,0
DA:151,0
DA:152,0
DA:153,0
DA:154,0
DA:155,0
DA:156,0
DA:159,0
DA:162,0
DA:163,0
DA:164,0
DA:165,0
DA:166,0
DA:169,0
DA:170,0
DA:172,0
DA:234,0
DA:235,0
DA:236,0
DA:237,0
DA:239,0
DA:240,0
DA:241,0
DA:242,0
DA:357,52
DA:359,52
DA:360,52
DA:365,26
DA:367,26
DA:368,26
DA:436,0
DA:438,0
DA:439,0
DA:440,0
DA:441,0
DA:443,0
DA:444,0
DA:447,0
DA:450,23
DA:452,23
DA:456,23
DA:458,23
DA:459,23
DA:460,23
DA:462,23
DA:463,0
DA:465,23
DA:466,0
DA:467,0
DA:468,0
DA:471,0
DA:474,23
DA:475,21
DA:476,21
DA:477,21
DA:478,23
DA:479,23
DA:480,0
DA:482,0
DA:483,0
DA:485,0
DA:487,0
DA:488,0
DA:493,0
DA:494,0
DA:496,0
DA:500,0
DA:502,0
DA:503,0
DA:505,0
DA:506,0
DA:507,0
DA:510,0
DA:512,0
DA:513,0
DA:514,0
DA:516,0
DA:517,0
DA:518,0
DA:521,0
DA:523,0
DA:525,0
DA:528,0
DA:529,0
DA:530,0
DA:532,0
DA:533,0
DA:535,0
DA:536,0
DA:537,0
DA:538,0
DA:539,0
DA:541,0
DA:542,0
DA:543,0
DA:545,0
DA:546,0
DA:547,0
DA:549,0
DA:550,0
DA:552,0
DA:554,0
DA:556,0
DA:558,0
DA:559,0
DA:561,0
DA:562,0
DA:565,0
DA:570,0
DA:571,0
DA:575,0
DA:576,0
DA:578,0
DA:580,0
DA:581,0
DA:584,0
DA:586,0
DA:589,0
DA:590,0
DA:592,0
DA:594,0
DA:595,0
DA:596,0
DA:597,0
DA:599,0
DA:600,0
DA:601,0
DA:602,0
DA:604,0
DA:606,0
DA:607,0
DA:608,0
DA:610,0
DA:611,0
DA:612,0
DA:614,0
DA:616,0
DA:618,0
DA:620,0
DA:622,0
DA:624,0
DA:625,0
DA:627,0
DA:629,0
DA:631,0
DA:632,0
DA:636,0
DA:638,0
DA:642,0
DA:644,0
DA:646,0
DA:648,0
DA:649,0
DA:650,0
DA:651,0
DA:655,0
DA:657,0
DA:658,0
DA:661,0
DA:663,0
DA:667,0
DA:669,0
DA:672,0
DA:674,0
DA:698,49
DA:699,49
DA:701,49
DA:703,49
DA:705,49
DA:706,0
DA:707,0
DA:710,98
DA:711,49
DA:714,0
DA:715,0
DA:719,0
DA:721,0
DA:724,0
DA:726,0
DA:728,0
DA:729,0
DA:730,0
DA:731,0
DA:734,0
DA:736,0
DA:738,0
DA:740,0
DA:742,0
DA:743,0
DA:745,0
DA:747,0
DA:750,0
DA:752,0
DA:754,0
DA:755,0
DA:757,0
DA:758,0
DA:762,0
DA:764,0
DA:782,0
DA:784,0
DA:786,0
DA:788,0
DA:789,0
DA:792,0
DA:793,0
DA:795,0
DA:796,0
LF:256
LH:29
end_of_record
TN:
SF:/home/kavia/workspace/code-generation/app-gateway2/dependencies/install/include/WPEFramework/plugins/MetaData.h
FN:359,359,_ZN12WPEFramework6Plugin9IMetadataD0Ev
FN:359,359,_ZN12WPEFramework6Plugin9IMetadataD2Ev
FN:377,383,_ZN12WPEFramework6Plugin8MetadataINS0_10AppGatewayEE20PluginImplementationIS2_EC2ERKNS_4Core7LibraryEPKNS6_16IServiceMetadataE
FN:384,385,_ZN12WPEFramework6Plugin8MetadataINS0_10AppGatewayEE20PluginImplementationIS2_ED2Ev
FN:388,390,_ZNK12WPEFramework6Plugin8MetadataINS0_10AppGatewayEE20PluginImplementationIS2_E5MajorEv
FN:391,393,_ZNK12WPEFramework6Plugin8MetadataINS0_10AppGatewayEE20PluginImplementationIS2_E5MinorEv
FN:394,396,_ZNK12WPEFramework6Plugin8MetadataINS0_10AppGatewayEE20PluginImplementationIS2_E5PatchEv
FN:397,399,_ZNK12WPEFramework6Plugin8MetadataINS0_10AppGatewayEE20PluginImplementationIS2_E11ServiceNameB5cxx11Ev
FN:400,402,_ZNK12WPEFramework6Plugin8MetadataINS0_10AppGatewayEE20PluginImplementationIS2_E6ModuleEv
FN:403,405,_ZNK12WPEFramework6Plugin8MetadataINS0_10AppGatewayEE20PluginImplementationIS2_E12PreconditionEv
FN:406,408,_ZNK12WPEFramework6Plugin8MetadataINS0_10AppGatewayEE20PluginImplementationIS2_E11TerminationEv
FN:409,411,_ZNK12WPEFramework6Plugin8MetadataINS0_10AppGatewayEE20PluginImplementationIS2_E7ControlEv
FN:418,420,_ZN12WPEFramework6Plugin8MetadataINS0_10AppGatewayEE20PluginImplementationIS2_E10DestructedEv
FN:438,453,_ZN12WPEFramework6Plugin8MetadataINS0_10AppGatewayEEC2EhhhRKSt16initializer_listINS_10PluginHost10ISubSystem9subsystemEESA_SA_
FN:454,457,_ZN12WPEFramework6Plugin8MetadataINS0_10AppGatewayEED0Ev
FN:454,457,_ZN12WPEFramework6Plugin8MetadataINS0_10AppGatewayEED2Ev
FN:460,462,_ZNK12WPEFramework6Plugin8MetadataINS0_10AppGatewayEE5MajorEv
FN:463,465,_ZNK12WPEFramework6Plugin8MetadataINS0_10AppGatewayEE5MinorEv
FN:466,468,_ZNK12WPEFramework6Plugin8MetadataINS0_10AppGatewayEE5PatchEv
FN:469,471,_ZNK12WPEFramework6Plugin8MetadataINS0_10AppGatewayEE11ServiceNameB5cxx11Ev
FN:472,474,_ZNK12WPEFramework6Plugin8MetadataINS0_10AppGatewayEE6ModuleEv
FN:475,477,_ZNK12WPEFramework6Plugin8MetadataINS0_10AppGatewayEE12PreconditionEv
FN:478,480,_ZNK12WPEFramework6Plugin8MetadataINS0_10AppGatewayEE11TerminationEv
FN:481,483,_ZNK12WPEFramework6Plugin8MetadataINS0_10AppGatewayEE7ControlEv
FNDA:0,_ZN12WPEFramework6Plugin9IMetadataD0Ev
FNDA:1,_ZN12WPEFramework6Plugin9IMetadataD2Ev
FNDA:0,_ZN12WPEFramework6Plugin8MetadataINS0_10AppGatewayEE20PluginImplementationIS2_EC2ERKNS_4Core7LibraryEPKNS6_16IServiceMetadataE
FNDA:0,_ZN12WPEFramework6Plugin8MetadataINS0_10AppGatewayEE20PluginImplementationIS2_ED2Ev
FNDA:0,_ZNK12WPEFramework6Plugin8MetadataINS0_10AppGatewayEE20PluginImplementationIS2_E5MajorEv
FNDA:0,_ZNK12WPEFramework6Plugin8MetadataINS0_10AppGatewayEE20PluginImplementationIS2_E5MinorEv
FNDA:0,_ZNK12WPEFramework6Plugin8MetadataINS0_10AppGatewayEE20PluginImplementationIS2_E5PatchEv
FNDA:0,_ZNK12WPEFramework6Plugin8MetadataINS0_10AppGatewayEE20PluginImplementationIS2_E11ServiceNameB5cxx11Ev
FNDA:0,_ZNK12WPEFramework6Plugin8MetadataINS0_10AppGatewayEE20PluginImplementationIS2_E6ModuleEv
FNDA:0,_ZNK12WPEFramework6Plugin8MetadataINS0_10AppGatewayEE20PluginImplementationIS2_E12PreconditionEv
FNDA:0,_ZNK12WPEFramework6Plugin8MetadataINS0_10AppGatewayEE20PluginImplementationIS2_E11TerminationEv
FNDA:0,_ZNK12WPEFramework6Plugin8MetadataINS0_10AppGatewayEE20PluginImplementationIS2_E7ControlEv
FNDA:0,_ZN12WPEFramework6Plugin8MetadataINS0_10AppGatewayEE20PluginImplementationIS2_E10DestructedEv
FNDA:1,_ZN12WPEFramework6Plugin8MetadataINS0_10AppGatewayEEC2EhhhRKSt16initializer_listINS_10PluginHost10ISubSystem9subsystemEESA_SA_
FNDA:0,_ZN12WPEFramework6Plugin8MetadataINS0_10AppGatewayEED0Ev
FNDA:1,_ZN12WPEFramework6Plugin8MetadataINS0_10AppGatewayEED2Ev
FNDA:0,_ZNK12WPEFramework6Plugin8MetadataINS0_10AppGatewayEE5MajorEv
FNDA:0,_ZNK12WPEFramework6Plugin8MetadataINS0_10AppGatewayEE5MinorEv
FNDA:0,_ZNK12WPEFramework6Plugin8MetadataINS0_10AppGatewayEE5PatchEv
FNDA:0,_ZNK12WPEFramework6Plugin8MetadataINS0_10AppGatewayEE11ServiceNameB5cxx11Ev
FNDA:0,_ZNK12WPEFramework6Plugin8MetadataINS0_10AppGatewayEE6ModuleEv
FNDA:0,_ZNK12WPEFramework6Plugin8MetadataINS0_10AppGatewayEE12PreconditionEv
FNDA:0,_ZNK12WPEFramework6Plugin8MetadataINS0_10AppGatewayEE11TerminationEv
FNDA:0,_ZNK12WPEFramework6Plugin8MetadataINS0_10AppGatewayEE7ControlEv
FNF:24
FNH:3
DA:359,1
DA:377,0
DA:379,0
DA:380,0
DA:382,0
DA:383,0
DA:384,0
DA:385,0
DA:388,0
DA:389,0
DA:391,0
DA:392,0
DA:394,0
DA:395,0
DA:397,0
DA:398,0
DA:400,0
DA:401,0
DA:403,0
DA:404,0
DA:406,0
DA:407,0
DA:409,0
DA:410,0
DA:418,0
DA:419,0
DA:420,0
DA:438,1
DA:445,1
DA:446,1
DA:447,2
DA:448,2
DA:449,4
DA:450,1
DA:451,1
DA:452,1
DA:453,1
DA:454,1
DA:455,1
DA:456,1
DA:457,2
DA:460,0
DA:461,0
DA:463,0
DA:464,0
DA:466,0
DA:467,0
DA:469,0
DA:470,0
DA:472,0
DA:473,0
DA:475,0
DA:476,0
DA:478,0
DA:479,0
DA:481,0
DA:482,0
LF:57
LH:15
end_of_record
TN:
SF:/home/kavia/workspace/code-generation/app-gateway2/dependencies/install/include/WPEFramework/websocket/URL.h
FN:172,182,_ZN12WPEFramework4Core3URLC2Ev
FN:241,243,_ZN12WPEFramework4Core3URLD2Ev
FN:262,274,_ZN12WPEFramework4Core3URLaSERKS1_
FNDA:0,_ZN12WPEFramework4Core3URLC2Ev
FNDA:0,_ZN12WPEFramework4Core3URLD2Ev
FNDA:0,_ZN12WPEFramework4Core3URLaSERKS1_
FNF:3
FNH:0
DA:172,0
DA:173,0
DA:174,0
DA:175,0
DA:176,0
DA:177,0
DA:178,0
DA:179,0
DA:180,0
DA:182,0
DA:241,0
DA:243,0
DA:262,0
DA:264,0
DA:265,0
DA:266,0
DA:267,0
DA:268,0
DA:269,0
DA:270,0
DA:271,0
DA:273,0
LF:22
LH:0
end_of_record
TN:
SF:/home/kavia/workspace/code-generation/app-gateway2/dependencies/install/include/WPEFramework/websocket/WebRequest.h
FN:104,108,_ZN12WPEFramework3Web9SignatureC2Ev
FN:121,123,_ZN12WPEFramework3Web9SignatureD2Ev
FN:125,131,_ZN12WPEFramework3Web9SignatureaSERKS1_
FN:168,172,_ZN12WPEFramework3Web13AuthorizationC2Ev
FN:183,185,_ZN12WPEFramework3Web13AuthorizationD2Ev
FN:187,193,_ZN12WPEFramework3Web13AuthorizationaSERKS1_
FN:373,382,_ZN12WPEFramework3Web7Request12DeserializerC2Ev
FN:384,384,_ZN12WPEFramework3Web7Request12DeserializerD0Ev
FN:384,384,_ZN12WPEFramework3Web7Request12DeserializerD2Ev
FN:403,412,_ZN12WPEFramework3Web7Request12Deserializer11DeserializeEPKht
FN:446,450,_ZN12WPEFramework3Web7RequestC2Ev
FN:451,453,_ZN12WPEFramework3Web7RequestD2Ev
FN:557,596,_ZN12WPEFramework3Web7Request5ClearEv
FN:631,634,_ZNK12WPEFramework3Web7Request7HasBodyEv
FN:85,85,_ZN12WPEFramework3Web5IBodyD0Ev
FN:85,85,_ZN12WPEFramework3Web5IBodyD2Ev
FNDA:0,_ZN12WPEFramework3Web9SignatureC2Ev
FNDA:0,_ZN12WPEFramework3Web9SignatureD2Ev
FNDA:0,_ZN12WPEFramework3Web9SignatureaSERKS1_
FNDA:0,_ZN12WPEFramework3Web13AuthorizationC2Ev
FNDA:0,_ZN12WPEFramework3Web13AuthorizationD2Ev
FNDA:0,_ZN12WPEFramework3Web13AuthorizationaSERKS1_
FNDA:0,_ZN12WPEFramework3Web7Request12DeserializerC2Ev
FNDA:0,_ZN12WPEFramework3Web7Request12DeserializerD0Ev
FNDA:0,_ZN12WPEFramework3Web7Request12DeserializerD2Ev
FNDA:0,_ZN12WPEFramework3Web7Request12Deserializer11DeserializeEPKht
FNDA:0,_ZN12WPEFramework3Web7RequestC2Ev
FNDA:0,_ZN12WPEFramework3Web7RequestD2Ev
FNDA:0,_ZN12WPEFramework3Web7Request5ClearEv
FNDA:0,_ZNK12WPEFramework3Web7Request7HasBodyEv
FNDA:0,_ZN12WPEFramework3Web5IBodyD0Ev
FNDA:0,_ZN12WPEFramework3Web5IBodyD2Ev
FNF:16
FNH:0
DA:85,0
DA:104,0
DA:105,0
DA:107,0
DA:108,0
DA:121,0
DA:123,0
DA:125,0
DA:127,0
DA:128,0
DA:130,0
DA:168,0
DA:169,0
DA:170,0
DA:172,0
DA:183,0
DA:185,0
DA:187,0
DA:189,0
DA:190,0
DA:192,0
DA:373,0
DA:374,0
DA:375,0
DA:376,0
DA:377,0
DA:378,0
DA:379,0
DA:380,0
DA:382,0
DA:384,0
DA:403,0
DA:405,0
DA:407,0
DA:409,0
DA:411,0
DA:446,0
DA:447,0
DA:449,0
DA:450,0
DA:451,0
DA:453,0
DA:557,0
DA:559,0
DA:560,0
DA:561,0
DA:562,0
DA:563,0
DA:564,0
DA:565,0
DA:566,0
DA:567,0
DA:568,0
DA:569,0
DA:570,0
DA:571,0
DA:572,0
DA:573,0
DA:574,0
DA:575,0
DA:576,0
DA:577,0
DA:578,0
DA:579,0
DA:580,0
DA:581,0
DA:582,0
DA:583,0
DA:584,0
DA:585,0
DA:586,0
DA:587,0
DA:588,0
DA:589,0
DA:590,0
DA:591,0
DA:593,0
DA:594,0
DA:596,0
DA:631,0
DA:633,0
LF:81
LH:0
end_of_record
TN:
SF:/home/kavia/workspace/code-generation/app-gateway2/dependencies/install/include/WPEFramework/websocket/WebResponse.h
FN:137,147,_ZN12WPEFramework3Web8Response10SerializerC2Ev
FN:148,148,_ZN12WPEFramework3Web8Response10SerializerD0Ev
FN:148,148,_ZN12WPEFramework3Web8Response10SerializerD2Ev
FN:153,163,_ZN12WPEFramework3Web8Response10Serializer5FlushEv
FN:165,174,_ZN12WPEFramework3Web8Response10Serializer6SubmitERKS1_
FN:280,283,_ZN12WPEFramework3Web8ResponseC2Ev
FN:284,286,_ZN12WPEFramework3Web8ResponseD2Ev
FN:377,413,_ZN12WPEFramework3Web8Response5ClearEv
FNDA:0,_ZN12WPEFramework3Web8Response10SerializerC2Ev
FNDA:0,_ZN12WPEFramework3Web8Response10SerializerD0Ev
FNDA:0,_ZN12WPEFramework3Web8Response10SerializerD2Ev
FNDA:0,_ZN12WPEFramework3Web8Response10Serializer5FlushEv
FNDA:0,_ZN12WPEFramework3Web8Response10Serializer6SubmitERKS1_
FNDA:0,_ZN12WPEFramework3Web8ResponseC2Ev
FNDA:0,_ZN12WPEFramework3Web8ResponseD2Ev
FNDA:0,_ZN12WPEFramework3Web8Response5ClearEv
FNF:8
FNH:0
DA:137,0
DA:138,0
DA:139,0
DA:140,0
DA:141,0
DA:142,0
DA:143,0
DA:144,0
DA:145,0
DA:147,0
DA:148,0
DA:153,0
DA:155,0
DA:156,0
DA:157,0
DA:158,0
DA:159,0
DA:160,0
DA:162,0
DA:163,0
DA:165,0
DA:167,0
DA:169,0
DA:171,0
DA:173,0
DA:174,0
DA:280,0
DA:281,0
DA:282,0
DA:283,0
DA:284,0
DA:286,0
DA:377,0
DA:379,0
DA:380,0
DA:381,0
DA:382,0
DA:383,0
DA:384,0
DA:385,0
DA:386,0
DA:387,0
DA:388,0
DA:389,0
DA:390,0
DA:391,0
DA:392,0
DA:393,0
DA:394,0
DA:395,0
DA:396,0
DA:397,0
DA:398,0
DA:399,0
DA:400,0
DA:401,0
DA:402,0
DA:403,0
DA:404,0
DA:405,0
DA:406,0
DA:407,0
DA:408,0
DA:410,0
DA:411,0
DA:413,0
LF:66
LH:0
end_of_record
TN:
SF:/home/kavia/workspace/code-generation/app-gateway2/dependencies/install/include/WPEFramework/websocket/WebSerializer.h
FN:311,316,_ZN12WPEFramework3Web12JSONBodyTypeINS_4Core7JSONRPC7MessageEEC2Ev
FN:317,317,_ZN12WPEFramework3Web12JSONBodyTypeINS_4Core7JSONRPC7MessageEED0Ev
FN:317,317,_ZN12WPEFramework3Web12JSONBodyTypeINS_4Core7JSONRPC7MessageEED2Ev
FN:326,330,_ZN12WPEFramework3Web12JSONBodyTypeINS_4Core7JSONRPC7MessageEE5ClearEv
FN:333,345,_ZNK12WPEFramework3Web12JSONBodyTypeINS_4Core7JSONRPC7MessageEE9SerializeEv
FN:346,349,_ZN12WPEFramework3Web12JSONBodyTypeINS_4Core7JSONRPC7MessageEE11DeserializeEv
FN:350,359,_ZNK12WPEFramework3Web12JSONBodyTypeINS_4Core7JSONRPC7MessageEE9SerializeEPht
FN:360,363,_ZN12WPEFramework3Web12JSONBodyTypeINS_4Core7JSONRPC7MessageEE11DeserializeEPKht
FN:364,366,_ZNK12WPEFramework3Web12JSONBodyTypeINS_4Core7JSONRPC7MessageEE3EndEv
FNDA:0,_ZN12WPEFramework3Web12JSONBodyTypeINS_4Core7JSONRPC7MessageEEC2Ev
FNDA:0,_ZN12WPEFramework3Web12JSONBodyTypeINS_4Core7JSONRPC7MessageEED0Ev
FNDA:0,_ZN12WPEFramework3Web12JSONBodyTypeINS_4Core7JSONRPC7MessageEED2Ev
FNDA:0,_ZN12WPEFramework3Web12JSONBodyTypeINS_4Core7JSONRPC7MessageEE5ClearEv
FNDA:0,_ZNK12WPEFramework3Web12JSONBodyTypeINS_4Core7JSONRPC7MessageEE9SerializeEv
FNDA:0,_ZN12WPEFramework3Web12JSONBodyTypeINS_4Core7JSONRPC7MessageEE11DeserializeEv
FNDA:0,_ZNK12WPEFramework3Web12JSONBodyTypeINS_4Core7JSONRPC7MessageEE9SerializeEPht
FNDA:0,_ZN12WPEFramework3Web12JSONBodyTypeINS_4Core7JSONRPC7MessageEE11DeserializeEPKht
FNDA:0,_ZNK12WPEFramework3Web12JSONBodyTypeINS_4Core7JSONRPC7MessageEE3EndEv
FNF:9
FNH:0
DA:311,0
DA:313,0
DA:314,0
DA:316,0
DA:317,0
DA:326,0
DA:328,0
DA:329,0
DA:330,0
DA:333,0
DA:335,0
DA:336,0
DA:338,0
DA:340,0
DA:341,0
DA:344,0
DA:346,0
DA:348,0
DA:350,0
DA:352,0
DA:354,0
DA:355,0
DA:356,0
DA:358,0
DA:360,0
DA:362,0
DA:364,0
DA:366,0
LF:28
LH:0
end_of_record
TN:
SF:/home/kavia/workspace/code-generation/app-gateway2/dependencies/install/include/WPEFramework/websocket/WebSocketLink.h
FN:101,104,_ZNK12WPEFramework3Web9WebSocket8Protocol9FrameTypeEv
FN:56,64,_ZN12WPEFramework3Web9WebSocket8ProtocolC2Ebb
FN:65,67,_ZN12WPEFramework3Web9WebSocket8ProtocolD2Ev
FN:77,80,_ZN12WPEFramework3Web9WebSocket8Protocol4PongEv
FN:81,84,_ZN12WPEFramework3Web9WebSocket8Protocol5CloseEv
FN:93,96,_ZNK12WPEFramework3Web9WebSocket8Protocol17IsCompleteMessageEv
FNDA:0,_ZNK12WPEFramework3Web9WebSocket8Protocol9FrameTypeEv
FNDA:0,_ZN12WPEFramework3Web9WebSocket8ProtocolC2Ebb
FNDA:0,_ZN12WPEFramework3Web9WebSocket8ProtocolD2Ev
FNDA:0,_ZN12WPEFramework3Web9WebSocket8Protocol4PongEv
FNDA:0,_ZN12WPEFramework3Web9WebSocket8Protocol5CloseEv
FNDA:0,_ZNK12WPEFramework3Web9WebSocket8Protocol17IsCompleteMessageEv
FNF:6
FNH:0
DA:56,0
DA:57,0
DA:58,0
DA:59,0
DA:60,0
DA:61,0
DA:63,0
DA:64,0
DA:65,0
DA:67,0
DA:77,0
DA:79,0
DA:80,0
DA:81,0
DA:83,0
DA:84,0
DA:93,0
DA:95,0
DA:101,0
DA:103,0
LF:20
LH:0
end_of_record
TN:
SF:/home/kavia/workspace/code-generation/app-gateway2/helpers/rdkservices-comcast/helpers/ContextUtils.h
FN:77,80,_ZN12ContextUtils15IsOriginGatewayERKNSt7__cxx1112basic_stringIcSt11char_traitsIcESaIcEEE
FNDA:0,_ZN12ContextUtils15IsOriginGatewayERKNSt7__cxx1112basic_stringIcSt11char_traitsIcESaIcEEE
FNF:1
FNH:0
DA:77,0
DA:79,0
LF:2
LH:0
end_of_record
TN:
SF:/home/kavia/workspace/code-generation/app-gateway2/helpers/rdkservices-comcast/helpers/ObjectUtils.h
FN:28,41,_ZN11ObjectUtils15HasBooleanEntryERKN12WPEFramework4Core4JSON16VariantContainerERKNSt7__cxx1112basic_stringIcSt11char_traitsIcESaIcEEERb
FNDA:1,_ZN11ObjectUtils15HasBooleanEntryERKN12WPEFramework4Core4JSON16VariantContainerERKNSt7__cxx1112basic_stringIcSt11char_traitsIcESaIcEEERb
FNF:1
FNH:1
DA:28,1
DA:29,1
DA:30,0
DA:32,1
DA:33,1
DA:34,0
DA:35,1
DA:37,1
DA:38,1
DA:40,0
LF:10
LH:7
end_of_record
TN:
SF:/home/kavia/workspace/code-generation/app-gateway2/helpers/rdkservices-comcast/helpers/StreamJSONOneShot.h
FN:104,110,_ZN12WPEFramework4Core21StreamJSONOneShotTypeINS_3Web9WebSocket20HWebSocketServerTypeINS0_12SocketStreamEEERN26WebSocketConnectionManager17JSONObjectFactoryENS0_4JSON8IElementEE16DeserializerImplC2ERSC_S9_
FN:112,114,_ZNK12WPEFramework4Core21StreamJSONOneShotTypeINS_3Web9WebSocket20HWebSocketServerTypeINS0_12SocketStreamEEERN26WebSocketConnectionManager17JSONObjectFactoryENS0_4JSON8IElementEE16DeserializerImpl6IsIdleEv
FN:117,137,_ZN12WPEFramework4Core21StreamJSONOneShotTypeINS_3Web9WebSocket20HWebSocketServerTypeINS0_12SocketStreamEEERN26WebSocketConnectionManager17JSONObjectFactoryENS0_4JSON8IElementEE16DeserializerImpl11DeserializeEPKht
FN:140,143,_ZN12WPEFramework4Core21StreamJSONOneShotTypeINS_3Web9WebSocket20HWebSocketServerTypeINS0_12SocketStreamEEERN26WebSocketConnectionManager17JSONObjectFactoryENS0_4JSON8IElementEE16DeserializerImpl11DeserializeERKNS0_9ProxyTypeISB_EEPKht
FN:169,172,_ZN12WPEFramework4Core21StreamJSONOneShotTypeINS_3Web9WebSocket20HWebSocketServerTypeINS0_12SocketStreamEEERN26WebSocketConnectionManager17JSONObjectFactoryENS0_4JSON8IElementEE11HandlerTypeC2IJbbbiNS0_6NodeIdEiiEEERSC_DpT_
FN:174,174,_ZN12WPEFramework4Core21StreamJSONOneShotTypeINS_3Web9WebSocket20HWebSocketServerTypeINS0_12SocketStreamEEERN26WebSocketConnectionManager17JSONObjectFactoryENS0_4JSON8IElementEE11HandlerTypeD0Ev
FN:174,174,_ZN12WPEFramework4Core21StreamJSONOneShotTypeINS_3Web9WebSocket20HWebSocketServerTypeINS0_12SocketStreamEEERN26WebSocketConnectionManager17JSONObjectFactoryENS0_4JSON8IElementEE11HandlerTypeD2Ev
FN:178,180,_ZN12WPEFramework4Core21StreamJSONOneShotTypeINS_3Web9WebSocket20HWebSocketServerTypeINS0_12SocketStreamEEERN26WebSocketConnectionManager17JSONObjectFactoryENS0_4JSON8IElementEE11HandlerType8SendDataEPht
FN:182,184,_ZN12WPEFramework4Core21StreamJSONOneShotTypeINS_3Web9WebSocket20HWebSocketServerTypeINS0_12SocketStreamEEERN26WebSocketConnectionManager17JSONObjectFactoryENS0_4JSON8IElementEE11HandlerType11ReceiveDataEPht
FN:186,188,_ZN12WPEFramework4Core21StreamJSONOneShotTypeINS_3Web9WebSocket20HWebSocketServerTypeINS0_12SocketStreamEEERN26WebSocketConnectionManager17JSONObjectFactoryENS0_4JSON8IElementEE11HandlerType11StateChangeEv
FN:190,192,_ZNK12WPEFramework4Core21StreamJSONOneShotTypeINS_3Web9WebSocket20HWebSocketServerTypeINS0_12SocketStreamEEERN26WebSocketConnectionManager17JSONObjectFactoryENS0_4JSON8IElementEE11HandlerType6IsIdleEv
FN:205,209,_ZN12WPEFramework4Core21StreamJSONOneShotTypeINS_3Web9WebSocket20HWebSocketServerTypeINS0_12SocketStreamEEERN26WebSocketConnectionManager17JSONObjectFactoryENS0_4JSON8IElementEEC2IJbbbiNS0_6NodeIdEiiEEEhS9_DpT_
FN:220,222,_ZN12WPEFramework4Core21StreamJSONOneShotTypeINS_3Web9WebSocket20HWebSocketServerTypeINS0_12SocketStreamEEERN26WebSocketConnectionManager17JSONObjectFactoryENS0_4JSON8IElementEED0Ev
FN:220,222,_ZN12WPEFramework4Core21StreamJSONOneShotTypeINS_3Web9WebSocket20HWebSocketServerTypeINS0_12SocketStreamEEERN26WebSocketConnectionManager17JSONObjectFactoryENS0_4JSON8IElementEED2Ev
FN:225,225,_ZN12WPEFramework4Core21StreamJSONOneShotTypeINS_3Web9WebSocket20HWebSocketServerTypeINS0_12SocketStreamEEERN26WebSocketConnectionManager17JSONObjectFactoryENS0_4JSON8IElementEE4LinkEv
FN:231,237,_ZN12WPEFramework4Core21StreamJSONOneShotTypeINS_3Web9WebSocket20HWebSocketServerTypeINS0_12SocketStreamEEERN26WebSocketConnectionManager17JSONObjectFactoryENS0_4JSON8IElementEE6SubmitERKNS0_9ProxyTypeISB_EE
FN:239,239,_ZN12WPEFramework4Core21StreamJSONOneShotTypeINS_3Web9WebSocket20HWebSocketServerTypeINS0_12SocketStreamEEERN26WebSocketConnectionManager17JSONObjectFactoryENS0_4JSON8IElementEE4OpenEj
FN:240,240,_ZN12WPEFramework4Core21StreamJSONOneShotTypeINS_3Web9WebSocket20HWebSocketServerTypeINS0_12SocketStreamEEERN26WebSocketConnectionManager17JSONObjectFactoryENS0_4JSON8IElementEE5CloseEj
FN:241,241,_ZNK12WPEFramework4Core21StreamJSONOneShotTypeINS_3Web9WebSocket20HWebSocketServerTypeINS0_12SocketStreamEEERN26WebSocketConnectionManager17JSONObjectFactoryENS0_4JSON8IElementEE6IsOpenEv
FN:242,242,_ZNK12WPEFramework4Core21StreamJSONOneShotTypeINS_3Web9WebSocket20HWebSocketServerTypeINS0_12SocketStreamEEERN26WebSocketConnectionManager17JSONObjectFactoryENS0_4JSON8IElementEE8IsClosedEv
FN:243,243,_ZNK12WPEFramework4Core21StreamJSONOneShotTypeINS_3Web9WebSocket20HWebSocketServerTypeINS0_12SocketStreamEEERN26WebSocketConnectionManager17JSONObjectFactoryENS0_4JSON8IElementEE11IsSuspendedEv
FN:246,248,_ZN12WPEFramework4Core21StreamJSONOneShotTypeINS_3Web9WebSocket20HWebSocketServerTypeINS0_12SocketStreamEEERN26WebSocketConnectionManager17JSONObjectFactoryENS0_4JSON8IElementEE8SendDataEPht
FN:250,252,_ZN12WPEFramework4Core21StreamJSONOneShotTypeINS_3Web9WebSocket20HWebSocketServerTypeINS0_12SocketStreamEEERN26WebSocketConnectionManager17JSONObjectFactoryENS0_4JSON8IElementEE11ReceiveDataEPht
FN:254,256,_ZNK12WPEFramework4Core21StreamJSONOneShotTypeINS_3Web9WebSocket20HWebSocketServerTypeINS0_12SocketStreamEEERN26WebSocketConnectionManager17JSONObjectFactoryENS0_4JSON8IElementEE6IsIdleEv
FN:28,34,_ZN12WPEFramework4Core21StreamJSONOneShotTypeINS_3Web9WebSocket20HWebSocketServerTypeINS0_12SocketStreamEEERN26WebSocketConnectionManager17JSONObjectFactoryENS0_4JSON8IElementEE14SerializerImplC2ERSC_h
FN:36,38,_ZN12WPEFramework4Core21StreamJSONOneShotTypeINS_3Web9WebSocket20HWebSocketServerTypeINS0_12SocketStreamEEERN26WebSocketConnectionManager17JSONObjectFactoryENS0_4JSON8IElementEE14SerializerImplD2Ev
FN:40,42,_ZNK12WPEFramework4Core21StreamJSONOneShotTypeINS_3Web9WebSocket20HWebSocketServerTypeINS0_12SocketStreamEEERN26WebSocketConnectionManager17JSONObjectFactoryENS0_4JSON8IElementEE14SerializerImpl6IsIdleEv
FN:44,50,_ZN12WPEFramework4Core21StreamJSONOneShotTypeINS_3Web9WebSocket20HWebSocketServerTypeINS0_12SocketStreamEEERN26WebSocketConnectionManager17JSONObjectFactoryENS0_4JSON8IElementEE14SerializerImpl6SubmitERKNS0_9ProxyTypeISB_EE
FN:52,69,_ZNK12WPEFramework4Core21StreamJSONOneShotTypeINS_3Web9WebSocket20HWebSocketServerTypeINS0_12SocketStreamEEERN26WebSocketConnectionManager17JSONObjectFactoryENS0_4JSON8IElementEE14SerializerImpl9SerializeEPht
FN:73,76,_ZNK12WPEFramework4Core21StreamJSONOneShotTypeINS_3Web9WebSocket20HWebSocketServerTypeINS0_12SocketStreamEEERN26WebSocketConnectionManager17JSONObjectFactoryENS0_4JSON8IElementEE14SerializerImpl9SerializeERKNS0_9ProxyTypeISB_EEPht
FNDA:0,_ZN12WPEFramework4Core21StreamJSONOneShotTypeINS_3Web9WebSocket20HWebSocketServerTypeINS0_12SocketStreamEEERN26WebSocketConnectionManager17JSONObjectFactoryENS0_4JSON8IElementEE16DeserializerImplC2ERSC_S9_
FNDA:0,_ZNK12WPEFramework4Core21StreamJSONOneShotTypeINS_3Web9WebSocket20HWebSocketServerTypeINS0_12SocketStreamEEERN26WebSocketConnectionManager17JSONObjectFactoryENS0_4JSON8IElementEE16DeserializerImpl6IsIdleEv
FNDA:0,_ZN12WPEFramework4Core21StreamJSONOneShotTypeINS_3Web9WebSocket20HWebSocketServerTypeINS0_12SocketStreamEEERN26WebSocketConnectionManager17JSONObjectFactoryENS0_4JSON8IElementEE16DeserializerImpl11DeserializeEPKht
FNDA:0,_ZN12WPEFramework4Core21StreamJSONOneShotTypeINS_3Web9WebSocket20HWebSocketServerTypeINS0_12SocketStreamEEERN26WebSocketConnectionManager17JSONObjectFactoryENS0_4JSON8IElementEE16DeserializerImpl11DeserializeERKNS0_9ProxyTypeISB_EEPKht
FNDA:0,_ZN12WPEFramework4Core21StreamJSONOneShotTypeINS_3Web9WebSocket20HWebSocketServerTypeINS0_12SocketStreamEEERN26WebSocketConnectionManager17JSONObjectFactoryENS0_4JSON8IElementEE11HandlerTypeC2IJbbbiNS0_6NodeIdEiiEEERSC_DpT_
FNDA:0,_ZN12WPEFramework4Core21StreamJSONOneShotTypeINS_3Web9WebSocket20HWebSocketServerTypeINS0_12SocketStreamEEERN26WebSocketConnectionManager17JSONObjectFactoryENS0_4JSON8IElementEE11HandlerTypeD0Ev
FNDA:0,_ZN12WPEFramework4Core21StreamJSONOneShotTypeINS_3Web9WebSocket20HWebSocketServerTypeINS0_12SocketStreamEEERN26WebSocketConnectionManager17JSONObjectFactoryENS0_4JSON8IElementEE11HandlerTypeD2Ev
FNDA:0,_ZN12WPEFramework4Core21StreamJSONOneShotTypeINS_3Web9WebSocket20HWebSocketServerTypeINS0_12SocketStreamEEERN26WebSocketConnectionManager17JSONObjectFactoryENS0_4JSON8IElementEE11HandlerType8SendDataEPht
FNDA:0,_ZN12WPEFramework4Core21StreamJSONOneShotTypeINS_3Web9WebSocket20HWebSocketServerTypeINS0_12SocketStreamEEERN26WebSocketConnectionManager17JSONObjectFactoryENS0_4JSON8IElementEE11HandlerType11ReceiveDataEPht
FNDA:0,_ZN12WPEFramework4Core21StreamJSONOneShotTypeINS_3Web9WebSocket20HWebSocketServerTypeINS0_12SocketStreamEEERN26WebSocketConnectionManager17JSONObjectFactoryENS0_4JSON8IElementEE11HandlerType11StateChangeEv
FNDA:0,_ZNK12WPEFramework4Core21StreamJSONOneShotTypeINS_3Web9WebSocket20HWebSocketServerTypeINS0_12SocketStreamEEERN26WebSocketConnectionManager17JSONObjectFactoryENS0_4JSON8IElementEE11HandlerType6IsIdleEv
FNDA:0,_ZN12WPEFramework4Core21StreamJSONOneShotTypeINS_3Web9WebSocket20HWebSocketServerTypeINS0_12SocketStreamEEERN26WebSocketConnectionManager17JSONObjectFactoryENS0_4JSON8IElementEEC2IJbbbiNS0_6NodeIdEiiEEEhS9_DpT_
FNDA:0,_ZN12WPEFramework4Core21StreamJSONOneShotTypeINS_3Web9WebSocket20HWebSocketServerTypeINS0_12SocketStreamEEERN26WebSocketConnectionManager17JSONObjectFactoryENS0_4JSON8IElementEED0Ev
FNDA:0,_ZN12WPEFramework4Core21StreamJSONOneShotTypeINS_3Web9WebSocket20HWebSocketServerTypeINS0_12SocketStreamEEERN26WebSocketConnectionManager17JSONObjectFactoryENS0_4JSON8IElementEED2Ev
FNDA:0,_ZN12WPEFramework4Core21StreamJSONOneShotTypeINS_3Web9WebSocket20HWebSocketServerTypeINS0_12SocketStreamEEERN26WebSocketConnectionManager17JSONObjectFactoryENS0_4JSON8IElementEE4LinkEv
FNDA:0,_ZN12WPEFramework4Core21StreamJSONOneShotTypeINS_3Web9WebSocket20HWebSocketServerTypeINS0_12SocketStreamEEERN26WebSocketConnectionManager17JSONObjectFactoryENS0_4JSON8IElementEE6SubmitERKNS0_9ProxyTypeISB_EE
FNDA:0,_ZN12WPEFramework4Core21StreamJSONOneShotTypeINS_3Web9WebSocket20HWebSocketServerTypeINS0_12SocketStreamEEERN26WebSocketConnectionManager17JSONObjectFactoryENS0_4JSON8IElementEE4OpenEj
FNDA:0,_ZN12WPEFramework4Core21StreamJSONOneShotTypeINS_3Web9WebSocket20HWebSocketServerTypeINS0_12SocketStreamEEERN26WebSocketConnectionManager17JSONObjectFactoryENS0_4JSON8IElementEE5CloseEj
FNDA:0,_ZNK12WPEFramework4Core21StreamJSONOneShotTypeINS_3Web9WebSocket20HWebSocketServerTypeINS0_12SocketStreamEEERN26WebSocketConnectionManager17JSONObjectFactoryENS0_4JSON8IElementEE6IsOpenEv
FNDA:0,_ZNK12WPEFramework4Core21StreamJSONOneShotTypeINS_3Web9WebSocket20HWebSocketServerTypeINS0_12SocketStreamEEERN26WebSocketConnectionManager17JSONObjectFactoryENS0_4JSON8IElementEE8IsClosedEv
FNDA:0,_ZNK12WPEFramework4Core21StreamJSONOneShotTypeINS_3Web9WebSocket20HWebSocketServerTypeINS0_12SocketStreamEEERN26WebSocketConnectionManager17JSONObjectFactoryENS0_4JSON8IElementEE11IsSuspendedEv
FNDA:0,_ZN12WPEFramework4Core21StreamJSONOneShotTypeINS_3Web9WebSocket20HWebSocketServerTypeINS0_12SocketStreamEEERN26WebSocketConnectionManager17JSONObjectFactoryENS0_4JSON8IElementEE8SendDataEPht
FNDA:0,_ZN12WPEFramework4Core21StreamJSONOneShotTypeINS_3Web9WebSocket20HWebSocketServerTypeINS0_12SocketStreamEEERN26WebSocketConnectionManager17JSONObjectFactoryENS0_4JSON8IElementEE11ReceiveDataEPht
FNDA:0,_ZNK12WPEFramework4Core21StreamJSONOneShotTypeINS_3Web9WebSocket20HWebSocketServerTypeINS0_12SocketStreamEEERN26WebSocketConnectionManager17JSONObjectFactoryENS0_4JSON8IElementEE6IsIdleEv
FNDA:0,_ZN12WPEFramework4Core21StreamJSONOneShotTypeINS_3Web9WebSocket20HWebSocketServerTypeINS0_12SocketStreamEEERN26WebSocketConnectionManager17JSONObjectFactoryENS0_4JSON8IElementEE14SerializerImplC2ERSC_h
FNDA:0,_ZN12WPEFramework4Core21StreamJSONOneShotTypeINS_3Web9WebSocket20HWebSocketServerTypeINS0_12SocketStreamEEERN26WebSocketConnectionManager17JSONObjectFactoryENS0_4JSON8IElementEE14SerializerImplD2Ev
FNDA:0,_ZNK12WPEFramework4Core21StreamJSONOneShotTypeINS_3Web9WebSocket20HWebSocketServerTypeINS0_12SocketStreamEEERN26WebSocketConnectionManager17JSONObjectFactoryENS0_4JSON8IElementEE14SerializerImpl6IsIdleEv
FNDA:0,_ZN12WPEFramework4Core21StreamJSONOneShotTypeINS_3Web9WebSocket20HWebSocketServerTypeINS0_12SocketStreamEEERN26WebSocketConnectionManager17JSONObjectFactoryENS0_4JSON8IElementEE14SerializerImpl6SubmitERKNS0_9ProxyTypeISB_EE
FNDA:0,_ZNK12WPEFramework4Core21StreamJSONOneShotTypeINS_3Web9WebSocket20HWebSocketServerTypeINS0_12SocketStreamEEERN26WebSocketConnectionManager17JSONObjectFactoryENS0_4JSON8IElementEE14SerializerImpl9SerializeEPht
FNDA:0,_ZNK12WPEFramework4Core21StreamJSONOneShotTypeINS_3Web9WebSocket20HWebSocketServerTypeINS0_12SocketStreamEEERN26WebSocketConnectionManager17JSONObjectFactoryENS0_4JSON8IElementEE14SerializerImpl9SerializeERKNS0_9ProxyTypeISB_EEPht
FNF:30
FNH:0
DA:28,0
DA:29,0
DA:30,0
DA:31,0
DA:32,0
DA:34,0
DA:36,0
DA:37,0
DA:38,0
DA:40,0
DA:41,0
DA:44,0
DA:45,0
DA:46,0
DA:47,0
DA:48,0
DA:49,0
DA:52,0
DA:53,0
DA:55,0
DA:56,0
DA:57,0
DA:59,0
DA:60,0
DA:61,0
DA:62,0
DA:63,0
DA:64,0
DA:66,0
DA:68,0
DA:73,0
DA:75,0
DA:104,0
DA:105,0
DA:106,0
DA:107,0
DA:108,0
DA:110,0
DA:112,0
DA:113,0
DA:117,0
DA:118,0
DA:120,0
DA:121,0
DA:122,0
DA:125,0
DA:126,0
DA:130,0
DA:131,0
DA:132,0
DA:136,0
DA:140,0
DA:142,0
DA:169,0
DA:171,0
DA:172,0
DA:174,0
DA:178,0
DA:179,0
DA:182,0
DA:183,0
DA:186,0
DA:187,0
DA:188,0
DA:190,0
DA:191,0
DA:205,0
DA:206,0
DA:207,0
DA:208,0
DA:209,0
DA:220,0
DA:221,0
DA:222,0
DA:225,0
DA:231,0
DA:232,0
DA:233,0
DA:234,0
DA:237,0
DA:239,0
DA:240,0
DA:241,0
DA:242,0
DA:243,0
DA:246,0
DA:247,0
DA:250,0
DA:251,0
DA:254,0
DA:255,0
LF:91
LH:0
end_of_record
TN:
SF:/home/kavia/workspace/code-generation/app-gateway2/helpers/rdkservices-comcast/helpers/StringUtils.h
FN:30,35,_ZN11StringUtils7toLowerERKNSt7__cxx1112basic_stringIcSt11char_traitsIcESaIcEEE
FN:33,33,_ZZN11StringUtils7toLowerERKNSt7__cxx1112basic_stringIcSt11char_traitsIcESaIcEEEENKUlhE_clEh
FN:37,41,_ZN11StringUtils16rfindInsensitiveERKNSt7__cxx1112basic_stringIcSt11char_traitsIcESaIcEEES7_
FNDA:1083,_ZN11StringUtils7toLowerERKNSt7__cxx1112basic_stringIcSt11char_traitsIcESaIcEEE
FNDA:28127,_ZZN11StringUtils7toLowerERKNSt7__cxx1112basic_stringIcSt11char_traitsIcESaIcEEEENKUlhE_clEh
FNDA:12,_ZN11StringUtils16rfindInsensitiveERKNSt7__cxx1112basic_stringIcSt11char_traitsIcESaIcEEES7_
FNF:3
FNH:3
DA:30,1083
DA:31,1083
DA:32,1083
DA:33,28127
DA:34,1083
DA:37,12
DA:38,12
DA:39,12
DA:40,24
DA:41,12
LF:10
LH:10
end_of_record
TN:
SF:/home/kavia/workspace/code-generation/app-gateway2/helpers/rdkservices-comcast/helpers/UtilsConnections.h
FN:29,56,_ZN12WPEFramework5Utils12ResolveQueryERKNSt7__cxx1112basic_stringIcSt11char_traitsIcESaIcEEES8_
FNDA:0,_ZN12WPEFramework5Utils12ResolveQueryERKNSt7__cxx1112basic_stringIcSt11char_traitsIcESaIcEEES8_
FNF:1
FNH:0
DA:29,0
DA:32,0
DA:34,0
DA:35,0
DA:39,0
DA:40,0
DA:42,0
DA:43,0
DA:46,0
DA:48,0
DA:50,0
DA:51,0
DA:54,0
DA:55,0
DA:56,0
LF:15
LH:0
end_of_record
TN:
SF:/home/kavia/workspace/code-generation/app-gateway2/helpers/rdkservices-comcast/helpers/UtilsFirebolt.h
FN:140,147,_ZN10ErrorUtils33GetErrorMessageForFrameworkErrorsERKjRKNSt7__cxx1112basic_stringIcSt11char_traitsIcESaIcEEE
FN:189,193,_ZN10ErrorUtils12NotSupportedERNSt7__cxx1112basic_stringIcSt11char_traitsIcESaIcEEE
FN:195,198,_ZN10ErrorUtils12NotAvailableERNSt7__cxx1112basic_stringIcSt11char_traitsIcESaIcEEE
FN:200,204,_ZN10ErrorUtils12NotPermittedERNSt7__cxx1112basic_stringIcSt11char_traitsIcESaIcEEE
FN:222,224,_ZN10ErrorUtils16CustomInitializeERKNSt7__cxx1112basic_stringIcSt11char_traitsIcESaIcEEERS5_
FN:226,229,_ZN10ErrorUtils14CustomInternalERKNSt7__cxx1112basic_stringIcSt11char_traitsIcESaIcEEERS5_
FN:231,234,_ZN10ErrorUtils16CustomBadRequestERKNSt7__cxx1112basic_stringIcSt11char_traitsIcESaIcEEERS5_
FNDA:4,_ZN10ErrorUtils33GetErrorMessageForFrameworkErrorsERKjRKNSt7__cxx1112basic_stringIcSt11char_traitsIcESaIcEEE
FNDA:1,_ZN10ErrorUtils12NotSupportedERNSt7__cxx1112basic_stringIcSt11char_traitsIcESaIcEEE
FNDA:1,_ZN10ErrorUtils12NotAvailableERNSt7__cxx1112basic_stringIcSt11char_traitsIcESaIcEEE
FNDA:1,_ZN10ErrorUtils12NotPermittedERNSt7__cxx1112basic_stringIcSt11char_traitsIcESaIcEEE
FNDA:0,_ZN10ErrorUtils16CustomInitializeERKNSt7__cxx1112basic_stringIcSt11char_traitsIcESaIcEEERS5_
FNDA:0,_ZN10ErrorUtils14CustomInternalERKNSt7__cxx1112basic_stringIcSt11char_traitsIcESaIcEEERS5_
FNDA:1,_ZN10ErrorUtils16CustomBadRequestERKNSt7__cxx1112basic_stringIcSt11char_traitsIcESaIcEEERS5_
FNF:7
FNH:5
DA:140,4
DA:141,4
DA:142,4
DA:143,4
DA:144,4
DA:145,4
DA:146,8
DA:147,4
DA:189,1
DA:192,1
DA:193,1
DA:195,1
DA:197,1
DA:198,1
DA:200,1
DA:203,1
DA:204,1
DA:222,0
DA:223,0
DA:224,0
DA:226,0
DA:228,0
DA:229,0
DA:231,1
DA:233,1
DA:234,1
LF:26
LH:20
end_of_record
TN:
SF:/home/kavia/workspace/code-generation/app-gateway2/helpers/rdkservices-comcast/helpers/UtilsJsonrpcDirectLink.h
FN:103,111,_ZN12WPEFramework5Utils17JSONRPCDirectLinkC2EPNS_10PluginHost6IShellERKNSt7__cxx1112basic_stringIcSt11char_traitsIcESaIcEEESC_
FN:118,124,_ZN12WPEFramework5Utils17JSONRPCDirectLinkD2Ev
FN:127,192,_ZN12WPEFramework5Utils17JSONRPCDirectLink6InvokeINSt7__cxx1112basic_stringIcSt11char_traitsIcESaIcEEES8_EEjRKS8_RKT_RT0_
FN:136,136,_ZZN12WPEFramework5Utils17JSONRPCDirectLink6InvokeINSt7__cxx1112basic_stringIcSt11char_traitsIcESaIcEEES8_EEjRKS8_RKT_RT0_ENKUlS8_E_clES8_
FN:195,206,_ZN12WPEFramework5Utils26GetThunderControllerClientEPNS_10PluginHost6IShellENSt7__cxx1112basic_stringIcSt11char_traitsIcESaIcEEE
FN:29,57,_ZN12WPEFramework5Utils23GetThunderSecurityTokenEPNS_10PluginHost6IShellERNSt7__cxx1112basic_stringIcSt11char_traitsIcESaIcEEE
FN:67,71,_ZNK12WPEFramework5Utils17JSONRPCDirectLink8ToStringERNSt7__cxx1112basic_stringIcSt11char_traitsIcESaIcEEERKS7_
FN:85,89,_ZNK12WPEFramework5Utils17JSONRPCDirectLink10FromStringERNSt7__cxx1112basic_stringIcSt11char_traitsIcESaIcEEERKS7_
FNDA:0,_ZN12WPEFramework5Utils17JSONRPCDirectLinkC2EPNS_10PluginHost6IShellERKNSt7__cxx1112basic_stringIcSt11char_traitsIcESaIcEEESC_
FNDA:0,_ZN12WPEFramework5Utils17JSONRPCDirectLinkD2Ev
FNDA:0,_ZN12WPEFramework5Utils17JSONRPCDirectLink6InvokeINSt7__cxx1112basic_stringIcSt11char_traitsIcESaIcEEES8_EEjRKS8_RKT_RT0_
FNDA:0,_ZZN12WPEFramework5Utils17JSONRPCDirectLink6InvokeINSt7__cxx1112basic_stringIcSt11char_traitsIcESaIcEEES8_EEjRKS8_RKT_RT0_ENKUlS8_E_clES8_
FNDA:0,_ZN12WPEFramework5Utils26GetThunderControllerClientEPNS_10PluginHost6IShellENSt7__cxx1112basic_stringIcSt11char_traitsIcESaIcEEE
FNDA:0,_ZN12WPEFramework5Utils23GetThunderSecurityTokenEPNS_10PluginHost6IShellERNSt7__cxx1112basic_stringIcSt11char_traitsIcESaIcEEE
FNDA:0,_ZNK12WPEFramework5Utils17JSONRPCDirectLink8ToStringERNSt7__cxx1112basic_stringIcSt11char_traitsIcESaIcEEERKS7_
FNDA:0,_ZNK12WPEFramework5Utils17JSONRPCDirectLink10FromStringERNSt7__cxx1112basic_stringIcSt11char_traitsIcESaIcEEERKS7_
FNF:8
FNH:0
DA:29,0
DA:31,0
DA:32,0
DA:33,0
DA:35,0
DA:36,0
DA:37,0
DA:38,0
DA:39,0
DA:41,0
DA:42,0
DA:46,0
DA:48,0
DA:49,0
DA:52,0
DA:53,0
DA:56,0
DA:67,0
DA:69,0
DA:70,0
DA:85,0
DA:87,0
DA:88,0
DA:103,0
DA:104,0
DA:105,0
DA:107,0
DA:109,0
DA:111,0
DA:118,0
DA:120,0
DA:122,0
DA:124,0
DA:127,0
DA:136,0
DA:137,0
DA:138,0
DA:140,0
DA:143,0
DA:144,0
DA:146,0
DA:149,0
DA:150,0
DA:152,0
DA:155,0
DA:157,0
DA:158,0
DA:161,0
DA:162,0
DA:163,0
DA:164,0
DA:165,0
DA:167,0
DA:170,0
DA:171,0
DA:173,0
DA:175,0
DA:177,0
DA:179,0
DA:181,0
DA:184,0
DA:186,0
DA:191,0
DA:192,0
DA:195,0
DA:197,0
DA:200,0
DA:201,0
DA:202,0
DA:205,0
LF:70
LH:0
end_of_record
TN:
SF:/home/kavia/workspace/code-generation/app-gateway2/helpers/rdkservices-comcast/helpers/WebSocketLink.h
FN:1000,1004,_ZN12WPEFramework3Web9WebSocket20HWebSocketServerTypeINS_4Core12SocketStreamEE7HandlerIS4_E4SendERKNS3_9ProxyTypeINS0_8ResponseEEE
FN:1005,1009,_ZN12WPEFramework3Web9WebSocket20HWebSocketServerTypeINS_4Core12SocketStreamEE7HandlerIS4_E8LinkBodyERNS3_9ProxyTypeINS0_7RequestEEE
FN:1021,1024,_ZN12WPEFramework3Web9WebSocket20HWebSocketServerTypeINS_4Core12SocketStreamEEC2IJRbRiRNS3_6NodeIdES8_S8_EEEbbDpOT_
FN:1025,1025,_ZN12WPEFramework3Web9WebSocket20HWebSocketServerTypeINS_4Core12SocketStreamEED0Ev
FN:1025,1025,_ZN12WPEFramework3Web9WebSocket20HWebSocketServerTypeINS_4Core12SocketStreamEED2Ev
FN:1036,1039,_ZNK12WPEFramework3Web9WebSocket20HWebSocketServerTypeINS_4Core12SocketStreamEE6IsOpenEv
FN:1040,1043,_ZNK12WPEFramework3Web9WebSocket20HWebSocketServerTypeINS_4Core12SocketStreamEE8IsClosedEv
FN:1056,1059,_ZNK12WPEFramework3Web9WebSocket20HWebSocketServerTypeINS_4Core12SocketStreamEE11IsSuspendedEv
FN:1080,1084,_ZN12WPEFramework3Web9WebSocket20HWebSocketServerTypeINS_4Core12SocketStreamEE4OpenEj
FN:1085,1088,_ZN12WPEFramework3Web9WebSocket20HWebSocketServerTypeINS_4Core12SocketStreamEE5CloseEj
FN:1090,1093,_ZNK12WPEFramework3Web9WebSocket20HWebSocketServerTypeINS_4Core12SocketStreamEE5QueryB5cxx11Ev
FN:1094,1097,_ZN12WPEFramework3Web9WebSocket20HWebSocketServerTypeINS_4Core12SocketStreamEE7TriggerEv
FN:117,147,_ZN12WPEFramework3Web9WebSocket18HWebSocketLinkTypeINS_4Core12SocketStreamENS0_7RequestENS0_8ResponseERNS1_16RequestAllocatorEE11HandlerTypeIS4_E14SerializerImpl10SerializedERKS6_
FN:167,172,_ZN12WPEFramework3Web9WebSocket18HWebSocketLinkTypeINS_4Core12SocketStreamENS0_7RequestENS0_8ResponseERNS1_16RequestAllocatorEE11HandlerTypeIS4_E16DeserializerImplC2ERSB_S8_
FN:173,173,_ZN12WPEFramework3Web9WebSocket18HWebSocketLinkTypeINS_4Core12SocketStreamENS0_7RequestENS0_8ResponseERNS1_16RequestAllocatorEE11HandlerTypeIS4_E16DeserializerImplD0Ev
FN:173,173,_ZN12WPEFramework3Web9WebSocket18HWebSocketLinkTypeINS_4Core12SocketStreamENS0_7RequestENS0_8ResponseERNS1_16RequestAllocatorEE11HandlerTypeIS4_E16DeserializerImplD2Ev
FN:176,179,_ZNK12WPEFramework3Web9WebSocket18HWebSocketLinkTypeINS_4Core12SocketStreamENS0_7RequestENS0_8ResponseERNS1_16RequestAllocatorEE11HandlerTypeIS4_E16DeserializerImpl6IsIdleEv
FN:180,188,_ZN12WPEFramework3Web9WebSocket18HWebSocketLinkTypeINS_4Core12SocketStreamENS0_7RequestENS0_8ResponseERNS1_16RequestAllocatorEE11HandlerTypeIS4_E16DeserializerImpl12DeserializedERS5_
FN:189,200,_ZN12WPEFramework3Web9WebSocket18HWebSocketLinkTypeINS_4Core12SocketStreamENS0_7RequestENS0_8ResponseERNS1_16RequestAllocatorEE11HandlerTypeIS4_E16DeserializerImpl7ElementEv
FN:201,207,_ZN12WPEFramework3Web9WebSocket18HWebSocketLinkTypeINS_4Core12SocketStreamENS0_7RequestENS0_8ResponseERNS1_16RequestAllocatorEE11HandlerTypeIS4_E16DeserializerImpl8LinkBodyERS5_
FN:239,254,_ZN12WPEFramework3Web9WebSocket18HWebSocketLinkTypeINS_4Core12SocketStreamENS0_7RequestENS0_8ResponseERNS1_16RequestAllocatorEE11HandlerTypeIS4_EC2IJRbRiRNS3_6NodeIdESE_SE_EEERS9_bbhS8_DpOT_
FN:256,256,_ZN12WPEFramework3Web9WebSocket18HWebSocketLinkTypeINS_4Core12SocketStreamENS0_7RequestENS0_8ResponseERNS1_16RequestAllocatorEE11HandlerTypeIS4_ED0Ev
FN:256,256,_ZN12WPEFramework3Web9WebSocket18HWebSocketLinkTypeINS_4Core12SocketStreamENS0_7RequestENS0_8ResponseERNS1_16RequestAllocatorEE11HandlerTypeIS4_ED2Ev
FN:259,262,_ZNK12WPEFramework3Web9WebSocket18HWebSocketLinkTypeINS_4Core12SocketStreamENS0_7RequestENS0_8ResponseERNS1_16RequestAllocatorEE11HandlerTypeIS4_E6IsOpenEv
FN:263,266,_ZNK12WPEFramework3Web9WebSocket18HWebSocketLinkTypeINS_4Core12SocketStreamENS0_7RequestENS0_8ResponseERNS1_16RequestAllocatorEE11HandlerTypeIS4_E11IsSuspendedEv
FN:267,270,_ZNK12WPEFramework3Web9WebSocket18HWebSocketLinkTypeINS_4Core12SocketStreamENS0_7RequestENS0_8ResponseERNS1_16RequestAllocatorEE11HandlerTypeIS4_E8IsClosedEv
FN:279,282,_ZNK12WPEFramework3Web9WebSocket18HWebSocketLinkTypeINS_4Core12SocketStreamENS0_7RequestENS0_8ResponseERNS1_16RequestAllocatorEE11HandlerTypeIS4_E11IsWebSocketEv
FN:299,302,_ZNK12WPEFramework3Web9WebSocket18HWebSocketLinkTypeINS_4Core12SocketStreamENS0_7RequestENS0_8ResponseERNS1_16RequestAllocatorEE11HandlerTypeIS4_E5QueryB5cxx11Ev
FN:366,387,_ZN12WPEFramework3Web9WebSocket18HWebSocketLinkTypeINS_4Core12SocketStreamENS0_7RequestENS0_8ResponseERNS1_16RequestAllocatorEE11HandlerTypeIS4_E5CloseEj
FN:390,415,_ZN12WPEFramework3Web9WebSocket18HWebSocketLinkTypeINS_4Core12SocketStreamENS0_7RequestENS0_8ResponseERNS1_16RequestAllocatorEE11HandlerTypeIS4_E8SendDataEPht
FN:416,533,_ZN12WPEFramework3Web9WebSocket18HWebSocketLinkTypeINS_4Core12SocketStreamENS0_7RequestENS0_8ResponseERNS1_16RequestAllocatorEE11HandlerTypeIS4_E11ReceiveDataEPht
FN:536,548,_ZN12WPEFramework3Web9WebSocket18HWebSocketLinkTypeINS_4Core12SocketStreamENS0_7RequestENS0_8ResponseERNS1_16RequestAllocatorEE11HandlerTypeIS4_E11StateChangeEv
FN:573,576,_ZNK12WPEFramework3Web9WebSocket18HWebSocketLinkTypeINS_4Core12SocketStreamENS0_7RequestENS0_8ResponseERNS1_16RequestAllocatorEE11HandlerTypeIS4_E5StateEv
FN:577,603,_ZN12WPEFramework3Web9WebSocket18HWebSocketLinkTypeINS_4Core12SocketStreamENS0_7RequestENS0_8ResponseERNS1_16RequestAllocatorEE11HandlerTypeIS4_E13CheckForCloseEj
FN:60,66,_ZN12WPEFramework3Web9WebSocket18HWebSocketLinkTypeINS_4Core12SocketStreamENS0_7RequestENS0_8ResponseERNS1_16RequestAllocatorEE11HandlerTypeIS4_E14SerializerImplC2ERSB_h
FN:604,607,_ZN12WPEFramework3Web9WebSocket18HWebSocketLinkTypeINS_4Core12SocketStreamENS0_7RequestENS0_8ResponseERNS1_16RequestAllocatorEE11HandlerTypeIS4_E10SerializedERKNS3_9ProxyTypeIS6_EE
FN:608,611,_ZN12WPEFramework3Web9WebSocket18HWebSocketLinkTypeINS_4Core12SocketStreamENS0_7RequestENS0_8ResponseERNS1_16RequestAllocatorEE11HandlerTypeIS4_E12DeserializedERNS3_9ProxyTypeIS5_EE
FN:612,617,_ZN12WPEFramework3Web9WebSocket18HWebSocketLinkTypeINS_4Core12SocketStreamENS0_7RequestENS0_8ResponseERNS1_16RequestAllocatorEE11HandlerTypeIS4_E8LinkBodyERNS3_9ProxyTypeIS5_EE
FN:618,621,_ZN12WPEFramework3Web9WebSocket18HWebSocketLinkTypeINS_4Core12SocketStreamENS0_7RequestENS0_8ResponseERNS1_16RequestAllocatorEE11HandlerTypeIS4_E16UpgradeCompletedEv
FN:633,686,_ZN12WPEFramework3Web9WebSocket18HWebSocketLinkTypeINS_4Core12SocketStreamENS0_7RequestENS0_8ResponseERNS1_16RequestAllocatorEE11HandlerTypeIS4_E17ReceivedWebSocketERNS3_9ProxyTypeIS5_EERK17TemplateIntToTypeILj1EE
FN:67,67,_ZN12WPEFramework3Web9WebSocket18HWebSocketLinkTypeINS_4Core12SocketStreamENS0_7RequestENS0_8ResponseERNS1_16RequestAllocatorEE11HandlerTypeIS4_E14SerializerImplD0Ev
FN:67,67,_ZN12WPEFramework3Web9WebSocket18HWebSocketLinkTypeINS_4Core12SocketStreamENS0_7RequestENS0_8ResponseERNS1_16RequestAllocatorEE11HandlerTypeIS4_E14SerializerImplD2Ev
FN:687,701,_ZN12WPEFramework3Web9WebSocket18HWebSocketLinkTypeINS_4Core12SocketStreamENS0_7RequestENS0_8ResponseERNS1_16RequestAllocatorEE11HandlerTypeIS4_E16UpgradeCompletedERK17TemplateIntToTypeILj1EE
FN:70,73,_ZNK12WPEFramework3Web9WebSocket18HWebSocketLinkTypeINS_4Core12SocketStreamENS0_7RequestENS0_8ResponseERNS1_16RequestAllocatorEE11HandlerTypeIS4_E14SerializerImpl6IsIdleEv
FN:74,91,_ZN12WPEFramework3Web9WebSocket18HWebSocketLinkTypeINS_4Core12SocketStreamENS0_7RequestENS0_8ResponseERNS1_16RequestAllocatorEE11HandlerTypeIS4_E14SerializerImpl6SubmitERKNS3_9ProxyTypeIS6_EE
FN:806,809,_ZN12WPEFramework3Web9WebSocket18HWebSocketLinkTypeINS_4Core12SocketStreamENS0_7RequestENS0_8ResponseERNS1_16RequestAllocatorEEC2IJRbRiRNS3_6NodeIdESC_SC_EEEbbhS8_DpOT_
FN:811,811,_ZN12WPEFramework3Web9WebSocket18HWebSocketLinkTypeINS_4Core12SocketStreamENS0_7RequestENS0_8ResponseERNS1_16RequestAllocatorEED0Ev
FN:811,811,_ZN12WPEFramework3Web9WebSocket18HWebSocketLinkTypeINS_4Core12SocketStreamENS0_7RequestENS0_8ResponseERNS1_16RequestAllocatorEED2Ev
FN:830,833,_ZNK12WPEFramework3Web9WebSocket18HWebSocketLinkTypeINS_4Core12SocketStreamENS0_7RequestENS0_8ResponseERNS1_16RequestAllocatorEE6IsOpenEv
FN:834,837,_ZNK12WPEFramework3Web9WebSocket18HWebSocketLinkTypeINS_4Core12SocketStreamENS0_7RequestENS0_8ResponseERNS1_16RequestAllocatorEE11IsSuspendedEv
FN:838,841,_ZNK12WPEFramework3Web9WebSocket18HWebSocketLinkTypeINS_4Core12SocketStreamENS0_7RequestENS0_8ResponseERNS1_16RequestAllocatorEE8IsClosedEv
FN:850,853,_ZNK12WPEFramework3Web9WebSocket18HWebSocketLinkTypeINS_4Core12SocketStreamENS0_7RequestENS0_8ResponseERNS1_16RequestAllocatorEE11IsWebSocketEv
FN:886,889,_ZNK12WPEFramework3Web9WebSocket18HWebSocketLinkTypeINS_4Core12SocketStreamENS0_7RequestENS0_8ResponseERNS1_16RequestAllocatorEE5QueryB5cxx11Ev
FN:906,910,_ZN12WPEFramework3Web9WebSocket18HWebSocketLinkTypeINS_4Core12SocketStreamENS0_7RequestENS0_8ResponseERNS1_16RequestAllocatorEE4OpenEj
FN:911,914,_ZN12WPEFramework3Web9WebSocket18HWebSocketLinkTypeINS_4Core12SocketStreamENS0_7RequestENS0_8ResponseERNS1_16RequestAllocatorEE5CloseEj
FN:919,922,_ZN12WPEFramework3Web9WebSocket18HWebSocketLinkTypeINS_4Core12SocketStreamENS0_7RequestENS0_8ResponseERNS1_16RequestAllocatorEE7TriggerEv
FN:92,95,_ZN12WPEFramework3Web9WebSocket18HWebSocketLinkTypeINS_4Core12SocketStreamENS0_7RequestENS0_8ResponseERNS1_16RequestAllocatorEE11HandlerTypeIS4_E14SerializerImpl9SerializeEPht
FN:96,114,_ZN12WPEFramework3Web9WebSocket18HWebSocketLinkTypeINS_4Core12SocketStreamENS0_7RequestENS0_8ResponseERNS1_16RequestAllocatorEE11HandlerTypeIS4_E14SerializerImpl5FlushEv
FN:968,972,_ZN12WPEFramework3Web9WebSocket20HWebSocketServerTypeINS_4Core12SocketStreamEE7HandlerIS4_EC2IJRbRiRNS3_6NodeIdESA_SA_EEERS5_bbDpOT_
FN:973,973,_ZN12WPEFramework3Web9WebSocket20HWebSocketServerTypeINS_4Core12SocketStreamEE7HandlerIS4_ED0Ev
FN:973,973,_ZN12WPEFramework3Web9WebSocket20HWebSocketServerTypeINS_4Core12SocketStreamEE7HandlerIS4_ED2Ev
FN:976,979,_ZN12WPEFramework3Web9WebSocket20HWebSocketServerTypeINS_4Core12SocketStreamEE7HandlerIS4_E8SendDataEPht
FN:980,983,_ZN12WPEFramework3Web9WebSocket20HWebSocketServerTypeINS_4Core12SocketStreamEE7HandlerIS4_E11ReceiveDataEPht
FN:986,989,_ZNK12WPEFramework3Web9WebSocket20HWebSocketServerTypeINS_4Core12SocketStreamEE7HandlerIS4_E6IsIdleEv
FN:991,994,_ZN12WPEFramework3Web9WebSocket20HWebSocketServerTypeINS_4Core12SocketStreamEE7HandlerIS4_E11StateChangeEv
FN:995,999,_ZN12WPEFramework3Web9WebSocket20HWebSocketServerTypeINS_4Core12SocketStreamEE7HandlerIS4_E8ReceivedERNS3_9ProxyTypeINS0_7RequestEEE
FNDA:0,_ZN12WPEFramework3Web9WebSocket20HWebSocketServerTypeINS_4Core12SocketStreamEE7HandlerIS4_E4SendERKNS3_9ProxyTypeINS0_8ResponseEEE
FNDA:0,_ZN12WPEFramework3Web9WebSocket20HWebSocketServerTypeINS_4Core12SocketStreamEE7HandlerIS4_E8LinkBodyERNS3_9ProxyTypeINS0_7RequestEEE
FNDA:0,_ZN12WPEFramework3Web9WebSocket20HWebSocketServerTypeINS_4Core12SocketStreamEEC2IJRbRiRNS3_6NodeIdES8_S8_EEEbbDpOT_
FNDA:0,_ZN12WPEFramework3Web9WebSocket20HWebSocketServerTypeINS_4Core12SocketStreamEED0Ev
FNDA:0,_ZN12WPEFramework3Web9WebSocket20HWebSocketServerTypeINS_4Core12SocketStreamEED2Ev
FNDA:0,_ZNK12WPEFramework3Web9WebSocket20HWebSocketServerTypeINS_4Core12SocketStreamEE6IsOpenEv
FNDA:0,_ZNK12WPEFramework3Web9WebSocket20HWebSocketServerTypeINS_4Core12SocketStreamEE8IsClosedEv
FNDA:0,_ZNK12WPEFramework3Web9WebSocket20HWebSocketServerTypeINS_4Core12SocketStreamEE11IsSuspendedEv
FNDA:0,_ZN12WPEFramework3Web9WebSocket20HWebSocketServerTypeINS_4Core12SocketStreamEE4OpenEj
FNDA:0,_ZN12WPEFramework3Web9WebSocket20HWebSocketServerTypeINS_4Core12SocketStreamEE5CloseEj
FNDA:0,_ZNK12WPEFramework3Web9WebSocket20HWebSocketServerTypeINS_4Core12SocketStreamEE5QueryB5cxx11Ev
FNDA:0,_ZN12WPEFramework3Web9WebSocket20HWebSocketServerTypeINS_4Core12SocketStreamEE7TriggerEv
FNDA:0,_ZN12WPEFramework3Web9WebSocket18HWebSocketLinkTypeINS_4Core12SocketStreamENS0_7RequestENS0_8ResponseERNS1_16RequestAllocatorEE11HandlerTypeIS4_E14SerializerImpl10SerializedERKS6_
FNDA:0,_ZN12WPEFramework3Web9WebSocket18HWebSocketLinkTypeINS_4Core12SocketStreamENS0_7RequestENS0_8ResponseERNS1_16RequestAllocatorEE11HandlerTypeIS4_E16DeserializerImplC2ERSB_S8_
FNDA:0,_ZN12WPEFramework3Web9WebSocket18HWebSocketLinkTypeINS_4Core12SocketStreamENS0_7RequestENS0_8ResponseERNS1_16RequestAllocatorEE11HandlerTypeIS4_E16DeserializerImplD0Ev
FNDA:0,_ZN12WPEFramework3Web9WebSocket18HWebSocketLinkTypeINS_4Core12SocketStreamENS0_7RequestENS0_8ResponseERNS1_16RequestAllocatorEE11HandlerTypeIS4_E16DeserializerImplD2Ev
FNDA:0,_ZNK12WPEFramework3Web9WebSocket18HWebSocketLinkTypeINS_4Core12SocketStreamENS0_7RequestENS0_8ResponseERNS1_16RequestAllocatorEE11HandlerTypeIS4_E16DeserializerImpl6IsIdleEv
FNDA:0,_ZN12WPEFramework3Web9WebSocket18HWebSocketLinkTypeINS_4Core12SocketStreamENS0_7RequestENS0_8ResponseERNS1_16RequestAllocatorEE11HandlerTypeIS4_E16DeserializerImpl12DeserializedERS5_
FNDA:0,_ZN12WPEFramework3Web9WebSocket18HWebSocketLinkTypeINS_4Core12SocketStreamENS0_7RequestENS0_8ResponseERNS1_16RequestAllocatorEE11HandlerTypeIS4_E16DeserializerImpl7ElementEv
FNDA:0,_ZN12WPEFramework3Web9WebSocket18HWebSocketLinkTypeINS_4Core12SocketStreamENS0_7RequestENS0_8ResponseERNS1_16RequestAllocatorEE11HandlerTypeIS4_E16DeserializerImpl8LinkBodyERS5_
FNDA:0,_ZN12WPEFramework3Web9WebSocket18HWebSocketLinkTypeINS_4Core12SocketStreamENS0_7RequestENS0_8ResponseERNS1_16RequestAllocatorEE11HandlerTypeIS4_EC2IJRbRiRNS3_6NodeIdESE_SE_EEERS9_bbhS8_DpOT_
FNDA:0,_ZN12WPEFramework3Web9WebSocket18HWebSocketLinkTypeINS_4Core12SocketStreamENS0_7RequestENS0_8ResponseERNS1_16RequestAllocatorEE11HandlerTypeIS4_ED0Ev
FNDA:0,_ZN12WPEFramework3Web9WebSocket18HWebSocketLinkTypeINS_4Core12SocketStreamENS0_7RequestENS0_8ResponseERNS1_16RequestAllocatorEE11HandlerTypeIS4_ED2Ev
FNDA:0,_ZNK12WPEFramework3Web9WebSocket18HWebSocketLinkTypeINS_4Core12SocketStreamENS0_7RequestENS0_8ResponseERNS1_16RequestAllocatorEE11HandlerTypeIS4_E6IsOpenEv
FNDA:0,_ZNK12WPEFramework3Web9WebSocket18HWebSocketLinkTypeINS_4Core12SocketStreamENS0_7RequestENS0_8ResponseERNS1_16RequestAllocatorEE11HandlerTypeIS4_E11IsSuspendedEv
FNDA:0,_ZNK12WPEFramework3Web9WebSocket18HWebSocketLinkTypeINS_4Core12SocketStreamENS0_7RequestENS0_8ResponseERNS1_16RequestAllocatorEE11HandlerTypeIS4_E8IsClosedEv
FNDA:0,_ZNK12WPEFramework3Web9WebSocket18HWebSocketLinkTypeINS_4Core12SocketStreamENS0_7RequestENS0_8ResponseERNS1_16RequestAllocatorEE11HandlerTypeIS4_E11IsWebSocketEv
FNDA:0,_ZNK12WPEFramework3Web9WebSocket18HWebSocketLinkTypeINS_4Core12SocketStreamENS0_7RequestENS0_8ResponseERNS1_16RequestAllocatorEE11HandlerTypeIS4_E5QueryB5cxx11Ev
FNDA:0,_ZN12WPEFramework3Web9WebSocket18HWebSocketLinkTypeINS_4Core12SocketStreamENS0_7RequestENS0_8ResponseERNS1_16RequestAllocatorEE11HandlerTypeIS4_E5CloseEj
FNDA:0,_ZN12WPEFramework3Web9WebSocket18HWebSocketLinkTypeINS_4Core12SocketStreamENS0_7RequestENS0_8ResponseERNS1_16RequestAllocatorEE11HandlerTypeIS4_E8SendDataEPht
FNDA:0,_ZN12WPEFramework3Web9WebSocket18HWebSocketLinkTypeINS_4Core12SocketStreamENS0_7RequestENS0_8ResponseERNS1_16RequestAllocatorEE11HandlerTypeIS4_E11ReceiveDataEPht
FNDA:0,_ZN12WPEFramework3Web9WebSocket18HWebSocketLinkTypeINS_4Core12SocketStreamENS0_7RequestENS0_8ResponseERNS1_16RequestAllocatorEE11HandlerTypeIS4_E11StateChangeEv
FNDA:0,_ZNK12WPEFramework3Web9WebSocket18HWebSocketLinkTypeINS_4Core12SocketStreamENS0_7RequestENS0_8ResponseERNS1_16RequestAllocatorEE11HandlerTypeIS4_E5StateEv
FNDA:0,_ZN12WPEFramework3Web9WebSocket18HWebSocketLinkTypeINS_4Core12SocketStreamENS0_7RequestENS0_8ResponseERNS1_16RequestAllocatorEE11HandlerTypeIS4_E13CheckForCloseEj
FNDA:0,_ZN12WPEFramework3Web9WebSocket18HWebSocketLinkTypeINS_4Core12SocketStreamENS0_7RequestENS0_8ResponseERNS1_16RequestAllocatorEE11HandlerTypeIS4_E14SerializerImplC2ERSB_h
FNDA:0,_ZN12WPEFramework3Web9WebSocket18HWebSocketLinkTypeINS_4Core12SocketStreamENS0_7RequestENS0_8ResponseERNS1_16RequestAllocatorEE11HandlerTypeIS4_E10SerializedERKNS3_9ProxyTypeIS6_EE
FNDA:0,_ZN12WPEFramework3Web9WebSocket18HWebSocketLinkTypeINS_4Core12SocketStreamENS0_7RequestENS0_8ResponseERNS1_16RequestAllocatorEE11HandlerTypeIS4_E12DeserializedERNS3_9ProxyTypeIS5_EE
FNDA:0,_ZN12WPEFramework3Web9WebSocket18HWebSocketLinkTypeINS_4Core12SocketStreamENS0_7RequestENS0_8ResponseERNS1_16RequestAllocatorEE11HandlerTypeIS4_E8LinkBodyERNS3_9ProxyTypeIS5_EE
FNDA:0,_ZN12WPEFramework3Web9WebSocket18HWebSocketLinkTypeINS_4Core12SocketStreamENS0_7RequestENS0_8ResponseERNS1_16RequestAllocatorEE11HandlerTypeIS4_E16UpgradeCompletedEv
FNDA:0,_ZN12WPEFramework3Web9WebSocket18HWebSocketLinkTypeINS_4Core12SocketStreamENS0_7RequestENS0_8ResponseERNS1_16RequestAllocatorEE11HandlerTypeIS4_E17ReceivedWebSocketERNS3_9ProxyTypeIS5_EERK17TemplateIntToTypeILj1EE
FNDA:0,_ZN12WPEFramework3Web9WebSocket18HWebSocketLinkTypeINS_4Core12SocketStreamENS0_7RequestENS0_8ResponseERNS1_16RequestAllocatorEE11HandlerTypeIS4_E14SerializerImplD0Ev
FNDA:0,_ZN12WPEFramework3Web9WebSocket18HWebSocketLinkTypeINS_4Core12SocketStreamENS0_7RequestENS0_8ResponseERNS1_16RequestAllocatorEE11HandlerTypeIS4_E14SerializerImplD2Ev
FNDA:0,_ZN12WPEFramework3Web9WebSocket18HWebSocketLinkTypeINS_4Core12SocketStreamENS0_7RequestENS0_8ResponseERNS1_16RequestAllocatorEE11HandlerTypeIS4_E16UpgradeCompletedERK17TemplateIntToTypeILj1EE
FNDA:0,_ZNK12WPEFramework3Web9WebSocket18HWebSocketLinkTypeINS_4Core12SocketStreamENS0_7RequestENS0_8ResponseERNS1_16RequestAllocatorEE11HandlerTypeIS4_E14SerializerImpl6IsIdleEv
FNDA:0,_ZN12WPEFramework3Web9WebSocket18HWebSocketLinkTypeINS_4Core12SocketStreamENS0_7RequestENS0_8ResponseERNS1_16RequestAllocatorEE11HandlerTypeIS4_E14SerializerImpl6SubmitERKNS3_9ProxyTypeIS6_EE
FNDA:0,_ZN12WPEFramework3Web9WebSocket18HWebSocketLinkTypeINS_4Core12SocketStreamENS0_7RequestENS0_8ResponseERNS1_16RequestAllocatorEEC2IJRbRiRNS3_6NodeIdESC_SC_EEEbbhS8_DpOT_
FNDA:0,_ZN12WPEFramework3Web9WebSocket18HWebSocketLinkTypeINS_4Core12SocketStreamENS0_7RequestENS0_8ResponseERNS1_16RequestAllocatorEED0Ev
FNDA:0,_ZN12WPEFramework3Web9WebSocket18HWebSocketLinkTypeINS_4Core12SocketStreamENS0_7RequestENS0_8ResponseERNS1_16RequestAllocatorEED2Ev
FNDA:0,_ZNK12WPEFramework3Web9WebSocket18HWebSocketLinkTypeINS_4Core12SocketStreamENS0_7RequestENS0_8ResponseERNS1_16RequestAllocatorEE6IsOpenEv
FNDA:0,_ZNK12WPEFramework3Web9WebSocket18HWebSocketLinkTypeINS_4Core12SocketStreamENS0_7RequestENS0_8ResponseERNS1_16RequestAllocatorEE11IsSuspendedEv
FNDA:0,_ZNK12WPEFramework3Web9WebSocket18HWebSocketLinkTypeINS_4Core12SocketStreamENS0_7RequestENS0_8ResponseERNS1_16RequestAllocatorEE8IsClosedEv
FNDA:0,_ZNK12WPEFramework3Web9WebSocket18HWebSocketLinkTypeINS_4Core12SocketStreamENS0_7RequestENS0_8ResponseERNS1_16RequestAllocatorEE11IsWebSocketEv
FNDA:0,_ZNK12WPEFramework3Web9WebSocket18HWebSocketLinkTypeINS_4Core12SocketStreamENS0_7RequestENS0_8ResponseERNS1_16RequestAllocatorEE5QueryB5cxx11Ev
FNDA:0,_ZN12WPEFramework3Web9WebSocket18HWebSocketLinkTypeINS_4Core12SocketStreamENS0_7RequestENS0_8ResponseERNS1_16RequestAllocatorEE4OpenEj
FNDA:0,_ZN12WPEFramework3Web9WebSocket18HWebSocketLinkTypeINS_4Core12SocketStreamENS0_7RequestENS0_8ResponseERNS1_16RequestAllocatorEE5CloseEj
FNDA:0,_ZN12WPEFramework3Web9WebSocket18HWebSocketLinkTypeINS_4Core12SocketStreamENS0_7RequestENS0_8ResponseERNS1_16RequestAllocatorEE7TriggerEv
FNDA:0,_ZN12WPEFramework3Web9WebSocket18HWebSocketLinkTypeINS_4Core12SocketStreamENS0_7RequestENS0_8ResponseERNS1_16RequestAllocatorEE11HandlerTypeIS4_E14SerializerImpl9SerializeEPht
FNDA:0,_ZN12WPEFramework3Web9WebSocket18HWebSocketLinkTypeINS_4Core12SocketStreamENS0_7RequestENS0_8ResponseERNS1_16RequestAllocatorEE11HandlerTypeIS4_E14SerializerImpl5FlushEv
FNDA:0,_ZN12WPEFramework3Web9WebSocket20HWebSocketServerTypeINS_4Core12SocketStreamEE7HandlerIS4_EC2IJRbRiRNS3_6NodeIdESA_SA_EEERS5_bbDpOT_
FNDA:0,_ZN12WPEFramework3Web9WebSocket20HWebSocketServerTypeINS_4Core12SocketStreamEE7HandlerIS4_ED0Ev
FNDA:0,_ZN12WPEFramework3Web9WebSocket20HWebSocketServerTypeINS_4Core12SocketStreamEE7HandlerIS4_ED2Ev
FNDA:0,_ZN12WPEFramework3Web9WebSocket20HWebSocketServerTypeINS_4Core12SocketStreamEE7HandlerIS4_E8SendDataEPht
FNDA:0,_ZN12WPEFramework3Web9WebSocket20HWebSocketServerTypeINS_4Core12SocketStreamEE7HandlerIS4_E11ReceiveDataEPht
FNDA:0,_ZNK12WPEFramework3Web9WebSocket20HWebSocketServerTypeINS_4Core12SocketStreamEE7HandlerIS4_E6IsIdleEv
FNDA:0,_ZN12WPEFramework3Web9WebSocket20HWebSocketServerTypeINS_4Core12SocketStreamEE7HandlerIS4_E11StateChangeEv
FNDA:0,_ZN12WPEFramework3Web9WebSocket20HWebSocketServerTypeINS_4Core12SocketStreamEE7HandlerIS4_E8ReceivedERNS3_9ProxyTypeINS0_7RequestEEE
FNF:66
FNH:0
DA:60,0
DA:62,0
DA:63,0
DA:64,0
DA:66,0
DA:67,0
DA:70,0
DA:72,0
DA:74,0
DA:76,0
DA:78,0
DA:80,0
DA:83,0
DA:84,0
DA:85,0
DA:88,0
DA:90,0
DA:92,0
DA:94,0
DA:96,0
DA:98,0
DA:100,0
DA:102,0
DA:103,0
DA:104,0
DA:106,0
DA:108,0
DA:110,0
DA:113,0
DA:114,0
DA:117,0
DA:119,0
DA:121,0
DA:124,0
DA:125,0
DA:127,0
DA:129,0
DA:130,0
DA:132,0
DA:135,0
DA:137,0
DA:138,0
DA:139,0
DA:141,0
DA:143,0
DA:147,0
DA:167,0
DA:169,0
DA:170,0
DA:172,0
DA:173,0
DA:176,0
DA:178,0
DA:180,0
DA:182,0
DA:185,0
DA:187,0
DA:188,0
DA:189,0
DA:191,0
DA:192,0
DA:194,0
DA:196,0
DA:199,0
DA:201,0
DA:203,0
DA:206,0
DA:239,0
DA:240,0
DA:241,0
DA:242,0
DA:243,0
DA:244,0
DA:245,0
DA:246,0
DA:247,0
DA:248,0
DA:249,0
DA:250,0
DA:251,0
DA:252,0
DA:254,0
DA:256,0
DA:259,0
DA:261,0
DA:263,0
DA:265,0
DA:267,0
DA:269,0
DA:279,0
DA:281,0
DA:299,0
DA:301,0
DA:366,0
DA:368,0
DA:370,0
DA:372,0
DA:373,0
DA:379,0
DA:382,0
DA:384,0
DA:386,0
DA:390,0
DA:392,0
DA:394,0
DA:396,0
DA:398,0
DA:399,0
DA:400,0
DA:402,0
DA:405,0
DA:408,0
DA:410,0
DA:411,0
DA:414,0
DA:416,0
DA:418,0
DA:420,0
DA:422,0
DA:424,0
DA:425,0
DA:428,0
DA:429,0
DA:430,0
DA:433,0
DA:435,0
DA:436,0
DA:438,0
DA:444,0
DA:445,0
DA:450,0
DA:452,0
DA:454,0
DA:455,0
DA:456,0
DA:458,0
DA:459,0
DA:460,0
DA:461,0
DA:462,0
DA:463,0
DA:465,0
DA:469,0
DA:472,0
DA:479,0
DA:481,0
DA:483,0
DA:484,0
DA:486,0
DA:488,0
DA:492,0
DA:493,0
DA:496,0
DA:498,0
DA:500,0
DA:501,0
DA:502,0
DA:506,0
DA:507,0
DA:512,0
DA:516,0
DA:518,0
DA:523,0
DA:526,0
DA:528,0
DA:529,0
DA:532,0
DA:536,0
DA:538,0
DA:541,0
DA:542,0
DA:545,0
DA:547,0
DA:548,0
DA:573,0
DA:575,0
DA:577,0
DA:579,0
DA:581,0
DA:582,0
DA:584,0
DA:585,0
DA:587,0
DA:588,0
DA:590,0
DA:592,0
DA:595,0
DA:596,0
DA:598,0
DA:602,0
DA:604,0
DA:606,0
DA:607,0
DA:608,0
DA:610,0
DA:611,0
DA:612,0
DA:614,0
DA:616,0
DA:618,0
DA:620,0
DA:621,0
DA:633,0
DA:636,0
DA:638,0
DA:640,0
DA:641,0
DA:642,0
DA:644,0
DA:645,0
DA:646,0
DA:647,0
DA:648,0
DA:649,0
DA:651,0
DA:654,0
DA:655,0
DA:657,0
DA:659,0
DA:660,0
DA:661,0
DA:662,0
DA:663,0
DA:664,0
DA:666,0
DA:667,0
DA:668,0
DA:669,0
DA:671,0
DA:672,0
DA:678,0
DA:680,0
DA:682,0
DA:684,0
DA:686,0
DA:687,0
DA:690,0
DA:691,0
DA:693,0
DA:695,0
DA:697,0
DA:699,0
DA:701,0
DA:806,0
DA:807,0
DA:809,0
DA:811,0
DA:830,0
DA:832,0
DA:834,0
DA:836,0
DA:838,0
DA:840,0
DA:850,0
DA:852,0
DA:886,0
DA:888,0
DA:906,0
DA:908,0
DA:909,0
DA:911,0
DA:913,0
DA:919,0
DA:921,0
DA:922,0
DA:968,0
DA:970,0
DA:972,0
DA:973,0
DA:976,0
DA:978,0
DA:980,0
DA:982,0
DA:986,0
DA:988,0
DA:991,0
DA:993,0
DA:994,0
DA:995,0
DA:998,0
DA:999,0
DA:1000,0
DA:1003,0
DA:1005,0
DA:1008,0
DA:1009,0
DA:1021,0
DA:1022,0
DA:1024,0
DA:1025,0
DA:1036,0
DA:1038,0
DA:1040,0
DA:1042,0
DA:1056,0
DA:1058,0
DA:1080,0
DA:1082,0
DA:1083,0
DA:1085,0
DA:1087,0
DA:1090,0
DA:1092,0
DA:1094,0
DA:1096,0
DA:1097,0
LF:306
LH:0
end_of_record
TN:
SF:/home/kavia/workspace/code-generation/app-gateway2/helpers/rdkservices-comcast/helpers/WsManager.h
FN:103,116,_ZN26WebSocketConnectionManager15WebSocketServerC2ERKiRKN12WPEFramework4Core6NodeIdEPNS4_16SocketServerTypeIS0_EE
FN:117,123,_ZN26WebSocketConnectionManager15WebSocketServerD0Ev
FN:117,123,_ZN26WebSocketConnectionManager15WebSocketServerD2Ev
FN:126,140,_ZN26WebSocketConnectionManager15WebSocketServer8ReceivedERN12WPEFramework4Core9ProxyTypeINS2_4JSON8IElementEEE
FN:141,150,_ZN26WebSocketConnectionManager15WebSocketServer4SendERN12WPEFramework4Core9ProxyTypeINS2_4JSON8IElementEEE
FN:151,175,_ZN26WebSocketConnectionManager15WebSocketServer11StateChangeEv
FN:181,192,_ZN26WebSocketConnectionManager15WebSocketServer19SendJSONRPCResponseERKNSt7__cxx1112basic_stringIcSt11char_traitsIcESaIcEEEij
FN:197,199,_ZN26WebSocketConnectionManager15WebSocketServer2IdEv
FN:201,216,_ZN26WebSocketConnectionManager15WebSocketServer2IdEj
FN:218,222,_ZN26WebSocketConnectionManager15WebSocketServer9ToMessageERKN12WPEFramework4Core9ProxyTypeINS2_4JSON8IElementEEE
FN:223,299,_ZN26WebSocketConnectionManager15WebSocketServer14ProcessMessageERN12WPEFramework4Core9ProxyTypeINS2_7JSONRPC7MessageEEEj
FN:306,322,_ZN26WebSocketConnectionManager15WebSocketServer12AddToPendingERN12WPEFramework4Core9ProxyTypeINS2_7JSONRPC7MessageEEE
FN:340,344,_ZN26WebSocketConnectionManager16WebSocketChannelC2ERKN12WPEFramework4Core6NodeIdERS_
FN:345,347,_ZN26WebSocketConnectionManager16WebSocketChannelD2Ev
FN:348,350,_ZN26WebSocketConnectionManager16WebSocketChannel9InterfaceEv
FN:362,362,_ZN26WebSocketConnectionManager17SetMessageHandlerERKSt8functionIFvRKNSt7__cxx1112basic_stringIcSt11char_traitsIcESaIcEEES8_jjEE
FN:364,364,_ZN26WebSocketConnectionManager14SetAuthHandlerERKSt8functionIFbjRKNSt7__cxx1112basic_stringIcSt11char_traitsIcESaIcEEEEE
FN:366,366,_ZN26WebSocketConnectionManager20SetDisconnectHandlerESt8functionIFvjEE
FN:374,403,_ZN26WebSocketConnectionManager23SendMessageToConnectionEjRKNSt7__cxx1112basic_stringIcSt11char_traitsIcESaIcEEEi
FN:40,45,_ZN26WebSocketConnectionManagerD2Ev
FN:405,426,_ZN26WebSocketConnectionManager32DispatchNotificationToConnectionEjRKNSt7__cxx1112basic_stringIcSt11char_traitsIcESaIcEEES7_
FN:428,452,_ZN26WebSocketConnectionManager23SendRequestToConnectionEjRKNSt7__cxx1112basic_stringIcSt11char_traitsIcESaIcEEEjS7_
FN:468,492,_ZN26WebSocketConnectionManager5StartERKN12WPEFramework4Core6NodeIdE
FN:495,498,_ZN26WebSocketConnectionManager5CloseEj
FN:54,58,_ZN26WebSocketConnectionManager6ConfigC2ENSt7__cxx1112basic_stringIcSt11char_traitsIcESaIcEEE
FN:59,59,_ZN26WebSocketConnectionManager6ConfigD0Ev
FN:59,59,_ZN26WebSocketConnectionManager6ConfigD2Ev
FN:73,73,_ZN26WebSocketConnectionManager17JSONObjectFactoryC2Ev
FN:76,76,_ZN26WebSocketConnectionManager17JSONObjectFactoryD2Ev
FN:79,82,_ZN26WebSocketConnectionManager17JSONObjectFactory8InstanceEv
FN:83,86,_ZN26WebSocketConnectionManager17JSONObjectFactory7ElementERKNSt7__cxx1112basic_stringIcSt11char_traitsIcESaIcEEE
FNDA:0,_ZN26WebSocketConnectionManager15WebSocketServerC2ERKiRKN12WPEFramework4Core6NodeIdEPNS4_16SocketServerTypeIS0_EE
FNDA:0,_ZN26WebSocketConnectionManager15WebSocketServerD0Ev
FNDA:0,_ZN26WebSocketConnectionManager15WebSocketServerD2Ev
FNDA:0,_ZN26WebSocketConnectionManager15WebSocketServer8ReceivedERN12WPEFramework4Core9ProxyTypeINS2_4JSON8IElementEEE
FNDA:0,_ZN26WebSocketConnectionManager15WebSocketServer4SendERN12WPEFramework4Core9ProxyTypeINS2_4JSON8IElementEEE
FNDA:0,_ZN26WebSocketConnectionManager15WebSocketServer11StateChangeEv
FNDA:0,_ZN26WebSocketConnectionManager15WebSocketServer19SendJSONRPCResponseERKNSt7__cxx1112basic_stringIcSt11char_traitsIcESaIcEEEij
FNDA:0,_ZN26WebSocketConnectionManager15WebSocketServer2IdEv
FNDA:0,_ZN26WebSocketConnectionManager15WebSocketServer2IdEj
FNDA:0,_ZN26WebSocketConnectionManager15WebSocketServer9ToMessageERKN12WPEFramework4Core9ProxyTypeINS2_4JSON8IElementEEE
FNDA:0,_ZN26WebSocketConnectionManager15WebSocketServer14ProcessMessageERN12WPEFramework4Core9ProxyTypeINS2_7JSONRPC7MessageEEEj
FNDA:0,_ZN26WebSocketConnectionManager15WebSocketServer12AddToPendingERN12WPEFramework4Core9ProxyTypeINS2_7JSONRPC7MessageEEE
FNDA:0,_ZN26WebSocketConnectionManager16WebSocketChannelC2ERKN12WPEFramework4Core6NodeIdERS_
FNDA:0,_ZN26WebSocketConnectionManager16WebSocketChannelD2Ev
FNDA:0,_ZN26WebSocketConnectionManager16WebSocketChannel9InterfaceEv
FNDA:0,_ZN26WebSocketConnectionManager17SetMessageHandlerERKSt8functionIFvRKNSt7__cxx1112basic_stringIcSt11char_traitsIcESaIcEEES8_jjEE
FNDA:0,_ZN26WebSocketConnectionManager14SetAuthHandlerERKSt8functionIFbjRKNSt7__cxx1112basic_stringIcSt11char_traitsIcESaIcEEEEE
FNDA:0,_ZN26WebSocketConnectionManager20SetDisconnectHandlerESt8functionIFvjEE
FNDA:0,_ZN26WebSocketConnectionManager23SendMessageToConnectionEjRKNSt7__cxx1112basic_stringIcSt11char_traitsIcESaIcEEEi
FNDA:2,_ZN26WebSocketConnectionManagerD2Ev
FNDA:0,_ZN26WebSocketConnectionManager32DispatchNotificationToConnectionEjRKNSt7__cxx1112basic_stringIcSt11char_traitsIcESaIcEEES7_
FNDA:0,_ZN26WebSocketConnectionManager23SendRequestToConnectionEjRKNSt7__cxx1112basic_stringIcSt11char_traitsIcESaIcEEEjS7_
FNDA:0,_ZN26WebSocketConnectionManager5StartERKN12WPEFramework4Core6NodeIdE
FNDA:0,_ZN26WebSocketConnectionManager5CloseEj
FNDA:0,_ZN26WebSocketConnectionManager6ConfigC2ENSt7__cxx1112basic_stringIcSt11char_traitsIcESaIcEEE
FNDA:0,_ZN26WebSocketConnectionManager6ConfigD0Ev
FNDA:0,_ZN26WebSocketConnectionManager6ConfigD2Ev
FNDA:0,_ZN26WebSocketConnectionManager17JSONObjectFactoryC2Ev
FNDA:0,_ZN26WebSocketConnectionManager17JSONObjectFactoryD2Ev
FNDA:0,_ZN26WebSocketConnectionManager17JSONObjectFactory8InstanceEv
FNDA:0,_ZN26WebSocketConnectionManager17JSONObjectFactory7ElementERKNSt7__cxx1112basic_stringIcSt11char_traitsIcESaIcEEE
FNF:31
FNH:1
DA:40,2
DA:41,2
DA:42,0
DA:43,0
DA:45,2
DA:54,0
DA:55,0
DA:57,0
DA:58,0
DA:59,0
DA:73,0
DA:76,0
DA:79,0
DA:80,0
DA:81,0
DA:83,0
DA:84,0
DA:85,0
DA:86,0
DA:103,0
DA:109,0
DA:111,0
DA:112,0
DA:113,0
DA:114,0
DA:115,0
DA:116,0
DA:117,0
DA:118,0
DA:119,0
DA:120,0
DA:121,0
DA:123,0
DA:126,0
DA:128,0
DA:130,0
DA:132,0
DA:136,0
DA:138,0
DA:139,0
DA:140,0
DA:141,0
DA:142,0
DA:144,0
DA:148,0
DA:150,0
DA:151,0
DA:152,0
DA:154,0
DA:155,0
DA:156,0
DA:157,0
DA:158,0
DA:159,0
DA:160,0
DA:161,0
DA:163,0
DA:165,0
DA:168,0
DA:170,0
DA:171,0
DA:172,0
DA:181,0
DA:182,0
DA:183,0
DA:184,0
DA:185,0
DA:187,0
DA:188,0
DA:191,0
DA:192,0
DA:197,0
DA:198,0
DA:201,0
DA:202,0
DA:203,0
DA:206,0
DA:207,0
DA:208,0
DA:209,0
DA:210,0
DA:211,0
DA:213,0
DA:214,0
DA:215,0
DA:216,0
DA:218,0
DA:219,0
DA:220,0
DA:221,0
DA:222,0
DA:223,0
DA:225,0
DA:226,0
DA:227,0
DA:229,0
DA:230,0
DA:231,0
DA:233,0
DA:235,0
DA:236,0
DA:237,0
DA:238,0
DA:239,0
DA:240,0
DA:241,0
DA:244,0
DA:245,0
DA:246,0
DA:249,0
DA:251,0
DA:257,0
DA:258,0
DA:259,0
DA:260,0
DA:262,0
DA:264,0
DA:265,0
DA:266,0
DA:269,0
DA:271,0
DA:272,0
DA:273,0
DA:274,0
DA:275,0
DA:277,0
DA:278,0
DA:279,0
DA:299,0
DA:306,0
DA:308,0
DA:309,0
DA:310,0
DA:312,0
DA:313,0
DA:314,0
DA:315,0
DA:316,0
DA:318,0
DA:319,0
DA:321,0
DA:322,0
DA:340,0
DA:342,0
DA:343,0
DA:344,0
DA:345,0
DA:346,0
DA:347,0
DA:348,0
DA:349,0
DA:362,0
DA:364,0
DA:366,0
DA:374,0
DA:376,0
DA:377,0
DA:378,0
DA:380,0
DA:381,0
DA:382,0
DA:384,0
DA:387,0
DA:390,0
DA:402,0
DA:403,0
DA:405,0
DA:407,0
DA:408,0
DA:409,0
DA:410,0
DA:411,0
DA:412,0
DA:425,0
DA:426,0
DA:428,0
DA:430,0
DA:431,0
DA:432,0
DA:433,0
DA:434,0
DA:436,0
DA:437,0
DA:451,0
DA:452,0
DA:468,0
DA:472,0
DA:473,0
DA:475,0
DA:476,0
DA:479,0
DA:480,0
DA:482,0
DA:484,0
DA:485,0
DA:486,0
DA:487,0
DA:489,0
DA:490,0
DA:491,0
DA:495,0
DA:496,0
DA:497,0
DA:498,0
LF:204
LH:3
end_of_record
TN:
SF:/home/kavia/workspace/code-generation/app-gateway2/interfaces/IApp2AppProvider.h
FNF:0
FNH:0
LF:0
LH:0
end_of_record
TN:
SF:/home/kavia/workspace/code-generation/app-gateway2/interfaces/IAppGateway.h
FN:160,160,_ZN12WPEFramework8Exchange20IAppGatewayResponder13INotification22OnAppConnectionChangedERKNSt7__cxx1112basic_stringIcSt11char_traitsIcESaIcEEEjb
FNDA:0,_ZN12WPEFramework8Exchange20IAppGatewayResponder13INotification22OnAppConnectionChangedERKNSt7__cxx1112basic_stringIcSt11char_traitsIcESaIcEEEjb
FNF:1
FNH:0
DA:160,0
LF:1
LH:0
end_of_record
TN:
SF:/home/kavia/workspace/code-generation/app-gateway2/interfaces/IAppNotifications.h
FNF:0
FNH:0
LF:0
LH:0
end_of_record
TN:
SF:/home/kavia/workspace/code-generation/app-gateway2/interfaces/json/JAppGatewayResolver.h
FN:110,116,_ZN12WPEFramework8Exchange19JAppGatewayResolver6detailL10KeyPresentERKNSt7__cxx1112basic_stringIcSt11char_traitsIcESaIcEEEPKc
FN:118,131,_ZN12WPEFramework8Exchange19JAppGatewayResolver6detailL19TrimAsciiWhitespaceENSt7__cxx1112basic_stringIcSt11char_traitsIcESaIcEEE
FN:120,122,_ZZN12WPEFramework8Exchange19JAppGatewayResolver6detailL19TrimAsciiWhitespaceENSt7__cxx1112basic_stringIcSt11char_traitsIcESaIcEEEENKUlcE_clEc
FN:133,161,_ZN12WPEFramework8Exchange19JAppGatewayResolver6detailL24NormalizeJsonStringValueERKNSt7__cxx1112basic_stringIcSt11char_traitsIcESaIcEEE
FN:163,203,_ZN12WPEFramework8Exchange19JAppGatewayResolver6detailL20ExtractContextFieldsERKNS2_18ResolveRequestDataERKNSt7__cxx1112basic_stringIcSt11char_traitsIcESaIcEEERjSE_RSB_
FN:174,180,_ZZN12WPEFramework8Exchange19JAppGatewayResolver6detailL20ExtractContextFieldsERKNS2_18ResolveRequestDataERKNSt7__cxx1112basic_stringIcSt11char_traitsIcESaIcEEERjSE_RSB_ENKUlvE_clEv
FN:205,238,_ZN12WPEFramework8Exchange19JAppGatewayResolver6detailL25NormalizeParamsToJsonTextERKNS2_18ResolveRequestDataE
FN:245,307,_ZN12WPEFramework8Exchange19JAppGatewayResolver8RegisterERNS_10PluginHost7JSONRPCEPNS0_19IAppGatewayResolverE
FN:260,306,_ZZN12WPEFramework8Exchange19JAppGatewayResolver8RegisterERNS_10PluginHost7JSONRPCEPNS0_19IAppGatewayResolverEENKUlRKNS_4Core7JSONRPC7ContextERKNSt7__cxx1112basic_stringIcSt11char_traitsIcESaIcEEESJ_RSH_E_clESB_SJ_SJ_SK_
FN:310,314,_ZN12WPEFramework8Exchange19JAppGatewayResolver10UnregisterERNS_10PluginHost7JSONRPCE
FN:57,66,_ZN12WPEFramework8Exchange19JAppGatewayResolver6detail11ContextDataC2Ev
FN:75,97,_ZN12WPEFramework8Exchange19JAppGatewayResolver6detail18ResolveRequestDataC2Ev
FNDA:0,_ZN12WPEFramework8Exchange19JAppGatewayResolver6detailL10KeyPresentERKNSt7__cxx1112basic_stringIcSt11char_traitsIcESaIcEEEPKc
FNDA:0,_ZN12WPEFramework8Exchange19JAppGatewayResolver6detailL19TrimAsciiWhitespaceENSt7__cxx1112basic_stringIcSt11char_traitsIcESaIcEEE
FNDA:0,_ZZN12WPEFramework8Exchange19JAppGatewayResolver6detailL19TrimAsciiWhitespaceENSt7__cxx1112basic_stringIcSt11char_traitsIcESaIcEEEENKUlcE_clEc
FNDA:0,_ZN12WPEFramework8Exchange19JAppGatewayResolver6detailL24NormalizeJsonStringValueERKNSt7__cxx1112basic_stringIcSt11char_traitsIcESaIcEEE
FNDA:0,_ZN12WPEFramework8Exchange19JAppGatewayResolver6detailL20ExtractContextFieldsERKNS2_18ResolveRequestDataERKNSt7__cxx1112basic_stringIcSt11char_traitsIcESaIcEEERjSE_RSB_
FNDA:0,_ZZN12WPEFramework8Exchange19JAppGatewayResolver6detailL20ExtractContextFieldsERKNS2_18ResolveRequestDataERKNSt7__cxx1112basic_stringIcSt11char_traitsIcESaIcEEERjSE_RSB_ENKUlvE_clEv
FNDA:0,_ZN12WPEFramework8Exchange19JAppGatewayResolver6detailL25NormalizeParamsToJsonTextERKNS2_18ResolveRequestDataE
FNDA:26,_ZN12WPEFramework8Exchange19JAppGatewayResolver8RegisterERNS_10PluginHost7JSONRPCEPNS0_19IAppGatewayResolverE
FNDA:0,_ZZN12WPEFramework8Exchange19JAppGatewayResolver8RegisterERNS_10PluginHost7JSONRPCEPNS0_19IAppGatewayResolverEENKUlRKNS_4Core7JSONRPC7ContextERKNSt7__cxx1112basic_stringIcSt11char_traitsIcESaIcEEESJ_RSH_E_clESB_SJ_SJ_SK_
FNDA:26,_ZN12WPEFramework8Exchange19JAppGatewayResolver10UnregisterERNS_10PluginHost7JSONRPCE
FNDA:0,_ZN12WPEFramework8Exchange19JAppGatewayResolver6detail11ContextDataC2Ev
FNDA:0,_ZN12WPEFramework8Exchange19JAppGatewayResolver6detail18ResolveRequestDataC2Ev
FNF:12
FNH:2
DA:57,0
DA:58,0
DA:59,0
DA:60,0
DA:61,0
DA:63,0
DA:64,0
DA:65,0
DA:66,0
DA:75,0
DA:76,0
DA:77,0
DA:78,0
DA:79,0
DA:80,0
DA:81,0
DA:82,0
DA:83,0
DA:86,0
DA:88,0
DA:89,0
DA:90,0
DA:92,0
DA:93,0
DA:96,0
DA:97,0
DA:110,0
DA:115,0
DA:118,0
DA:120,0
DA:121,0
DA:124,0
DA:125,0
DA:127,0
DA:128,0
DA:130,0
DA:133,0
DA:142,0
DA:146,0
DA:147,0
DA:148,0
DA:150,0
DA:151,0
DA:153,0
DA:156,0
DA:157,0
DA:160,0
DA:161,0
DA:163,0
DA:171,0
DA:172,0
DA:174,0
DA:177,0
DA:178,0
DA:179,0
DA:180,0
DA:182,0
DA:183,0
DA:186,0
DA:187,0
DA:188,0
DA:189,0
DA:193,0
DA:194,0
DA:199,0
DA:200,0
DA:201,0
DA:202,0
DA:205,0
DA:208,0
DA:209,0
DA:213,0
DA:214,0
DA:215,0
DA:216,0
DA:218,0
DA:219,0
DA:224,0
DA:225,0
DA:226,0
DA:230,0
DA:231,0
DA:232,0
DA:233,0
DA:237,0
DA:238,0
DA:245,26
DA:248,26
DA:259,52
DA:260,26
DA:264,0
DA:265,0
DA:267,0
DA:268,0
DA:269,0
DA:273,0
DA:274,0
DA:276,0
DA:277,0
DA:278,0
DA:280,0
DA:281,0
DA:282,0
DA:285,0
DA:286,0
DA:287,0
DA:289,0
DA:290,0
DA:291,0
DA:294,0
DA:296,0
DA:297,0
DA:298,0
DA:299,0
DA:301,0
DA:302,0
DA:304,0
DA:305,0
DA:306,0
DA:307,26
DA:310,26
DA:313,26
DA:314,26
LF:123
LH:8
end_of_record
TN:
SF:/home/kavia/workspace/code-generation/app-gateway2/plugin/AppGateway/AppGateway.cpp
FN:104,107,_ZN12WPEFramework12_GLOBAL__N_115ResolverJsonRpcL10KeyPresentERKNSt7__cxx1112basic_stringIcSt11char_traitsIcESaIcEEEPKc
FN:109,122,_ZN12WPEFramework12_GLOBAL__N_115ResolverJsonRpcL19TrimAsciiWhitespaceENSt7__cxx1112basic_stringIcSt11char_traitsIcESaIcEEE
FN:111,113,_ZZN12WPEFramework12_GLOBAL__N_115ResolverJsonRpcL19TrimAsciiWhitespaceENSt7__cxx1112basic_stringIcSt11char_traitsIcESaIcEEEENKUlcE_clEc
FN:124,169,_ZN12WPEFramework12_GLOBAL__N_115ResolverJsonRpcL24NormalizeJsonStringValueERKNSt7__cxx1112basic_stringIcSt11char_traitsIcESaIcEEE
FN:171,208,_ZN12WPEFramework12_GLOBAL__N_115ResolverJsonRpcL20ExtractContextFieldsERKNS1_18ResolveRequestDataERKNSt7__cxx1112basic_stringIcSt11char_traitsIcESaIcEEERjSD_RSA_
FN:181,186,_ZZN12WPEFramework12_GLOBAL__N_115ResolverJsonRpcL20ExtractContextFieldsERKNS1_18ResolveRequestDataERKNSt7__cxx1112basic_stringIcSt11char_traitsIcESaIcEEERjSD_RSA_ENKUlvE_clEv
FN:210,241,_ZN12WPEFramework12_GLOBAL__N_115ResolverJsonRpcL25NormalizeParamsToJsonTextERKNS1_18ResolveRequestDataE
FN:243,294,_ZN12WPEFramework12_GLOBAL__N_115ResolverJsonRpcL13InvokeResolveEPNS_8Exchange19IAppGatewayResolverERKNSt7__cxx1112basic_stringIcSt11char_traitsIcESaIcEEERSA_
FN:319,327,_ZN12WPEFramework6Plugin10AppGatewayC1Ev
FN:319,327,_ZN12WPEFramework6Plugin10AppGatewayC2Ev
FN:329,342,_ZN12WPEFramework6Plugin10AppGatewayD0Ev
FN:329,342,_ZN12WPEFramework6Plugin10AppGatewayD1Ev
FN:329,342,_ZN12WPEFramework6Plugin10AppGatewayD2Ev
FN:344,472,_ZN12WPEFramework6Plugin10AppGateway10InitializeB5cxx11EPNS_10PluginHost6IShellE
FN:384,387,_ZZN12WPEFramework6Plugin10AppGateway10InitializeB5cxx11EPNS_10PluginHost6IShellEENKUlvE_clEv
FN:414,424,_ZZN12WPEFramework6Plugin10AppGateway10InitializeB5cxx11EPNS_10PluginHost6IShellEENKUlRKNS_4Core7JSONRPC7ContextERKNSt7__cxx1112basic_stringIcSt11char_traitsIcESaIcEEESH_RSF_E_clES9_SH_SH_SI_
FN:474,520,_ZN12WPEFramework6Plugin10AppGateway12DeinitializeEPNS_10PluginHost6IShellE
FN:49,58,_ZN12WPEFramework12_GLOBAL__N_115ResolverJsonRpc11ContextDataC2Ev
FN:522,529,_ZN12WPEFramework6Plugin10AppGateway11DeactivatedEPNS_3RPC17IRemoteConnectionE
FN:67,91,_ZN12WPEFramework12_GLOBAL__N_115ResolverJsonRpc18ResolveRequestDataC2Ev
FNDA:63,_ZN12WPEFramework12_GLOBAL__N_115ResolverJsonRpcL10KeyPresentERKNSt7__cxx1112basic_stringIcSt11char_traitsIcESaIcEEEPKc
FNDA:124,_ZN12WPEFramework12_GLOBAL__N_115ResolverJsonRpcL19TrimAsciiWhitespaceENSt7__cxx1112basic_stringIcSt11char_traitsIcESaIcEEE
FNDA:236,_ZZN12WPEFramework12_GLOBAL__N_115ResolverJsonRpcL19TrimAsciiWhitespaceENSt7__cxx1112basic_stringIcSt11char_traitsIcESaIcEEEENKUlcE_clEc
FNDA:55,_ZN12WPEFramework12_GLOBAL__N_115ResolverJsonRpcL24NormalizeJsonStringValueERKNSt7__cxx1112basic_stringIcSt11char_traitsIcESaIcEEE
FNDA:18,_ZN12WPEFramework12_GLOBAL__N_115ResolverJsonRpcL20ExtractContextFieldsERKNS1_18ResolveRequestDataERKNSt7__cxx1112basic_stringIcSt11char_traitsIcESaIcEEERjSD_RSA_
FNDA:18,_ZZN12WPEFramework12_GLOBAL__N_115ResolverJsonRpcL20ExtractContextFieldsERKNS1_18ResolveRequestDataERKNSt7__cxx1112basic_stringIcSt11char_traitsIcESaIcEEERjSD_RSA_ENKUlvE_clEv
FNDA:14,_ZN12WPEFramework12_GLOBAL__N_115ResolverJsonRpcL25NormalizeParamsToJsonTextERKNS1_18ResolveRequestDataE
FNDA:21,_ZN12WPEFramework12_GLOBAL__N_115ResolverJsonRpcL13InvokeResolveEPNS_8Exchange19IAppGatewayResolverERKNSt7__cxx1112basic_stringIcSt11char_traitsIcESaIcEEERSA_
FNDA:0,_ZN12WPEFramework6Plugin10AppGatewayC1Ev
FNDA:27,_ZN12WPEFramework6Plugin10AppGatewayC2Ev
FNDA:0,_ZN12WPEFramework6Plugin10AppGatewayD0Ev
FNDA:0,_ZN12WPEFramework6Plugin10AppGatewayD1Ev
FNDA:27,_ZN12WPEFramework6Plugin10AppGatewayD2Ev
FNDA:27,_ZN12WPEFramework6Plugin10AppGateway10InitializeB5cxx11EPNS_10PluginHost6IShellE
FNDA:27,_ZZN12WPEFramework6Plugin10AppGateway10InitializeB5cxx11EPNS_10PluginHost6IShellEENKUlvE_clEv
FNDA:21,_ZZN12WPEFramework6Plugin10AppGateway10InitializeB5cxx11EPNS_10PluginHost6IShellEENKUlRKNS_4Core7JSONRPC7ContextERKNSt7__cxx1112basic_stringIcSt11char_traitsIcESaIcEEESH_RSF_E_clES9_SH_SH_SI_
FNDA:27,_ZN12WPEFramework6Plugin10AppGateway12DeinitializeEPNS_10PluginHost6IShellE
FNDA:21,_ZN12WPEFramework12_GLOBAL__N_115ResolverJsonRpc11ContextDataC2Ev
FNDA:0,_ZN12WPEFramework6Plugin10AppGateway11DeactivatedEPNS_3RPC17IRemoteConnectionE
FNDA:21,_ZN12WPEFramework12_GLOBAL__N_115ResolverJsonRpc18ResolveRequestDataC2Ev
FNF:20
FNH:16
DA:49,21
DA:50,21
DA:51,21
DA:52,21
DA:53,42
DA:55,21
DA:56,21
DA:57,21
DA:58,21
DA:67,21
DA:68,21
DA:69,21
DA:70,21
DA:71,21
DA:72,21
DA:73,21
DA:74,21
DA:75,42
DA:80,21
DA:82,21
DA:83,21
DA:84,21
DA:86,21
DA:87,21
DA:90,21
DA:91,21
DA:104,63
DA:106,63
DA:109,124
DA:111,236
DA:112,236
DA:115,124
DA:116,0
DA:118,124
DA:119,0
DA:121,248
DA:124,55
DA:136,55
DA:139,55
DA:140,0
DA:144,55
DA:145,55
DA:147,856
DA:148,801
DA:149,801
DA:150,0
DA:151,0
DA:152,0
DA:153,0
DA:154,0
DA:156,0
DA:157,0
DA:158,0
DA:161,0
DA:162,0
DA:163,0
DA:164,0
DA:165,801
DA:168,110
DA:169,55
DA:171,18
DA:178,30
DA:179,12
DA:181,18
DA:183,35
DA:184,35
DA:185,34
DA:186,18
DA:188,18
DA:189,3
DA:192,15
DA:193,6
DA:194,6
DA:195,6
DA:198,6
DA:199,6
DA:204,9
DA:205,9
DA:206,9
DA:207,9
DA:210,14
DA:213,14
DA:214,0
DA:218,14
DA:219,0
DA:220,0
DA:221,0
DA:223,0
DA:224,0
DA:227,14
DA:228,14
DA:229,0
DA:233,14
DA:234,0
DA:235,0
DA:236,0
DA:240,14
DA:241,14
DA:243,21
DA:247,21
DA:249,21
DA:250,0
DA:253,21
DA:254,21
DA:256,21
DA:257,1
DA:260,20
DA:261,20
DA:263,20
DA:264,1
DA:266,19
DA:267,1
DA:270,18
DA:271,18
DA:272,18
DA:274,18
DA:275,4
DA:279,14
DA:280,0
DA:283,14
DA:285,14
DA:286,14
DA:287,14
DA:288,14
DA:290,14
DA:291,14
DA:292,14
DA:293,14
DA:294,21
DA:319,27
DA:321,27
DA:322,27
DA:323,27
DA:324,27
DA:326,27
DA:327,27
DA:329,27
DA:332,27
DA:333,0
DA:334,0
DA:336,27
DA:337,0
DA:338,0
DA:340,27
DA:341,27
DA:342,27
DA:344,27
DA:347,27
DA:348,0
DA:349,0
DA:351,27
DA:352,0
DA:353,0
DA:354,0
DA:356,0
DA:357,0
DA:359,27
DA:362,27
DA:363,0
DA:364,0
DA:365,0
DA:369,27
DA:371,27
DA:384,54
DA:385,27
DA:386,27
DA:387,27
DA:389,27
DA:390,27
DA:391,27
DA:392,26
DA:393,26
DA:396,0
DA:397,0
DA:398,0
DA:399,0
DA:400,0
DA:401,0
DA:406,27
DA:407,26
DA:408,26
DA:409,26
DA:410,26
DA:412,26
DA:413,52
DA:414,52
DA:419,21
DA:420,0
DA:421,0
DA:423,21
DA:426,1
DA:427,1
DA:430,27
DA:431,27
DA:432,27
DA:433,26
DA:434,26
DA:437,0
DA:438,0
DA:439,0
DA:440,0
DA:441,0
DA:442,0
DA:447,27
DA:448,26
DA:449,26
DA:450,26
DA:451,26
DA:454,1
DA:455,1
DA:459,27
DA:460,1
DA:461,1
DA:462,1
DA:463,1
DA:464,1
DA:466,1
DA:467,1
DA:469,1
DA:470,1
DA:471,52
DA:474,27
DA:476,27
DA:478,27
DA:479,27
DA:481,27
DA:482,26
DA:485,27
DA:486,26
DA:487,26
DA:492,27
DA:495,52
DA:496,78
DA:497,26
DA:500,26
DA:501,26
DA:506,27
DA:507,0
DA:508,0
DA:511,27
DA:519,27
DA:520,27
DA:522,0
DA:524,0
DA:525,0
DA:526,0
DA:527,0
DA:529,0
LF:248
LH:185
end_of_record
TN:
SF:/home/kavia/workspace/code-generation/app-gateway2/plugin/AppGateway/AppGateway.h
FN:52,52,_ZNK12WPEFramework6Plugin10AppGateway11InformationB5cxx11Ev
FN:54,59,_ZN12WPEFramework6Plugin10AppGateway14QueryInterfaceEj
FNDA:0,_ZNK12WPEFramework6Plugin10AppGateway11InformationB5cxx11Ev
FNDA:51,_ZN12WPEFramework6Plugin10AppGateway14QueryInterfaceEj
FNF:2
FNH:1
DA:52,0
DA:54,51
DA:55,51
DA:56,24
DA:57,7
DA:58,5
DA:59,0
LF:7
LH:5
end_of_record
TN:
SF:/home/kavia/workspace/code-generation/app-gateway2/plugin/AppGateway/AppGatewayImplementation.cpp
FN:105,112,_ZNK12WPEFramework6Plugin24RegionalResolutionConfig6Region8GetPathsB5cxx11Ev
FN:115,120,_ZN12WPEFramework6Plugin24RegionalResolutionConfigC2Ev
FN:121,121,_ZN12WPEFramework6Plugin24RegionalResolutionConfigD0Ev
FN:121,121,_ZN12WPEFramework6Plugin24RegionalResolutionConfigD2Ev
FN:123,148,_ZNK12WPEFramework6Plugin24RegionalResolutionConfig18GetPathsForCountryERKNSt7__cxx1112basic_stringIcSt11char_traitsIcESaIcEEE
FN:158,167,_ZN12WPEFramework6Plugin24AppGatewayImplementationC1Ev
FN:158,167,_ZN12WPEFramework6Plugin24AppGatewayImplementationC2Ev
FN:169,221,_ZN12WPEFramework6Plugin24AppGatewayImplementationD0Ev
FN:169,221,_ZN12WPEFramework6Plugin24AppGatewayImplementationD1Ev
FN:169,221,_ZN12WPEFramework6Plugin24AppGatewayImplementationD2Ev
FN:223,253,_ZN12WPEFramework6Plugin24AppGatewayImplementation9ConfigureEPNS_10PluginHost6IShellE
FN:255,359,_ZN12WPEFramework6Plugin24AppGatewayImplementation18InitializeResolverEv
FN:361,399,_ZN12WPEFramework6Plugin24AppGatewayImplementation9ConfigureERKPNS_3RPC13IIteratorTypeINSt7__cxx1112basic_stringIcSt11char_traitsIcESaIcEEELj5EEE
FN:401,430,_ZN12WPEFramework6Plugin24AppGatewayImplementation27InternalResolutionConfigureEOSt6vectorINSt7__cxx1112basic_stringIcSt11char_traitsIcESaIcEEESaIS8_EE
FN:432,436,_ZN12WPEFramework6Plugin24AppGatewayImplementation7ResolveERKNS_8Exchange14GatewayContextERKNSt7__cxx1112basic_stringIcSt11char_traitsIcESaIcEEESD_SD_RSB_
FN:438,465,_ZN12WPEFramework6Plugin24AppGatewayImplementation15InternalResolveERKNS_8Exchange14GatewayContextERKNSt7__cxx1112basic_stringIcSt11char_traitsIcESaIcEEESD_SD_RSB_
FN:467,548,_ZN12WPEFramework6Plugin24AppGatewayImplementation17FetchResolvedDataERKNS_8Exchange14GatewayContextERKNSt7__cxx1112basic_stringIcSt11char_traitsIcESaIcEEESD_SD_RSB_
FN:550,590,_ZN12WPEFramework6Plugin24AppGatewayImplementation13UpdateContextERKNS_8Exchange14GatewayContextERKNSt7__cxx1112basic_stringIcSt11char_traitsIcESaIcEEESD_SD_RKb
FN:592,646,_ZN12WPEFramework6Plugin24AppGatewayImplementation20ProcessComRpcRequestERKNS_8Exchange14GatewayContextERKNSt7__cxx1112basic_stringIcSt11char_traitsIcESaIcEEESD_SD_SD_RSB_
FN:649,673,_ZN12WPEFramework6Plugin24AppGatewayImplementation15PreProcessEventERKNS_8Exchange14GatewayContextERKNSt7__cxx1112basic_stringIcSt11char_traitsIcESaIcEEESD_SD_SD_RSB_
FN:65,70,_ZN12WPEFramework6Plugin24RegionalResolutionConfig6RegionC2Ev
FN:675,714,_ZN12WPEFramework6Plugin24AppGatewayImplementation11HandleEventERKNS_8Exchange14GatewayContextERKNSt7__cxx1112basic_stringIcSt11char_traitsIcESaIcEEESD_SD_b
FN:716,736,_ZN12WPEFramework6Plugin24AppGatewayImplementation20SendToLaunchDelegateERKNS_8Exchange14GatewayContextERKNSt7__cxx1112basic_stringIcSt11char_traitsIcESaIcEEE
FN:72,79,_ZN12WPEFramework6Plugin24RegionalResolutionConfig6RegionC2ERKS2_
FN:738,756,_ZN12WPEFramework6Plugin24AppGatewayImplementation28SetupAppGatewayAuthenticatorEv
FN:759,782,_ZN12WPEFramework6PluginL17ReadJsonStringKeyERKNSt7__cxx1112basic_stringIcSt11char_traitsIcESaIcEEES8_PKc
FN:784,801,_ZN12WPEFramework6Plugin24AppGatewayImplementation25ReadCountryFromConfigFileB5cxx11Ev
FN:88,88,_ZN12WPEFramework6Plugin24RegionalResolutionConfig6RegionD0Ev
FN:88,88,_ZN12WPEFramework6Plugin24RegionalResolutionConfig6RegionD2Ev
FN:93,103,_ZNK12WPEFramework6Plugin24RegionalResolutionConfig6Region14HasCountryCodeERKNSt7__cxx1112basic_stringIcSt11char_traitsIcESaIcEEE
FNDA:0,_ZNK12WPEFramework6Plugin24RegionalResolutionConfig6Region8GetPathsB5cxx11Ev
FNDA:0,_ZN12WPEFramework6Plugin24RegionalResolutionConfigC2Ev
FNDA:0,_ZN12WPEFramework6Plugin24RegionalResolutionConfigD0Ev
FNDA:0,_ZN12WPEFramework6Plugin24RegionalResolutionConfigD2Ev
FNDA:0,_ZNK12WPEFramework6Plugin24RegionalResolutionConfig18GetPathsForCountryERKNSt7__cxx1112basic_stringIcSt11char_traitsIcESaIcEEE
FNDA:0,_ZN12WPEFramework6Plugin24AppGatewayImplementationC1Ev
FNDA:8,_ZN12WPEFramework6Plugin24AppGatewayImplementationC2Ev
FNDA:0,_ZN12WPEFramework6Plugin24AppGatewayImplementationD0Ev
FNDA:0,_ZN12WPEFramework6Plugin24AppGatewayImplementationD1Ev
FNDA:8,_ZN12WPEFramework6Plugin24AppGatewayImplementationD2Ev
FNDA:8,_ZN12WPEFramework6Plugin24AppGatewayImplementation9ConfigureEPNS_10PluginHost6IShellE
FNDA:8,_ZN12WPEFramework6Plugin24AppGatewayImplementation18InitializeResolverEv
FNDA:8,_ZN12WPEFramework6Plugin24AppGatewayImplementation9ConfigureERKPNS_3RPC13IIteratorTypeINSt7__cxx1112basic_stringIcSt11char_traitsIcESaIcEEELj5EEE
FNDA:16,_ZN12WPEFramework6Plugin24AppGatewayImplementation27InternalResolutionConfigureEOSt6vectorINSt7__cxx1112basic_stringIcSt11char_traitsIcESaIcEEESaIS8_EE
FNDA:7,_ZN12WPEFramework6Plugin24AppGatewayImplementation7ResolveERKNS_8Exchange14GatewayContextERKNSt7__cxx1112basic_stringIcSt11char_traitsIcESaIcEEESD_SD_RSB_
FNDA:7,_ZN12WPEFramework6Plugin24AppGatewayImplementation15InternalResolveERKNS_8Exchange14GatewayContextERKNSt7__cxx1112basic_stringIcSt11char_traitsIcESaIcEEESD_SD_RSB_
FNDA:7,_ZN12WPEFramework6Plugin24AppGatewayImplementation17FetchResolvedDataERKNS_8Exchange14GatewayContextERKNSt7__cxx1112basic_stringIcSt11char_traitsIcESaIcEEESD_SD_RSB_
FNDA:2,_ZN12WPEFramework6Plugin24AppGatewayImplementation13UpdateContextERKNS_8Exchange14GatewayContextERKNSt7__cxx1112basic_stringIcSt11char_traitsIcESaIcEEESD_SD_RKb
FNDA:2,_ZN12WPEFramework6Plugin24AppGatewayImplementation20ProcessComRpcRequestERKNS_8Exchange14GatewayContextERKNSt7__cxx1112basic_stringIcSt11char_traitsIcESaIcEEESD_SD_SD_RSB_
FNDA:2,_ZN12WPEFramework6Plugin24AppGatewayImplementation15PreProcessEventERKNS_8Exchange14GatewayContextERKNSt7__cxx1112basic_stringIcSt11char_traitsIcESaIcEEESD_SD_SD_RSB_
FNDA:0,_ZN12WPEFramework6Plugin24RegionalResolutionConfig6RegionC2Ev
FNDA:1,_ZN12WPEFramework6Plugin24AppGatewayImplementation11HandleEventERKNS_8Exchange14GatewayContextERKNSt7__cxx1112basic_stringIcSt11char_traitsIcESaIcEEESD_SD_b
FNDA:0,_ZN12WPEFramework6Plugin24AppGatewayImplementation20SendToLaunchDelegateERKNS_8Exchange14GatewayContextERKNSt7__cxx1112basic_stringIcSt11char_traitsIcESaIcEEE
FNDA:0,_ZN12WPEFramework6Plugin24RegionalResolutionConfig6RegionC2ERKS2_
FNDA:2,_ZN12WPEFramework6Plugin24AppGatewayImplementation28SetupAppGatewayAuthenticatorEv
FNDA:0,_ZN12WPEFramework6PluginL17ReadJsonStringKeyERKNSt7__cxx1112basic_stringIcSt11char_traitsIcESaIcEEES8_PKc
FNDA:0,_ZN12WPEFramework6Plugin24AppGatewayImplementation25ReadCountryFromConfigFileB5cxx11Ev
FNDA:0,_ZN12WPEFramework6Plugin24RegionalResolutionConfig6RegionD0Ev
FNDA:0,_ZN12WPEFramework6Plugin24RegionalResolutionConfig6RegionD2Ev
FNDA:0,_ZNK12WPEFramework6Plugin24RegionalResolutionConfig6Region14HasCountryCodeERKNSt7__cxx1112basic_stringIcSt11char_traitsIcESaIcEEE
FNF:30
FNH:14
DA:65,0
DA:66,0
DA:68,0
DA:69,0
DA:70,0
DA:72,0
DA:73,0
DA:74,0
DA:75,0
DA:77,0
DA:78,0
DA:79,0
DA:88,0
DA:93,0
DA:94,0
DA:95,0
DA:96,0
DA:98,0
DA:99,0
DA:101,0
DA:102,0
DA:105,0
DA:106,0
DA:107,0
DA:108,0
DA:109,0
DA:111,0
DA:112,0
DA:115,0
DA:116,0
DA:118,0
DA:119,0
DA:120,0
DA:121,0
DA:123,0
DA:124,0
DA:127,0
DA:128,0
DA:129,0
DA:130,0
DA:131,0
DA:132,0
DA:133,0
DA:138,0
DA:139,0
DA:140,0
DA:141,0
DA:143,0
DA:145,0
DA:147,0
DA:148,0
DA:158,8
DA:159,8
DA:160,8
DA:161,8
DA:162,8
DA:163,8
DA:164,8
DA:166,8
DA:167,8
DA:169,8
DA:171,8
DA:174,8
DA:180,8
DA:181,8
DA:183,8
DA:184,30
DA:185,7
DA:186,7
DA:191,8
DA:192,8
DA:193,8
DA:196,8
DA:197,1
DA:198,1
DA:201,8
DA:202,0
DA:203,0
DA:206,8
DA:207,8
DA:208,8
DA:211,8
DA:212,2
DA:213,2
DA:217,8
DA:220,8
DA:221,8
DA:223,8
DA:225,8
DA:227,8
DA:228,0
DA:229,0
DA:233,8
DA:234,0
DA:235,0
DA:238,8
DA:239,8
DA:240,8
DA:244,8
DA:245,8
DA:248,8
DA:249,8
DA:250,0
DA:252,8
DA:255,8
DA:258,8
DA:259,0
DA:260,0
DA:261,0
DA:262,0
DA:267,8
DA:268,8
DA:269,8
DA:270,8
DA:271,8
DA:272,24
DA:273,8
DA:275,8
DA:276,8
DA:277,8
DA:280,0
DA:282,8
DA:283,0
DA:285,8
DA:288,0
DA:289,0
DA:290,0
DA:292,0
DA:296,0
DA:297,0
DA:298,0
DA:300,0
DA:302,0
DA:305,0
DA:306,0
DA:308,0
DA:309,0
DA:310,0
DA:311,0
DA:313,0
DA:314,0
DA:317,0
DA:318,0
DA:320,0
DA:322,0
DA:324,0
DA:325,0
DA:326,0
DA:327,0
DA:328,0
DA:329,0
DA:331,0
DA:332,0
DA:335,0
DA:336,0
DA:337,0
DA:341,0
DA:343,0
DA:344,0
DA:347,0
DA:348,0
DA:351,0
DA:352,0
DA:353,0
DA:354,0
DA:355,0
DA:358,0
DA:359,24
DA:361,8
DA:363,8
DA:365,8
DA:367,0
DA:368,0
DA:371,8
DA:373,0
DA:374,0
DA:380,8
DA:383,8
DA:384,18
DA:386,10
DA:387,10
DA:390,8
DA:392,0
DA:393,0
DA:396,8
DA:397,8
DA:399,8
DA:401,16
DA:403,16
DA:404,34
DA:406,18
DA:407,18
DA:409,18
DA:411,17
DA:412,17
DA:416,1
DA:421,16
DA:423,1
DA:424,1
DA:427,15
DA:428,15
DA:432,7
DA:434,7
DA:435,7
DA:438,7
DA:440,7
DA:441,7
DA:442,7
DA:444,7
DA:449,7
DA:450,7
DA:451,7
DA:453,0
DA:457,0
DA:458,0
DA:460,0
DA:464,7
DA:467,7
DA:468,7
DA:469,7
DA:471,7
DA:473,0
DA:474,0
DA:475,0
DA:479,7
DA:481,0
DA:482,0
DA:483,0
DA:489,7
DA:490,0
DA:491,0
DA:496,7
DA:499,7
DA:501,7
DA:503,1
DA:504,1
DA:505,1
DA:508,6
DA:509,6
DA:510,2
DA:511,2
DA:512,2
DA:513,2
DA:514,0
DA:515,0
DA:516,1
DA:518,2
DA:519,1
DA:520,1
DA:521,1
DA:525,5
DA:528,5
DA:529,2
DA:530,3
DA:531,2
DA:534,1
DA:535,1
DA:537,1
DA:538,1
DA:539,0
DA:540,0
DA:542,1
DA:543,0
DA:546,1
DA:547,5
DA:548,7
DA:550,2
DA:552,2
DA:554,2
DA:555,2
DA:556,2
DA:559,2
DA:560,2
DA:561,2
DA:563,0
DA:564,0
DA:569,2
DA:570,1
DA:571,1
DA:572,1
DA:573,1
DA:574,1
DA:575,1
DA:576,1
DA:577,1
DA:578,0
DA:581,1
DA:582,1
DA:583,1
DA:584,1
DA:585,1
DA:586,1
DA:587,1
DA:588,2
DA:589,4
DA:590,2
DA:592,2
DA:601,2
DA:602,2
DA:603,1
DA:604,1
DA:605,1
DA:608,1
DA:609,0
DA:610,0
DA:611,0
DA:614,1
DA:615,0
DA:616,0
DA:617,0
DA:620,1
DA:622,1
DA:623,1
DA:624,1
DA:626,1
DA:627,1
DA:628,0
DA:629,0
DA:630,0
DA:632,0
DA:634,1
DA:637,1
DA:638,1
DA:640,0
DA:641,0
DA:642,0
DA:645,1
DA:649,2
DA:651,2
DA:652,2
DA:655,2
DA:656,1
DA:657,1
DA:658,1
DA:659,1
DA:660,1
DA:661,1
DA:662,1
DA:663,1
DA:664,0
DA:665,0
DA:666,0
DA:669,1
DA:670,1
DA:671,1
DA:673,2
DA:675,1
DA:676,1
DA:677,0
DA:678,0
DA:681,1
DA:682,0
DA:683,0
DA:689,1
DA:690,2
DA:691,1
DA:692,0
DA:693,0
DA:697,1
DA:698,1
DA:699,1
DA:700,1
DA:701,1
DA:704,1
DA:705,1
DA:706,1
DA:707,1
DA:708,1
DA:710,1
DA:711,1
DA:713,2
DA:714,1
DA:716,0
DA:718,0
DA:719,0
DA:722,0
DA:723,0
DA:724,0
DA:727,0
DA:728,0
DA:729,0
DA:730,0
DA:731,0
DA:735,0
DA:738,2
DA:739,2
DA:740,0
DA:743,2
DA:744,0
DA:745,0
DA:748,2
DA:749,4
DA:750,2
DA:751,0
DA:752,0
DA:755,2
DA:759,0
DA:760,0
DA:761,0
DA:763,0
DA:764,0
DA:765,0
DA:766,0
DA:768,0
DA:769,0
DA:770,0
DA:771,0
DA:772,0
DA:773,0
DA:775,0
DA:776,0
DA:777,0
DA:779,0
DA:780,0
DA:781,0
DA:782,0
DA:784,0
DA:787,0
DA:788,0
LF:419
LH:224
end_of_record
TN:
SF:/home/kavia/workspace/code-generation/app-gateway2/plugin/AppGateway/AppGatewayImplementation.h
FN:101,119,_ZN12WPEFramework6Plugin24AppGatewayImplementation10RespondJobC2EPS1_RKNS_8Exchange14GatewayContextERKNSt7__cxx1112basic_stringIcSt11char_traitsIcESaIcEEESF_
FN:121,121,_ZN12WPEFramework6Plugin24AppGatewayImplementation10RespondJobD0Ev
FN:121,121,_ZN12WPEFramework6Plugin24AppGatewayImplementation10RespondJobD2Ev
FN:124,131,_ZN12WPEFramework6Plugin24AppGatewayImplementation10RespondJob6CreateEPS1_RKNS_8Exchange14GatewayContextERKNSt7__cxx1112basic_stringIcSt11char_traitsIcESaIcEEESF_
FN:133,149,_ZN12WPEFramework6Plugin24AppGatewayImplementation10RespondJob8DispatchEv
FN:164,185,_ZN12WPEFramework6Plugin24AppGatewayImplementation21ReturnMessageInSocketERKNS_8Exchange14GatewayContextENSt7__cxx1112basic_stringIcSt11char_traitsIcESaIcEEE
FN:48,51,_ZN12WPEFramework6Plugin24AppGatewayImplementation14QueryInterfaceEj
FN:71,76,_ZN12WPEFramework6Plugin24AppGatewayImplementation10JobTrackerC2ERSt6atomicIjE
FN:80,85,_ZN12WPEFramework6Plugin24AppGatewayImplementation10JobTrackerD2Ev
FNDA:7,_ZN12WPEFramework6Plugin24AppGatewayImplementation10RespondJobC2EPS1_RKNS_8Exchange14GatewayContextERKNSt7__cxx1112basic_stringIcSt11char_traitsIcESaIcEEESF_
FNDA:0,_ZN12WPEFramework6Plugin24AppGatewayImplementation10RespondJobD0Ev
FNDA:7,_ZN12WPEFramework6Plugin24AppGatewayImplementation10RespondJobD2Ev
FNDA:7,_ZN12WPEFramework6Plugin24AppGatewayImplementation10RespondJob6CreateEPS1_RKNS_8Exchange14GatewayContextERKNSt7__cxx1112basic_stringIcSt11char_traitsIcESaIcEEESF_
FNDA:7,_ZN12WPEFramework6Plugin24AppGatewayImplementation10RespondJob8DispatchEv
FNDA:2,_ZN12WPEFramework6Plugin24AppGatewayImplementation21ReturnMessageInSocketERKNS_8Exchange14GatewayContextENSt7__cxx1112basic_stringIcSt11char_traitsIcESaIcEEE
FNDA:16,_ZN12WPEFramework6Plugin24AppGatewayImplementation14QueryInterfaceEj
FNDA:7,_ZN12WPEFramework6Plugin24AppGatewayImplementation10JobTrackerC2ERSt6atomicIjE
FNDA:7,_ZN12WPEFramework6Plugin24AppGatewayImplementation10JobTrackerD2Ev
FNF:9
FNH:8
DA:48,16
DA:49,16
DA:50,8
DA:51,0
DA:71,7
DA:72,7
DA:73,7
DA:75,7
DA:76,7
DA:80,7
DA:82,7
DA:83,7
DA:85,7
DA:101,7
DA:105,14
DA:106,7
DA:107,7
DA:108,7
DA:109,14
DA:119,7
DA:121,7
DA:124,7
DA:130,7
DA:133,7
DA:135,7
DA:136,0
DA:140,7
DA:141,5
DA:144,2
DA:145,2
DA:147,0
DA:164,2
DA:168,2
DA:169,0
DA:170,0
DA:173,2
DA:174,0
DA:177,2
DA:178,0
DA:179,0
DA:182,2
DA:183,0
LF:42
LH:33
end_of_record
TN:
SF:/home/kavia/workspace/code-generation/app-gateway2/plugin/AppGateway/AppGatewayResponderImplementation.cpp
FN:122,125,_ZZN12WPEFramework6Plugin33AppGatewayResponderImplementation19InitializeWebsocketEvENKUlRKNSt7__cxx1112basic_stringIcSt11char_traitsIcESaIcEEES9_ijE_clES9_S9_ij
FN:128,166,_ZZN12WPEFramework6Plugin33AppGatewayResponderImplementation19InitializeWebsocketEvENKUljRKNSt7__cxx1112basic_stringIcSt11char_traitsIcESaIcEEEE_clEjS9_
FN:169,196,_ZZN12WPEFramework6Plugin33AppGatewayResponderImplementation19InitializeWebsocketEvENKUljE_clEj
FN:202,206,_ZN12WPEFramework6Plugin33AppGatewayResponderImplementation7RespondERKNS_8Exchange14GatewayContextERKNSt7__cxx1112basic_stringIcSt11char_traitsIcESaIcEEE
FN:208,212,_ZN12WPEFramework6Plugin33AppGatewayResponderImplementation4EmitERKNS_8Exchange14GatewayContextERKNSt7__cxx1112basic_stringIcSt11char_traitsIcESaIcEEESD_
FN:214,218,_ZN12WPEFramework6Plugin33AppGatewayResponderImplementation7RequestEjjRKNSt7__cxx1112basic_stringIcSt11char_traitsIcESaIcEEES9_
FN:220,274,_ZN12WPEFramework6Plugin33AppGatewayResponderImplementation27GetGatewayConnectionContextEjRKNSt7__cxx1112basic_stringIcSt11char_traitsIcESaIcEEERS7_
FN:277,315,_ZN12WPEFramework6Plugin33AppGatewayResponderImplementation13DispatchWsMsgERKNSt7__cxx1112basic_stringIcSt11char_traitsIcESaIcEEES9_jj
FN:318,333,_ZN12WPEFramework6Plugin33AppGatewayResponderImplementation8RegisterEPNS_8Exchange20IAppGatewayResponder13INotificationE
FN:335,358,_ZN12WPEFramework6Plugin33AppGatewayResponderImplementation10UnregisterEPNS_8Exchange20IAppGatewayResponder13INotificationE
FN:360,372,_ZN12WPEFramework6Plugin33AppGatewayResponderImplementation25OnConnectionStatusChangedERKNSt7__cxx1112basic_stringIcSt11char_traitsIcESaIcEEEjb
FN:41,57,_ZN12WPEFramework6Plugin33AppGatewayResponderImplementationC1Ev
FN:41,57,_ZN12WPEFramework6Plugin33AppGatewayResponderImplementationC2Ev
FN:59,80,_ZN12WPEFramework6Plugin33AppGatewayResponderImplementationD0Ev
FN:59,80,_ZN12WPEFramework6Plugin33AppGatewayResponderImplementationD1Ev
FN:59,80,_ZN12WPEFramework6Plugin33AppGatewayResponderImplementationD2Ev
FN:82,92,_ZN12WPEFramework6Plugin33AppGatewayResponderImplementation9ConfigureEPNS_10PluginHost6IShellE
FN:94,200,_ZN12WPEFramework6Plugin33AppGatewayResponderImplementation19InitializeWebsocketEv
FNDA:0,_ZZN12WPEFramework6Plugin33AppGatewayResponderImplementation19InitializeWebsocketEvENKUlRKNSt7__cxx1112basic_stringIcSt11char_traitsIcESaIcEEES9_ijE_clES9_S9_ij
FNDA:0,_ZZN12WPEFramework6Plugin33AppGatewayResponderImplementation19InitializeWebsocketEvENKUljRKNSt7__cxx1112basic_stringIcSt11char_traitsIcESaIcEEEE_clEjS9_
FNDA:0,_ZZN12WPEFramework6Plugin33AppGatewayResponderImplementation19InitializeWebsocketEvENKUljE_clEj
FNDA:0,_ZN12WPEFramework6Plugin33AppGatewayResponderImplementation7RespondERKNS_8Exchange14GatewayContextERKNSt7__cxx1112basic_stringIcSt11char_traitsIcESaIcEEE
FNDA:0,_ZN12WPEFramework6Plugin33AppGatewayResponderImplementation4EmitERKNS_8Exchange14GatewayContextERKNSt7__cxx1112basic_stringIcSt11char_traitsIcESaIcEEESD_
FNDA:0,_ZN12WPEFramework6Plugin33AppGatewayResponderImplementation7RequestEjjRKNSt7__cxx1112basic_stringIcSt11char_traitsIcESaIcEEES9_
FNDA:4,_ZN12WPEFramework6Plugin33AppGatewayResponderImplementation27GetGatewayConnectionContextEjRKNSt7__cxx1112basic_stringIcSt11char_traitsIcESaIcEEERS7_
FNDA:0,_ZN12WPEFramework6Plugin33AppGatewayResponderImplementation13DispatchWsMsgERKNSt7__cxx1112basic_stringIcSt11char_traitsIcESaIcEEES9_jj
FNDA:1,_ZN12WPEFramework6Plugin33AppGatewayResponderImplementation8RegisterEPNS_8Exchange20IAppGatewayResponder13INotificationE
FNDA:2,_ZN12WPEFramework6Plugin33AppGatewayResponderImplementation10UnregisterEPNS_8Exchange20IAppGatewayResponder13INotificationE
FNDA:2,_ZN12WPEFramework6Plugin33AppGatewayResponderImplementation25OnConnectionStatusChangedERKNSt7__cxx1112basic_stringIcSt11char_traitsIcESaIcEEEjb
FNDA:0,_ZN12WPEFramework6Plugin33AppGatewayResponderImplementationC1Ev
FNDA:2,_ZN12WPEFramework6Plugin33AppGatewayResponderImplementationC2Ev
FNDA:0,_ZN12WPEFramework6Plugin33AppGatewayResponderImplementationD0Ev
FNDA:0,_ZN12WPEFramework6Plugin33AppGatewayResponderImplementationD1Ev
FNDA:2,_ZN12WPEFramework6Plugin33AppGatewayResponderImplementationD2Ev
FNDA:0,_ZN12WPEFramework6Plugin33AppGatewayResponderImplementation9ConfigureEPNS_10PluginHost6IShellE
FNDA:0,_ZN12WPEFramework6Plugin33AppGatewayResponderImplementation19InitializeWebsocketEv
FNF:18
FNH:6
DA:41,2
DA:42,2
DA:43,2
DA:44,2
DA:45,2
DA:46,2
DA:47,4
DA:49,2
DA:57,2
DA:59,2
DA:61,2
DA:62,2
DA:64,0
DA:65,0
DA:68,2
DA:70,0
DA:71,0
DA:74,2
DA:76,0
DA:77,0
DA:80,2
DA:82,0
DA:84,0
DA:85,0
DA:86,0
DA:87,0
DA:88,0
DA:89,0
DA:91,0
DA:94,0
DA:96,0
DA:97,0
DA:105,0
DA:106,0
DA:107,0
DA:108,0
DA:113,0
DA:114,0
DA:118,0
DA:119,0
DA:120,0
DA:121,0
DA:122,0
DA:124,0
DA:125,0
DA:127,0
DA:128,0
DA:130,0
DA:131,0
DA:133,0
DA:134,0
DA:137,0
DA:138,0
DA:139,0
DA:140,0
DA:141,0
DA:145,0
DA:146,0
DA:147,0
DA:148,0
DA:160,0
DA:162,0
DA:165,0
DA:166,0
DA:168,0
DA:169,0
DA:171,0
DA:172,0
DA:173,0
DA:174,0
DA:176,0
DA:177,0
DA:180,0
DA:181,0
DA:182,0
DA:185,0
DA:186,0
DA:187,0
DA:189,0
DA:190,0
DA:192,0
DA:193,0
DA:194,0
DA:195,0
DA:196,0
DA:198,0
DA:199,0
DA:200,0
DA:202,0
DA:204,0
DA:205,0
DA:208,0
DA:210,0
DA:211,0
DA:214,0
DA:216,0
DA:217,0
DA:220,4
DA:227,4
DA:229,4
DA:230,1
DA:239,3
DA:240,3
DA:241,3
DA:243,3
DA:244,3
DA:245,6
DA:246,0
DA:248,3
DA:250,3
DA:251,3
DA:252,0
DA:255,3
DA:256,3
DA:257,1
DA:259,2
DA:260,1
DA:263,1
DA:264,1
DA:265,1
DA:267,0
DA:273,0
DA:277,0
DA:282,0
DA:283,0
DA:285,0
DA:287,0
DA:288,0
DA:296,0
DA:298,0
DA:299,0
DA:302,0
DA:303,0
DA:304,0
DA:307,0
DA:308,0
DA:309,0
DA:311,0
DA:312,0
DA:313,0
DA:315,0
DA:318,1
DA:320,1
DA:322,1
DA:325,1
DA:327,1
DA:328,1
DA:329,1
DA:332,1
DA:333,1
DA:335,2
DA:337,2
DA:339,2
DA:341,2
DA:344,2
DA:345,2
DA:347,1
DA:348,1
DA:349,1
DA:350,1
DA:354,1
DA:357,2
DA:358,2
DA:360,2
DA:362,2
DA:363,3
DA:365,1
DA:372,2
LF:168
LH:63
end_of_record
TN:
SF:/home/kavia/workspace/code-generation/app-gateway2/plugin/AppGateway/AppGatewayResponderImplementation.h
FN:113,120,_ZN12WPEFramework6Plugin33AppGatewayResponderImplementation10RespondJobC2EPS1_jjRKNSt7__cxx1112basic_stringIcSt11char_traitsIcESaIcEEE
FN:126,128,_ZN12WPEFramework6Plugin33AppGatewayResponderImplementation10RespondJobD0Ev
FN:126,128,_ZN12WPEFramework6Plugin33AppGatewayResponderImplementation10RespondJobD2Ev
FN:131,135,_ZN12WPEFramework6Plugin33AppGatewayResponderImplementation10RespondJob6CreateEPS1_jjRKNSt7__cxx1112basic_stringIcSt11char_traitsIcESaIcEEE
FN:136,139,_ZN12WPEFramework6Plugin33AppGatewayResponderImplementation10RespondJob8DispatchEv
FN:151,158,_ZN12WPEFramework6Plugin33AppGatewayResponderImplementation7EmitJobC2EPS1_jRKNSt7__cxx1112basic_stringIcSt11char_traitsIcESaIcEEESB_
FN:164,166,_ZN12WPEFramework6Plugin33AppGatewayResponderImplementation7EmitJobD0Ev
FN:164,166,_ZN12WPEFramework6Plugin33AppGatewayResponderImplementation7EmitJobD2Ev
FN:169,173,_ZN12WPEFramework6Plugin33AppGatewayResponderImplementation7EmitJob6CreateEPS1_jRKNSt7__cxx1112basic_stringIcSt11char_traitsIcESaIcEEESB_
FN:174,177,_ZN12WPEFramework6Plugin33AppGatewayResponderImplementation7EmitJob8DispatchEv
FN:189,197,_ZN12WPEFramework6Plugin33AppGatewayResponderImplementation10RequestJobC2EPS1_jjRKNSt7__cxx1112basic_stringIcSt11char_traitsIcESaIcEEESB_
FN:203,205,_ZN12WPEFramework6Plugin33AppGatewayResponderImplementation10RequestJobD0Ev
FN:203,205,_ZN12WPEFramework6Plugin33AppGatewayResponderImplementation10RequestJobD2Ev
FN:208,212,_ZN12WPEFramework6Plugin33AppGatewayResponderImplementation10RequestJob6CreateEPS1_jjRKNSt7__cxx1112basic_stringIcSt11char_traitsIcESaIcEEESB_
FN:213,216,_ZN12WPEFramework6Plugin33AppGatewayResponderImplementation10RequestJob8DispatchEv
FN:229,236,_ZN12WPEFramework6Plugin33AppGatewayResponderImplementation31ConnectionStatusNotificationJobC2EPS1_jRKNSt7__cxx1112basic_stringIcSt11char_traitsIcESaIcEEEb
FN:242,244,_ZN12WPEFramework6Plugin33AppGatewayResponderImplementation31ConnectionStatusNotificationJobD0Ev
FN:242,244,_ZN12WPEFramework6Plugin33AppGatewayResponderImplementation31ConnectionStatusNotificationJobD2Ev
FN:247,251,_ZN12WPEFramework6Plugin33AppGatewayResponderImplementation31ConnectionStatusNotificationJob6CreateEPS1_jRKNSt7__cxx1112basic_stringIcSt11char_traitsIcESaIcEEEb
FN:252,255,_ZN12WPEFramework6Plugin33AppGatewayResponderImplementation31ConnectionStatusNotificationJob8DispatchEv
FN:267,270,_ZN12WPEFramework6Plugin33AppGatewayResponderImplementation13AppIdRegistry3AddEjRKNSt7__cxx1112basic_stringIcSt11char_traitsIcESaIcEEE
FN:272,275,_ZN12WPEFramework6Plugin33AppGatewayResponderImplementation13AppIdRegistry6RemoveEj
FN:277,285,_ZN12WPEFramework6Plugin33AppGatewayResponderImplementation13AppIdRegistry3GetEjRNSt7__cxx1112basic_stringIcSt11char_traitsIcESaIcEEE
FN:299,307,_ZN12WPEFramework6Plugin33AppGatewayResponderImplementation21ReturnMessageInSocketEjiNSt7__cxx1112basic_stringIcSt11char_traitsIcESaIcEEE
FN:46,49,_ZN12WPEFramework6Plugin33AppGatewayResponderImplementation14QueryInterfaceEj
FN:73,80,_ZN12WPEFramework6Plugin33AppGatewayResponderImplementation8WsMsgJobC2EPS1_RKNSt7__cxx1112basic_stringIcSt11char_traitsIcESaIcEEESB_jj
FN:86,88,_ZN12WPEFramework6Plugin33AppGatewayResponderImplementation8WsMsgJobD0Ev
FN:86,88,_ZN12WPEFramework6Plugin33AppGatewayResponderImplementation8WsMsgJobD2Ev
FN:91,96,_ZN12WPEFramework6Plugin33AppGatewayResponderImplementation8WsMsgJob6CreateEPS1_RKNSt7__cxx1112basic_stringIcSt11char_traitsIcESaIcEEESB_jj
FN:97,100,_ZN12WPEFramework6Plugin33AppGatewayResponderImplementation8WsMsgJob8DispatchEv
FNDA:0,_ZN12WPEFramework6Plugin33AppGatewayResponderImplementation10RespondJobC2EPS1_jjRKNSt7__cxx1112basic_stringIcSt11char_traitsIcESaIcEEE
FNDA:0,_ZN12WPEFramework6Plugin33AppGatewayResponderImplementation10RespondJobD0Ev
FNDA:0,_ZN12WPEFramework6Plugin33AppGatewayResponderImplementation10RespondJobD2Ev
FNDA:0,_ZN12WPEFramework6Plugin33AppGatewayResponderImplementation10RespondJob6CreateEPS1_jjRKNSt7__cxx1112basic_stringIcSt11char_traitsIcESaIcEEE
FNDA:0,_ZN12WPEFramework6Plugin33AppGatewayResponderImplementation10RespondJob8DispatchEv
FNDA:0,_ZN12WPEFramework6Plugin33AppGatewayResponderImplementation7EmitJobC2EPS1_jRKNSt7__cxx1112basic_stringIcSt11char_traitsIcESaIcEEESB_
FNDA:0,_ZN12WPEFramework6Plugin33AppGatewayResponderImplementation7EmitJobD0Ev
FNDA:0,_ZN12WPEFramework6Plugin33AppGatewayResponderImplementation7EmitJobD2Ev
FNDA:0,_ZN12WPEFramework6Plugin33AppGatewayResponderImplementation7EmitJob6CreateEPS1_jRKNSt7__cxx1112basic_stringIcSt11char_traitsIcESaIcEEESB_
FNDA:0,_ZN12WPEFramework6Plugin33AppGatewayResponderImplementation7EmitJob8DispatchEv
FNDA:0,_ZN12WPEFramework6Plugin33AppGatewayResponderImplementation10RequestJobC2EPS1_jjRKNSt7__cxx1112basic_stringIcSt11char_traitsIcESaIcEEESB_
FNDA:0,_ZN12WPEFramework6Plugin33AppGatewayResponderImplementation10RequestJobD0Ev
FNDA:0,_ZN12WPEFramework6Plugin33AppGatewayResponderImplementation10RequestJobD2Ev
FNDA:0,_ZN12WPEFramework6Plugin33AppGatewayResponderImplementation10RequestJob6CreateEPS1_jjRKNSt7__cxx1112basic_stringIcSt11char_traitsIcESaIcEEESB_
FNDA:0,_ZN12WPEFramework6Plugin33AppGatewayResponderImplementation10RequestJob8DispatchEv
FNDA:0,_ZN12WPEFramework6Plugin33AppGatewayResponderImplementation31ConnectionStatusNotificationJobC2EPS1_jRKNSt7__cxx1112basic_stringIcSt11char_traitsIcESaIcEEEb
FNDA:0,_ZN12WPEFramework6Plugin33AppGatewayResponderImplementation31ConnectionStatusNotificationJobD0Ev
FNDA:0,_ZN12WPEFramework6Plugin33AppGatewayResponderImplementation31ConnectionStatusNotificationJobD2Ev
FNDA:0,_ZN12WPEFramework6Plugin33AppGatewayResponderImplementation31ConnectionStatusNotificationJob6CreateEPS1_jRKNSt7__cxx1112basic_stringIcSt11char_traitsIcESaIcEEEb
FNDA:0,_ZN12WPEFramework6Plugin33AppGatewayResponderImplementation31ConnectionStatusNotificationJob8DispatchEv
FNDA:0,_ZN12WPEFramework6Plugin33AppGatewayResponderImplementation13AppIdRegistry3AddEjRKNSt7__cxx1112basic_stringIcSt11char_traitsIcESaIcEEE
FNDA:0,_ZN12WPEFramework6Plugin33AppGatewayResponderImplementation13AppIdRegistry6RemoveEj
FNDA:0,_ZN12WPEFramework6Plugin33AppGatewayResponderImplementation13AppIdRegistry3GetEjRNSt7__cxx1112basic_stringIcSt11char_traitsIcESaIcEEE
FNDA:0,_ZN12WPEFramework6Plugin33AppGatewayResponderImplementation21ReturnMessageInSocketEjiNSt7__cxx1112basic_stringIcSt11char_traitsIcESaIcEEE
FNDA:0,_ZN12WPEFramework6Plugin33AppGatewayResponderImplementation14QueryInterfaceEj
FNDA:0,_ZN12WPEFramework6Plugin33AppGatewayResponderImplementation8WsMsgJobC2EPS1_RKNSt7__cxx1112basic_stringIcSt11char_traitsIcESaIcEEESB_jj
FNDA:0,_ZN12WPEFramework6Plugin33AppGatewayResponderImplementation8WsMsgJobD0Ev
FNDA:0,_ZN12WPEFramework6Plugin33AppGatewayResponderImplementation8WsMsgJobD2Ev
FNDA:0,_ZN12WPEFramework6Plugin33AppGatewayResponderImplementation8WsMsgJob6CreateEPS1_RKNSt7__cxx1112basic_stringIcSt11char_traitsIcESaIcEEESB_jj
FNDA:0,_ZN12WPEFramework6Plugin33AppGatewayResponderImplementation8WsMsgJob8DispatchEv
FNF:30
FNH:0
DA:46,0
DA:47,0
DA:48,0
DA:49,0
DA:73,0
DA:78,0
DA:80,0
DA:86,0
DA:87,0
DA:88,0
DA:91,0
DA:95,0
DA:97,0
DA:99,0
DA:100,0
DA:113,0
DA:118,0
DA:120,0
DA:126,0
DA:127,0
DA:128,0
DA:131,0
DA:134,0
DA:136,0
DA:138,0
DA:139,0
DA:151,0
DA:156,0
DA:158,0
DA:164,0
DA:165,0
DA:166,0
DA:169,0
DA:172,0
DA:174,0
DA:176,0
DA:177,0
DA:189,0
DA:195,0
DA:197,0
DA:203,0
DA:204,0
DA:205,0
DA:208,0
DA:211,0
DA:213,0
DA:215,0
DA:216,0
DA:229,0
DA:234,0
DA:236,0
DA:242,0
DA:243,0
DA:244,0
DA:247,0
DA:250,0
DA:252,0
DA:254,0
DA:255,0
DA:267,0
DA:268,0
DA:269,0
DA:270,0
DA:272,0
DA:273,0
DA:274,0
DA:275,0
DA:277,0
DA:278,0
DA:279,0
DA:280,0
DA:281,0
DA:282,0
DA:284,0
DA:285,0
DA:299,0
DA:300,0
DA:301,0
DA:306,0
DA:307,0
LF:80
LH:0
end_of_record
TN:
SF:/home/kavia/workspace/code-generation/app-gateway2/plugin/AppGateway/Module.cpp
FN:22,22,ModuleBuildRef
FN:22,22,ModuleServiceMetadata
FNDA:0,ModuleBuildRef
FNDA:0,ModuleServiceMetadata
FNF:2
FNH:0
DA:22,0
LF:1
LH:0
end_of_record
TN:
SF:/home/kavia/workspace/code-generation/app-gateway2/plugin/AppGateway/Resolver.cpp
FN:137,142,_ZN12WPEFramework6Plugin8Resolver16ClearResolutionsEv
FN:144,148,_ZN12WPEFramework6Plugin8Resolver12IsConfiguredEv
FN:150,159,_ZN12WPEFramework6Plugin8Resolver12ResolveAliasERKNSt7__cxx1112basic_stringIcSt11char_traitsIcESaIcEEE
FN:161,177,_ZN12WPEFramework6Plugin8Resolver10ParseAliasERKNSt7__cxx1112basic_stringIcSt11char_traitsIcESaIcEEERS7_SA_
FN:179,226,_ZN12WPEFramework6Plugin8Resolver18ExtractStringFieldB5cxx11ERKNS_4Core4JSON16VariantContainerEPKc
FN:192,203,_ZZN12WPEFramework6Plugin8Resolver18ExtractStringFieldB5cxx11ERKNS_4Core4JSON16VariantContainerEPKcENKUlNSt7__cxx1112basic_stringIcSt11char_traitsIcESaIcEEEE_clESE_
FN:193,195,_ZZZN12WPEFramework6Plugin8Resolver18ExtractStringFieldB5cxx11ERKNS_4Core4JSON16VariantContainerEPKcENKUlNSt7__cxx1112basic_stringIcSt11char_traitsIcESaIcEEEE_clESE_ENKUlcE_clEc
FN:228,235,_ZN12WPEFramework6Plugin8Resolver19ExtractBooleanFieldERKNS_4Core4JSON16VariantContainerEPKcb
FN:237,240,_ZN12WPEFramework6Plugin8Resolver24ExtractAdditionalContextERNS_4Core4JSON16VariantContainerEPKc
FN:242,303,_ZN12WPEFramework6Plugin8Resolver17CallThunderPluginERKNSt7__cxx1112basic_stringIcSt11char_traitsIcESaIcEEES9_RS7_
FN:305,314,_ZN12WPEFramework6Plugin8Resolver8HasEventERKNSt7__cxx1112basic_stringIcSt11char_traitsIcESaIcEEE
FN:316,328,_ZN12WPEFramework6Plugin8Resolver17HasIncludeContextERKNSt7__cxx1112basic_stringIcSt11char_traitsIcESaIcEEERNS_4Core4JSON7VariantE
FN:33,49,_ZN12WPEFramework6Plugin8ResolverC2EPNS_10PluginHost6IShellE
FN:330,339,_ZN12WPEFramework6Plugin8Resolver23HasComRpcRequestSupportERKNSt7__cxx1112basic_stringIcSt11char_traitsIcESaIcEEE
FN:341,351,_ZN12WPEFramework6Plugin8Resolver18HasPermissionGroupERKNSt7__cxx1112basic_stringIcSt11char_traitsIcESaIcEEERS7_
FN:51,58,_ZN12WPEFramework6Plugin8ResolverD2Ev
FN:60,135,_ZN12WPEFramework6Plugin8Resolver10LoadConfigERKNSt7__cxx1112basic_stringIcSt11char_traitsIcESaIcEEE
FNDA:0,_ZN12WPEFramework6Plugin8Resolver16ClearResolutionsEv
FNDA:7,_ZN12WPEFramework6Plugin8Resolver12IsConfiguredEv
FNDA:8,_ZN12WPEFramework6Plugin8Resolver12ResolveAliasERKNSt7__cxx1112basic_stringIcSt11char_traitsIcESaIcEEE
FNDA:0,_ZN12WPEFramework6Plugin8Resolver10ParseAliasERKNSt7__cxx1112basic_stringIcSt11char_traitsIcESaIcEEERS7_SA_
FNDA:3081,_ZN12WPEFramework6Plugin8Resolver18ExtractStringFieldB5cxx11ERKNS_4Core4JSON16VariantContainerEPKc
FNDA:4761,_ZZN12WPEFramework6Plugin8Resolver18ExtractStringFieldB5cxx11ERKNS_4Core4JSON16VariantContainerEPKcENKUlNSt7__cxx1112basic_stringIcSt11char_traitsIcESaIcEEEE_clESE_
FNDA:9522,_ZZZN12WPEFramework6Plugin8Resolver18ExtractStringFieldB5cxx11ERKNS_4Core4JSON16VariantContainerEPKcENKUlNSt7__cxx1112basic_stringIcSt11char_traitsIcESaIcEEEE_clESE_ENKUlcE_clEc
FNDA:2054,_ZN12WPEFramework6Plugin8Resolver19ExtractBooleanFieldERKNS_4Core4JSON16VariantContainerEPKcb
FNDA:1027,_ZN12WPEFramework6Plugin8Resolver24ExtractAdditionalContextERNS_4Core4JSON16VariantContainerEPKc
FNDA:1,_ZN12WPEFramework6Plugin8Resolver17CallThunderPluginERKNSt7__cxx1112basic_stringIcSt11char_traitsIcESaIcEEES9_RS7_
FNDA:5,_ZN12WPEFramework6Plugin8Resolver8HasEventERKNSt7__cxx1112basic_stringIcSt11char_traitsIcESaIcEEE
FNDA:2,_ZN12WPEFramework6Plugin8Resolver17HasIncludeContextERKNSt7__cxx1112basic_stringIcSt11char_traitsIcESaIcEEERNS_4Core4JSON7VariantE
FNDA:9,_ZN12WPEFramework6Plugin8ResolverC2EPNS_10PluginHost6IShellE
FNDA:3,_ZN12WPEFramework6Plugin8Resolver23HasComRpcRequestSupportERKNSt7__cxx1112basic_stringIcSt11char_traitsIcESaIcEEE
FNDA:6,_ZN12WPEFramework6Plugin8Resolver18HasPermissionGroupERKNSt7__cxx1112basic_stringIcSt11char_traitsIcESaIcEEERS7_
FNDA:9,_ZN12WPEFramework6Plugin8ResolverD2Ev
FNDA:20,_ZN12WPEFramework6Plugin8Resolver10LoadConfigERKNSt7__cxx1112basic_stringIcSt11char_traitsIcESaIcEEE
FNF:17
FNH:15
DA:33,9
DA:34,9
DA:35,9
DA:36,9
DA:38,9
DA:46,9
DA:47,8
DA:49,9
DA:51,9
DA:53,9
DA:54,9
DA:55,8
DA:56,8
DA:58,9
DA:60,20
DA:62,20
DA:63,20
DA:64,0
DA:65,0
DA:69,20
DA:70,20
DA:74,20
DA:75,20
DA:77,20
DA:78,1
DA:79,1
DA:80,1
DA:82,1
DA:86,19
DA:87,0
DA:88,0
DA:92,19
DA:93,19
DA:94,19
DA:97,19
DA:98,1046
DA:99,1027
DA:100,1027
DA:102,1027
DA:104,1027
DA:105,1027
DA:108,1027
DA:109,1027
DA:110,1027
DA:111,1027
DA:112,1027
DA:113,1027
DA:114,1027
DA:116,1027
DA:121,1027
DA:122,449
DA:123,449
DA:126,1027
DA:127,1027
DA:128,1027
DA:129,1027
DA:131,19
DA:134,19
DA:135,20
DA:137,0
DA:139,0
DA:140,0
DA:141,0
DA:142,0
DA:144,7
DA:146,7
DA:147,14
DA:148,7
DA:150,8
DA:152,8
DA:153,8
DA:154,8
DA:155,8
DA:156,7
DA:158,1
DA:159,8
DA:161,0
DA:164,0
DA:166,0
DA:167,0
DA:168,0
DA:171,0
DA:172,0
DA:175,0
DA:177,0
DA:179,3081
DA:181,3081
DA:182,3081
DA:190,1587
DA:192,4761
DA:193,9522
DA:194,9522
DA:196,4761
DA:197,0
DA:199,4761
DA:200,0
DA:202,9522
DA:205,1587
DA:209,1587
DA:210,1587
DA:211,1587
DA:213,0
DA:214,0
DA:216,1587
DA:219,1587
DA:220,1587
DA:223,1587
DA:224,1587
DA:225,2988
DA:226,3081
DA:228,2054
DA:230,2054
DA:231,2054
DA:232,659
DA:234,1395
DA:235,2054
DA:237,1027
DA:239,1027
DA:242,1
DA:253,1
DA:254,1
DA:255,1
DA:258,0
DA:259,0
DA:260,0
DA:263,0
DA:264,0
DA:265,0
DA:268,0
DA:269,0
DA:272,0
DA:276,0
DA:277,0
DA:278,0
DA:281,0
DA:282,0
DA:283,0
DA:286,0
DA:287,0
DA:288,0
DA:291,0
DA:292,0
DA:293,0
DA:294,0
DA:297,0
DA:298,0
DA:299,0
DA:302,0
DA:303,0
DA:305,5
DA:307,5
DA:308,5
DA:309,5
DA:310,5
DA:311,5
DA:313,0
DA:314,5
DA:316,2
DA:318,2
DA:319,2
DA:320,2
DA:321,2
DA:322,2
DA:323,2
DA:325,2
DA:327,0
DA:328,2
DA:330,3
DA:332,3
DA:333,3
DA:334,3
DA:335,3
DA:336,3
DA:338,0
DA:339,3
DA:341,6
DA:343,6
DA:344,6
DA:345,6
DA:346,6
DA:347,6
DA:348,6
DA:350,0
DA:351,6
LF:184
LH:131
end_of_record
TN:
SF:/home/kavia/workspace/code-generation/app-gateway2/plugin/AppGateway/Resolver.h
FN:41,45,_ZN12WPEFramework6Plugin15ConfigContainerC2Ev
FNDA:20,_ZN12WPEFramework6Plugin15ConfigContainerC2Ev
FNF:1
FNH:1
DA:41,20
DA:42,20
DA:44,20
DA:45,20
LF:4
LH:4
end_of_record
TN:
SF:/home/kavia/workspace/code-generation/app-gateway2/tests/l0/appgateway/l0test/AppGatewayImplementation_BranchTests.cpp
FN:103,110,_ZN12_GLOBAL__N_120SimpleStringIterator14QueryInterfaceEj
FN:112,119,_ZN12_GLOBAL__N_120SimpleStringIterator4NextERNSt7__cxx1112basic_stringIcSt11char_traitsIcESaIcEEE
FN:121,129,_ZN12_GLOBAL__N_120SimpleStringIterator8PreviousERNSt7__cxx1112basic_stringIcSt11char_traitsIcESaIcEEE
FN:131,140,_ZN12_GLOBAL__N_120SimpleStringIterator5ResetEj
FN:142,142,_ZNK12_GLOBAL__N_120SimpleStringIterator7IsValidEv
FN:143,143,_ZNK12_GLOBAL__N_120SimpleStringIterator5CountEv
FN:144,144,_ZNK12_GLOBAL__N_120SimpleStringIterator7CurrentEv
FN:152,161,_ZN12_GLOBAL__N_1L15ComputeRepoRootEv
FN:163,166,_ZN12_GLOBAL__N_1L19BaseResolutionsPathEv
FN:168,175,_ZN12_GLOBAL__N_1L11MakeContextEv
FN:179,193,_ZN12_GLOBAL__N_111EnvVarGuardC2EPKcS2_
FN:195,202,_ZN12_GLOBAL__N_111EnvVarGuardD2Ev
FN:213,229,_ZN12_GLOBAL__N_1L19ConfigureImplOrFailERNS_10TestResultEPN12WPEFramework8Exchange19IAppGatewayResolverEPNS2_10PluginHost6IShellERKSt6vectorINSt7__cxx1112basic_stringIcSt11char_traitsIcESaIcEEESaISF_EE
FN:234,273,_Z52Test_AppGatewayImplementation_PermissionGroup_Deniedv
FN:27,33,_ZN12_GLOBAL__N_1L10ExpectTrueERNS_10TestResultEbRKNSt7__cxx1112basic_stringIcSt11char_traitsIcESaIcEEE
FN:276,308,_Z68Test_AppGatewayImplementation_PermissionGroup_Allowed_ComRpcDisabledv
FN:311,357,_Z56Test_AppGatewayImplementation_EventListen_TriggersNotifyv
FN:35,41,_ZN12_GLOBAL__N_1L11ExpectEqU32ERNS_10TestResultEjjRKNSt7__cxx1112basic_stringIcSt11char_traitsIcESaIcEEE
FN:360,406,_Z58Test_AppGatewayImplementation_IncludeContext_Path_Executesv
FN:409,467,_Z77Test_AppGatewayImplementation_ComRpc_RequestHandler_ReceivesAdditionalContextv
FN:43,61,_ZN12_GLOBAL__N_1L9EnsureDirERKNSt7__cxx1112basic_stringIcSt11char_traitsIcESaIcEEE
FN:63,78,_ZN12_GLOBAL__N_1L13WriteTextFileERKNSt7__cxx1112basic_stringIcSt11char_traitsIcESaIcEEES7_
FN:83,88,_ZN12_GLOBAL__N_120SimpleStringIteratorC1ERKSt6vectorINSt7__cxx1112basic_stringIcSt11char_traitsIcESaIcEEESaIS7_EE
FN:90,90,_ZN12_GLOBAL__N_120SimpleStringIteratorD0Ev
FN:90,90,_ZN12_GLOBAL__N_120SimpleStringIteratorD1Ev
FN:92,92,_ZNK12_GLOBAL__N_120SimpleStringIterator6AddRefEv
FN:93,101,_ZNK12_GLOBAL__N_120SimpleStringIterator7ReleaseEv
FNDA:0,_ZN12_GLOBAL__N_120SimpleStringIterator14QueryInterfaceEj
FNDA:12,_ZN12_GLOBAL__N_120SimpleStringIterator4NextERNSt7__cxx1112basic_stringIcSt11char_traitsIcESaIcEEE
FNDA:0,_ZN12_GLOBAL__N_120SimpleStringIterator8PreviousERNSt7__cxx1112basic_stringIcSt11char_traitsIcESaIcEEE
FNDA:0,_ZN12_GLOBAL__N_120SimpleStringIterator5ResetEj
FNDA:0,_ZNK12_GLOBAL__N_120SimpleStringIterator7IsValidEv
FNDA:0,_ZNK12_GLOBAL__N_120SimpleStringIterator5CountEv
FNDA:0,_ZNK12_GLOBAL__N_120SimpleStringIterator7CurrentEv
FNDA:7,_ZN12_GLOBAL__N_1L15ComputeRepoRootEv
FNDA:5,_ZN12_GLOBAL__N_1L19BaseResolutionsPathEv
FNDA:5,_ZN12_GLOBAL__N_1L11MakeContextEv
FNDA:2,_ZN12_GLOBAL__N_111EnvVarGuardC2EPKcS2_
FNDA:2,_ZN12_GLOBAL__N_111EnvVarGuardD2Ev
FNDA:5,_ZN12_GLOBAL__N_1L19ConfigureImplOrFailERNS_10TestResultEPN12WPEFramework8Exchange19IAppGatewayResolverEPNS2_10PluginHost6IShellERKSt6vectorINSt7__cxx1112basic_stringIcSt11char_traitsIcESaIcEEESaISF_EE
FNDA:1,_Z52Test_AppGatewayImplementation_PermissionGroup_Deniedv
FNDA:25,_ZN12_GLOBAL__N_1L10ExpectTrueERNS_10TestResultEbRKNSt7__cxx1112basic_stringIcSt11char_traitsIcESaIcEEE
FNDA:1,_Z68Test_AppGatewayImplementation_PermissionGroup_Allowed_ComRpcDisabledv
FNDA:1,_Z56Test_AppGatewayImplementation_EventListen_TriggersNotifyv
FNDA:10,_ZN12_GLOBAL__N_1L11ExpectEqU32ERNS_10TestResultEjjRKNSt7__cxx1112basic_stringIcSt11char_traitsIcESaIcEEE
FNDA:1,_Z58Test_AppGatewayImplementation_IncludeContext_Path_Executesv
FNDA:1,_Z77Test_AppGatewayImplementation_ComRpc_RequestHandler_ReceivesAdditionalContextv
FNDA:2,_ZN12_GLOBAL__N_1L9EnsureDirERKNSt7__cxx1112basic_stringIcSt11char_traitsIcESaIcEEE
FNDA:2,_ZN12_GLOBAL__N_1L13WriteTextFileERKNSt7__cxx1112basic_stringIcSt11char_traitsIcESaIcEEES7_
FNDA:5,_ZN12_GLOBAL__N_120SimpleStringIteratorC1ERKSt6vectorINSt7__cxx1112basic_stringIcSt11char_traitsIcESaIcEEESaIS7_EE
FNDA:5,_ZN12_GLOBAL__N_120SimpleStringIteratorD0Ev
FNDA:5,_ZN12_GLOBAL__N_120SimpleStringIteratorD1Ev
FNDA:0,_ZNK12_GLOBAL__N_120SimpleStringIterator6AddRefEv
FNDA:5,_ZNK12_GLOBAL__N_120SimpleStringIterator7ReleaseEv
FNF:27
FNH:20
DA:27,25
DA:29,25
DA:30,0
DA:31,0
DA:33,25
DA:35,10
DA:37,10
DA:38,0
DA:39,0
DA:41,10
DA:43,2
DA:46,2
DA:47,2
DA:50,0
DA:51,0
DA:53,0
DA:54,0
DA:55,0
DA:56,0
DA:57,0
DA:59,0
DA:60,0
DA:63,2
DA:65,2
DA:66,2
DA:67,2
DA:68,2
DA:69,0
DA:71,2
DA:72,2
DA:73,2
DA:74,0
DA:76,2
DA:77,2
DA:78,2
DA:83,5
DA:84,10
DA:85,5
DA:86,5
DA:88,5
DA:90,10
DA:92,0
DA:93,5
DA:95,5
DA:96,5
DA:97,5
DA:98,5
DA:100,0
DA:103,0
DA:105,0
DA:106,0
DA:107,0
DA:109,0
DA:112,12
DA:114,12
DA:115,7
DA:116,7
DA:118,5
DA:121,0
DA:123,0
DA:124,0
DA:126,0
DA:127,0
DA:128,0
DA:131,0
DA:133,0
DA:134,0
DA:135,0
DA:136,0
DA:138,0
DA:140,0
DA:142,0
DA:143,0
DA:144,0
DA:152,7
DA:154,14
DA:155,7
DA:156,7
DA:157,7
DA:158,7
DA:160,0
DA:161,7
DA:163,5
DA:165,5
DA:168,5
DA:170,5
DA:171,5
DA:172,5
DA:173,5
DA:174,5
DA:175,0
DA:179,2
DA:180,4
DA:181,2
DA:183,2
DA:184,2
DA:185,2
DA:186,2
DA:188,2
DA:189,2
DA:191,0
DA:193,2
DA:195,2
DA:197,2
DA:198,2
DA:200,0
DA:202,2
DA:213,5
DA:218,5
DA:219,5
DA:220,5
DA:221,5
DA:222,5
DA:225,5
DA:226,5
DA:227,5
DA:228,5
DA:229,5
DA:234,1
DA:240,1
DA:242,1
DA:243,1
DA:245,1
DA:246,1
DA:247,1
DA:248,1
DA:249,1
DA:251,1
DA:253,3
DA:255,1
DA:256,1
DA:257,7
DA:259,1
DA:262,1
DA:263,1
DA:264,1
DA:265,2
DA:268,1
DA:269,1
DA:270,1
DA:272,1
DA:273,1
DA:276,1
DA:279,1
DA:282,1
DA:284,1
DA:285,1
DA:287,1
DA:288,1
DA:289,1
DA:290,1
DA:291,1
DA:293,1
DA:295,3
DA:297,1
DA:298,1
DA:299,7
DA:301,1
DA:303,1
DA:304,1
DA:305,1
DA:307,1
DA:308,2
DA:311,1
DA:318,1
DA:320,1
DA:321,1
DA:323,1
DA:324,1
DA:325,1
DA:326,1
DA:328,1
DA:330,3
DA:332,1
DA:333,1
DA:334,7
DA:340,2
DA:341,1
DA:343,1
DA:344,1
DA:345,1
DA:346,2
DA:347,2
DA:348,2
DA:352,1
DA:353,1
DA:354,1
DA:356,1
DA:357,1
DA:360,1
DA:367,1
DA:369,1
DA:370,2
DA:381,1
DA:383,1
DA:384,1
DA:386,1
DA:387,1
DA:388,1
DA:390,1
DA:392,4
DA:394,1
DA:395,1
DA:396,7
DA:398,2
DA:399,1
DA:401,1
DA:402,1
DA:403,1
DA:405,1
DA:406,2
DA:409,1
DA:415,1
DA:417,1
DA:419,1
DA:420,2
DA:431,1
DA:433,1
DA:434,1
DA:436,1
DA:437,1
DA:438,1
DA:439,1
DA:440,1
DA:442,1
DA:444,4
DA:446,1
DA:447,1
DA:448,7
DA:450,2
DA:451,1
DA:453,1
DA:454,1
DA:455,1
DA:456,2
DA:458,2
DA:459,2
DA:462,1
DA:463,1
DA:464,1
DA:466,1
DA:467,2
LF:242
LH:200
end_of_record
TN:
SF:/home/kavia/workspace/code-generation/app-gateway2/tests/l0/appgateway/l0test/AppGatewayResponderImplementation_Tests.cpp
FN:101,127,_Z79Test_AppGatewayResponderImplementation_Register_Unregister_And_CallbackDeliveryv
FN:130,171,_Z92Test_AppGatewayResponderImplementation_GetGatewayConnectionContext_EnvInjection_And_EmptyKeyv
FN:174,206,_Z75Test_AppGatewayResponderImplementation_Configure_And_Public_Methods_NoCrashv
FN:21,27,_ZN12_GLOBAL__N_1L10ExpectTrueERNS_10TestResultEbRKNSt7__cxx1112basic_stringIcSt11char_traitsIcESaIcEEE
FN:29,35,_ZN12_GLOBAL__N_1L11ExpectEqU32ERNS_10TestResultEjjRKNSt7__cxx1112basic_stringIcSt11char_traitsIcESaIcEEE
FN:37,43,_ZN12_GLOBAL__N_1L11ExpectEqStrERNS_10TestResultERKNSt7__cxx1112basic_stringIcSt11char_traitsIcESaIcEEES9_S9_
FN:47,47,_ZN12_GLOBAL__N_119ConnChangeCollectorC1Ev
FN:48,48,_ZN12_GLOBAL__N_119ConnChangeCollectorD0Ev
FN:48,48,_ZN12_GLOBAL__N_119ConnChangeCollectorD1Ev
FN:51,51,_ZNK12_GLOBAL__N_119ConnChangeCollector6AddRefEv
FN:52,52,_ZNK12_GLOBAL__N_119ConnChangeCollector7ReleaseEv
FN:53,59,_ZN12_GLOBAL__N_119ConnChangeCollector14QueryInterfaceEj
FN:61,67,_ZN12_GLOBAL__N_119ConnChangeCollector22OnAppConnectionChangedERKNSt7__cxx1112basic_stringIcSt11char_traitsIcESaIcEEEjb
FN:75,82,_ZN12_GLOBAL__N_1L11MakeContextEjjRKNSt7__cxx1112basic_stringIcSt11char_traitsIcESaIcEEE
FN:86,96,_ZN12_GLOBAL__N_1L26MakeResponderServiceConfigEv
FNDA:1,_Z79Test_AppGatewayResponderImplementation_Register_Unregister_And_CallbackDeliveryv
FNDA:1,_Z92Test_AppGatewayResponderImplementation_GetGatewayConnectionContext_EnvInjection_And_EmptyKeyv
FNDA:0,_Z75Test_AppGatewayResponderImplementation_Configure_And_Public_Methods_NoCrashv
FNDA:1,_ZN12_GLOBAL__N_1L10ExpectTrueERNS_10TestResultEbRKNSt7__cxx1112basic_stringIcSt11char_traitsIcESaIcEEE
FNDA:10,_ZN12_GLOBAL__N_1L11ExpectEqU32ERNS_10TestResultEjjRKNSt7__cxx1112basic_stringIcSt11char_traitsIcESaIcEEE
FNDA:2,_ZN12_GLOBAL__N_1L11ExpectEqStrERNS_10TestResultERKNSt7__cxx1112basic_stringIcSt11char_traitsIcESaIcEEES9_S9_
FNDA:1,_ZN12_GLOBAL__N_119ConnChangeCollectorC1Ev
FNDA:0,_ZN12_GLOBAL__N_119ConnChangeCollectorD0Ev
FNDA:1,_ZN12_GLOBAL__N_119ConnChangeCollectorD1Ev
FNDA:1,_ZNK12_GLOBAL__N_119ConnChangeCollector6AddRefEv
FNDA:1,_ZNK12_GLOBAL__N_119ConnChangeCollector7ReleaseEv
FNDA:0,_ZN12_GLOBAL__N_119ConnChangeCollector14QueryInterfaceEj
FNDA:1,_ZN12_GLOBAL__N_119ConnChangeCollector22OnAppConnectionChangedERKNSt7__cxx1112basic_stringIcSt11char_traitsIcESaIcEEEjb
FNDA:0,_ZN12_GLOBAL__N_1L11MakeContextEjjRKNSt7__cxx1112basic_stringIcSt11char_traitsIcESaIcEEE
FNDA:0,_ZN12_GLOBAL__N_1L26MakeResponderServiceConfigEv
FNF:15
FNH:10
DA:21,1
DA:23,1
DA:24,0
DA:25,0
DA:27,1
DA:29,10
DA:31,10
DA:32,0
DA:33,0
DA:35,10
DA:37,2
DA:39,2
DA:40,0
DA:41,0
DA:43,2
DA:47,1
DA:48,1
DA:51,1
DA:52,1
DA:53,0
DA:55,0
DA:56,0
DA:58,0
DA:61,1
DA:63,1
DA:64,1
DA:65,1
DA:66,1
DA:67,1
DA:75,0
DA:77,0
DA:78,0
DA:79,0
DA:80,0
DA:81,0
DA:82,0
DA:86,0
DA:88,0
DA:89,0
DA:90,0
DA:94,0
DA:95,0
DA:96,0
DA:101,1
DA:105,1
DA:107,1
DA:108,1
DA:110,2
DA:112,2
DA:113,2
DA:114,4
DA:115,2
DA:116,2
DA:118,2
DA:120,2
DA:121,2
DA:124,1
DA:126,1
DA:127,1
DA:130,1
DA:132,1
DA:134,1
DA:136,1
DA:139,3
DA:145,1
DA:146,1
DA:147,1
DA:149,1
DA:150,4
DA:154,3
DA:157,1
DA:158,3
DA:164,1
DA:165,3
DA:170,1
DA:171,1
DA:174,0
DA:178,0
DA:180,0
DA:181,0
DA:183,0
DA:185,0
DA:188,0
DA:190,0
DA:191,0
DA:192,0
DA:195,0
DA:196,0
DA:197,0
DA:199,0
DA:200,0
DA:205,0
DA:206,0
LF:93
LH:52
end_of_record
TN:
SF:/home/kavia/workspace/code-generation/app-gateway2/tests/l0/appgateway/l0test/AppGatewayTest.cpp
FN:101,104,_ZN12_GLOBAL__N_118TestOnlyDispatcher12DeinitializeEv
FN:106,111,_ZN12_GLOBAL__N_118TestOnlyDispatcher8DispatchEPN12WPEFramework4Core9IDispatchE
FN:121,121,_ZN12_GLOBAL__N_116NullMessageStoreC2Ev
FN:122,122,_ZN12_GLOBAL__N_116NullMessageStoreD0Ev
FN:122,122,_ZN12_GLOBAL__N_116NullMessageStoreD2Ev
FN:127,131,_ZNK12_GLOBAL__N_116NullMessageStore7DefaultERKN12WPEFramework4Core9Messaging8MetadataE
FN:133,137,_ZN12_GLOBAL__N_116NullMessageStore4PushERKN12WPEFramework4Core9Messaging11MessageInfoEPKNS3_6IEventE
FN:142,151,_ZN12_GLOBAL__N_115L0TestBootstrapC2Ev
FN:153,158,_ZN12_GLOBAL__N_115L0TestBootstrapD2Ev
FN:164,181,_ZN12_GLOBAL__N_115L0TestBootstrap28InitializeWorkerPoolIfNeededEv
FN:183,202,_ZN12_GLOBAL__N_115L0TestBootstrap29DeinitializeWorkerPoolIfOwnedEv
FN:204,212,_ZN12_GLOBAL__N_115L0TestBootstrap27InitializeMessagingIfNeededEv
FN:214,222,_ZN12_GLOBAL__N_115L0TestBootstrap28DeinitializeMessagingIfOwnedEv
FN:237,243,_ZN12_GLOBAL__N_110ExpectTrueERNS_10TestResultEbRKNSt7__cxx1112basic_stringIcSt11char_traitsIcESaIcEEE
FN:245,251,_ZN12_GLOBAL__N_111ExpectEqU32ERNS_10TestResultEjjRKNSt7__cxx1112basic_stringIcSt11char_traitsIcESaIcEEE
FN:253,259,_ZN12_GLOBAL__N_111ExpectEqStrERNS_10TestResultERKNSt7__cxx1112basic_stringIcSt11char_traitsIcESaIcEEES9_S9_
FN:265,269,_ZN12_GLOBAL__N_116PluginAndServiceC2ERKN6L0Test11ServiceMock6ConfigE
FN:271,281,_ZN12_GLOBAL__N_116PluginAndServiceD2Ev
FN:284,307,_ZN12_GLOBAL__N_1L17ResolveParamsJsonERKNSt7__cxx1112basic_stringIcSt11char_traitsIcESaIcEEES7_
FN:311,327,_ZL38Test_Initialize_Deinitialize_HappyPathv
FN:329,353,_ZL27Test_JsonRpcResolve_Successv
FN:355,384,_ZL27Test_DirectResolver_Successv
FN:386,407,_ZL38Test_JsonRpcResolve_Error_NotPermittedv
FN:409,430,_ZL38Test_JsonRpcResolve_Error_NotSupportedv
FN:432,453,_ZL38Test_JsonRpcResolve_Error_NotAvailablev
FN:455,476,_ZL40Test_JsonRpcResolve_Error_MalformedInputv
FN:478,504,_ZL60Test_JsonRpcResolve_Error_MissingHandler_WhenResolverMissingv
FN:506,540,_ZL29Test_ContextUtils_Conversionsv
FN:542,638,main
FN:65,68,_Z69Test_AppGatewayResponderImplementation_Auth_Dispatch_Disconnect_Flowsv
FN:70,73,_Z76Test_AppGatewayResponderImplementation_DispatchWsMsg_ResolverMissing_NoCrashv
FN:90,90,_ZN12_GLOBAL__N_118TestOnlyDispatcherC2Ev
FN:91,91,_ZN12_GLOBAL__N_118TestOnlyDispatcherD0Ev
FN:91,91,_ZN12_GLOBAL__N_118TestOnlyDispatcherD2Ev
FN:96,99,_ZN12_GLOBAL__N_118TestOnlyDispatcher10InitializeEv
FNDA:2,_ZN12_GLOBAL__N_118TestOnlyDispatcher12DeinitializeEv
FNDA:7,_ZN12_GLOBAL__N_118TestOnlyDispatcher8DispatchEPN12WPEFramework4Core9IDispatchE
FNDA:1,_ZN12_GLOBAL__N_116NullMessageStoreC2Ev
FNDA:1,_ZN12_GLOBAL__N_116NullMessageStoreD0Ev
FNDA:1,_ZN12_GLOBAL__N_116NullMessageStoreD2Ev
FNDA:0,_ZNK12_GLOBAL__N_116NullMessageStore7DefaultERKN12WPEFramework4Core9Messaging8MetadataE
FNDA:0,_ZN12_GLOBAL__N_116NullMessageStore4PushERKN12WPEFramework4Core9Messaging11MessageInfoEPKNS3_6IEventE
FNDA:1,_ZN12_GLOBAL__N_115L0TestBootstrapC2Ev
FNDA:1,_ZN12_GLOBAL__N_115L0TestBootstrapD2Ev
FNDA:1,_ZN12_GLOBAL__N_115L0TestBootstrap28InitializeWorkerPoolIfNeededEv
FNDA:1,_ZN12_GLOBAL__N_115L0TestBootstrap29DeinitializeWorkerPoolIfOwnedEv
FNDA:1,_ZN12_GLOBAL__N_115L0TestBootstrap27InitializeMessagingIfNeededEv
FNDA:1,_ZN12_GLOBAL__N_115L0TestBootstrap28DeinitializeMessagingIfOwnedEv
FNDA:9,_ZN12_GLOBAL__N_110ExpectTrueERNS_10TestResultEbRKNSt7__cxx1112basic_stringIcSt11char_traitsIcESaIcEEE
FNDA:15,_ZN12_GLOBAL__N_111ExpectEqU32ERNS_10TestResultEjjRKNSt7__cxx1112basic_stringIcSt11char_traitsIcESaIcEEE
FNDA:15,_ZN12_GLOBAL__N_111ExpectEqStrERNS_10TestResultERKNSt7__cxx1112basic_stringIcSt11char_traitsIcESaIcEEES9_S9_
FNDA:8,_ZN12_GLOBAL__N_116PluginAndServiceC2ERKN6L0Test11ServiceMock6ConfigE
FNDA:8,_ZN12_GLOBAL__N_116PluginAndServiceD2Ev
FNDA:5,_ZN12_GLOBAL__N_1L17ResolveParamsJsonERKNSt7__cxx1112basic_stringIcSt11char_traitsIcESaIcEEES7_
FNDA:1,_ZL38Test_Initialize_Deinitialize_HappyPathv
FNDA:1,_ZL27Test_JsonRpcResolve_Successv
FNDA:1,_ZL27Test_DirectResolver_Successv
FNDA:1,_ZL38Test_JsonRpcResolve_Error_NotPermittedv
FNDA:1,_ZL38Test_JsonRpcResolve_Error_NotSupportedv
FNDA:1,_ZL38Test_JsonRpcResolve_Error_NotAvailablev
FNDA:1,_ZL40Test_JsonRpcResolve_Error_MalformedInputv
FNDA:1,_ZL60Test_JsonRpcResolve_Error_MissingHandler_WhenResolverMissingv
FNDA:1,_ZL29Test_ContextUtils_Conversionsv
FNDA:1,main
FNDA:1,_Z69Test_AppGatewayResponderImplementation_Auth_Dispatch_Disconnect_Flowsv
FNDA:1,_Z76Test_AppGatewayResponderImplementation_DispatchWsMsg_ResolverMissing_NoCrashv
FNDA:1,_ZN12_GLOBAL__N_118TestOnlyDispatcherC2Ev
FNDA:1,_ZN12_GLOBAL__N_118TestOnlyDispatcherD0Ev
FNDA:1,_ZN12_GLOBAL__N_118TestOnlyDispatcherD2Ev
FNDA:2,_ZN12_GLOBAL__N_118TestOnlyDispatcher10InitializeEv
FNF:35
FNH:33
DA:65,1
DA:67,1
DA:70,1
DA:72,1
DA:90,1
DA:91,2
DA:96,2
DA:99,2
DA:101,2
DA:104,2
DA:106,7
DA:108,7
DA:109,7
DA:111,7
DA:121,1
DA:122,2
DA:127,0
DA:130,0
DA:133,0
DA:137,0
DA:142,1
DA:143,1
DA:144,1
DA:145,1
DA:146,1
DA:147,1
DA:149,1
DA:150,1
DA:151,1
DA:153,1
DA:156,1
DA:157,1
DA:158,1
DA:164,1
DA:167,1
DA:169,1
DA:170,1
DA:171,1
DA:173,1
DA:174,1
DA:176,1
DA:177,1
DA:179,1
DA:181,1
DA:183,1
DA:185,1
DA:187,1
DA:188,1
DA:192,1
DA:194,1
DA:195,1
DA:197,1
DA:198,1
DA:200,1
DA:202,1
DA:204,1
DA:207,1
DA:208,1
DA:209,1
DA:210,1
DA:212,1
DA:214,1
DA:216,1
DA:217,1
DA:218,1
DA:219,1
DA:220,1
DA:222,1
DA:237,9
DA:239,9
DA:240,0
DA:241,0
DA:243,9
DA:245,15
DA:247,15
DA:248,0
DA:249,0
DA:251,15
DA:253,15
DA:255,15
DA:256,0
DA:257,0
DA:259,15
DA:265,8
DA:266,8
DA:267,8
DA:269,8
DA:271,8
DA:273,8
DA:274,8
DA:275,8
DA:277,8
DA:278,8
DA:279,8
DA:281,8
DA:284,5
DA:295,5
DA:297,10
DA:298,10
DA:299,10
DA:300,10
DA:301,10
DA:302,10
DA:303,10
DA:304,10
DA:305,10
DA:306,10
DA:307,5
DA:311,1
DA:313,1
DA:314,1
DA:316,1
DA:317,3
DA:319,1
DA:320,1
DA:321,1
DA:322,1
DA:325,1
DA:326,1
DA:327,1
DA:329,1
DA:331,1
DA:332,1
DA:334,1
DA:335,3
DA:337,1
DA:338,1
DA:339,1
DA:340,3
DA:342,1
DA:343,5
DA:345,2
DA:346,3
DA:348,1
DA:349,1
DA:351,1
DA:352,1
DA:353,1
DA:355,1
DA:357,1
DA:358,1
DA:360,1
DA:361,3
DA:364,1
DA:366,1
DA:367,1
DA:368,1
DA:369,1
DA:370,1
DA:371,1
DA:373,1
DA:374,7
DA:376,2
DA:377,3
DA:379,1
DA:380,1
DA:382,1
DA:383,1
DA:384,1
DA:386,1
DA:388,1
DA:389,1
DA:391,1
DA:392,3
DA:394,1
DA:395,1
DA:396,1
DA:397,3
DA:398,1
DA:399,5
DA:401,1
DA:402,1
DA:403,1
DA:405,1
DA:406,1
DA:407,1
DA:409,1
DA:411,1
DA:412,1
DA:414,1
DA:415,3
DA:417,1
DA:418,1
DA:419,1
DA:420,3
DA:421,1
DA:422,5
DA:424,1
DA:425,1
DA:426,1
DA:428,1
DA:429,1
DA:430,1
DA:432,1
DA:434,1
DA:435,1
DA:437,1
DA:438,3
DA:440,1
DA:441,1
DA:442,1
DA:443,3
DA:444,1
DA:445,5
DA:447,1
DA:448,1
DA:449,1
DA:451,1
DA:452,1
DA:453,1
DA:455,1
DA:457,1
DA:458,1
DA:460,1
DA:461,3
DA:463,1
DA:464,1
DA:465,1
DA:466,1
DA:467,1
DA:468,5
DA:470,1
DA:471,1
DA:472,1
DA:474,1
DA:475,1
DA:476,1
DA:478,1
DA:480,1
DA:484,1
DA:486,1
DA:487,1
DA:489,1
DA:490,1
DA:491,1
DA:492,3
DA:493,1
DA:494,5
DA:497,1
DA:498,1
DA:499,1
DA:502,1
DA:503,1
DA:504,1
DA:506,1
DA:508,1
DA:510,1
DA:511,1
DA:512,1
DA:513,1
DA:515,1
DA:517,1
DA:518,2
DA:519,2
DA:520,2
DA:521,1
DA:523,1
DA:524,2
DA:525,2
DA:526,1
DA:528,1
DA:529,2
DA:530,2
DA:531,2
DA:532,1
DA:534,1
DA:535,2
DA:536,2
DA:537,1
DA:539,1
DA:540,1
DA:542,1
DA:546,1
DA:557,1
DA:613,1
DA:615,41
DA:616,40
DA:617,40
DA:618,40
DA:619,40
DA:621,0
DA:623,40
DA:629,1
DA:631,1
DA:632,1
DA:633,1
DA:636,0
DA:637,0
DA:638,1
LF:289
LH:276
end_of_record
TN:
SF:/home/kavia/workspace/code-generation/app-gateway2/tests/l0/appgateway/l0test/AppGateway_Init_DeinitTests.cpp
FN:140,173,_Z32Test_Initialize_Twice_Idempotentv
FN:176,224,_Z31Test_Deinitialize_Twice_NoCrashv
FN:227,282,_Z44Test_JsonRpc_Registration_And_Unregistrationv
FN:25,30,_ZN12_GLOBAL__N_1L10ExpectTrueERNS_10TestResultEbRKNSt7__cxx1112basic_stringIcSt11char_traitsIcESaIcEEE
FN:32,37,_ZN12_GLOBAL__N_1L11ExpectEqU32ERNS_10TestResultEjjRKNSt7__cxx1112basic_stringIcSt11char_traitsIcESaIcEEE
FN:39,44,_ZN12_GLOBAL__N_1L11ExpectEqStrERNS_10TestResultERKNSt7__cxx1112basic_stringIcSt11char_traitsIcESaIcEEES9_S9_
FN:50,54,_ZN12_GLOBAL__N_116PluginAndServiceC2ERKN6L0Test11ServiceMock6ConfigE
FN:56,66,_ZN12_GLOBAL__N_116PluginAndServiceD2Ev
FN:69,85,_ZN12_GLOBAL__N_1L17ResolveParamsJsonERKNSt7__cxx1112basic_stringIcSt11char_traitsIcESaIcEEES7_
FN:90,130,_Z40Test_Initialize_WithValidConfig_Succeedsv
FNDA:1,_Z32Test_Initialize_Twice_Idempotentv
FNDA:1,_Z31Test_Deinitialize_Twice_NoCrashv
FNDA:1,_Z44Test_JsonRpc_Registration_And_Unregistrationv
FNDA:3,_ZN12_GLOBAL__N_1L10ExpectTrueERNS_10TestResultEbRKNSt7__cxx1112basic_stringIcSt11char_traitsIcESaIcEEE
FNDA:0,_ZN12_GLOBAL__N_1L11ExpectEqU32ERNS_10TestResultEjjRKNSt7__cxx1112basic_stringIcSt11char_traitsIcESaIcEEE
FNDA:0,_ZN12_GLOBAL__N_1L11ExpectEqStrERNS_10TestResultERKNSt7__cxx1112basic_stringIcSt11char_traitsIcESaIcEEES9_S9_
FNDA:6,_ZN12_GLOBAL__N_116PluginAndServiceC2ERKN6L0Test11ServiceMock6ConfigE
FNDA:6,_ZN12_GLOBAL__N_116PluginAndServiceD2Ev
FNDA:3,_ZN12_GLOBAL__N_1L17ResolveParamsJsonERKNSt7__cxx1112basic_stringIcSt11char_traitsIcESaIcEEES7_
FNDA:1,_Z40Test_Initialize_WithValidConfig_Succeedsv
FNF:10
FNH:8
DA:25,3
DA:26,3
DA:27,0
DA:28,0
DA:30,3
DA:32,0
DA:33,0
DA:34,0
DA:35,0
DA:37,0
DA:39,0
DA:40,0
DA:41,0
DA:42,0
DA:44,0
DA:50,6
DA:51,6
DA:52,6
DA:54,6
DA:56,6
DA:58,6
DA:59,6
DA:60,6
DA:62,6
DA:63,6
DA:64,6
DA:66,6
DA:69,3
DA:73,3
DA:75,6
DA:76,6
DA:77,6
DA:78,6
DA:79,6
DA:80,6
DA:81,6
DA:82,6
DA:83,6
DA:84,6
DA:85,3
DA:90,1
DA:100,1
DA:103,1
DA:106,1
DA:108,1
DA:109,1
DA:111,0
DA:115,1
DA:116,1
DA:117,1
DA:118,3
DA:119,1
DA:120,4
DA:122,1
DA:123,0
DA:125,1
DA:126,1
DA:128,1
DA:129,1
DA:130,1
DA:140,1
DA:143,1
DA:147,1
DA:148,1
DA:153,1
DA:155,0
DA:158,1
DA:159,1
DA:163,1
DA:164,1
DA:165,1
DA:167,0
DA:169,1
DA:170,1
DA:172,1
DA:176,1
DA:192,1
DA:196,1
DA:197,1
DA:202,1
DA:204,0
DA:207,1
DA:208,1
DA:214,1
DA:215,1
DA:216,1
DA:218,0
DA:220,1
DA:221,1
DA:223,1
DA:227,1
DA:236,1
DA:238,1
DA:240,1
DA:241,1
DA:243,0
DA:246,1
DA:248,1
DA:249,1
DA:250,1
DA:251,1
DA:252,3
DA:253,4
DA:254,1
DA:255,0
DA:257,1
DA:258,1
DA:261,1
DA:264,1
DA:265,1
DA:266,1
DA:267,1
DA:268,3
DA:269,4
DA:272,1
DA:273,0
DA:274,0
DA:277,1
DA:278,1
DA:281,1
DA:282,1
LF:121
LH:99
end_of_record
TN:
SF:/home/kavia/workspace/code-generation/app-gateway2/tests/l0/appgateway/l0test/AppGateway_JsonRpcResolveTests.cpp
FN:106,148,_ZN12_GLOBAL__N_1L22BuildResolveParamsJsonEbbbbbbRKNSt7__cxx1112basic_stringIcSt11char_traitsIcESaIcEEES7_S7_S7_
FN:119,123,_ZZN12_GLOBAL__N_1L22BuildResolveParamsJsonEbbbbbbRKNSt7__cxx1112basic_stringIcSt11char_traitsIcESaIcEEES7_S7_S7_ENKUlS7_S7_E_clES7_S7_
FN:124,128,_ZZN12_GLOBAL__N_1L22BuildResolveParamsJsonEbbbbbbRKNSt7__cxx1112basic_stringIcSt11char_traitsIcESaIcEEES7_S7_S7_ENKUlS7_S7_E0_clES7_S7_
FN:129,133,_ZZN12_GLOBAL__N_1L22BuildResolveParamsJsonEbbbbbbRKNSt7__cxx1112basic_stringIcSt11char_traitsIcESaIcEEES7_S7_S7_ENKUlS7_S7_E1_clES7_S7_
FN:153,179,_Z30Test_Resolve_HappyPath_JSONRPCv
FN:182,237,_Z37Test_Resolve_MissingFields_BadRequestv
FN:240,267,_Z46Test_Resolve_ParamsEmpty_DefaultsToEmptyObjectv
FN:270,305,_Z43Test_Resolve_ImplementationError_Propagatesv
FN:37,42,_ZN12_GLOBAL__N_1L10ExpectTrueERNS_10TestResultEbRKNSt7__cxx1112basic_stringIcSt11char_traitsIcESaIcEEE
FN:44,49,_ZN12_GLOBAL__N_1L11ExpectEqU32ERNS_10TestResultEjjRKNSt7__cxx1112basic_stringIcSt11char_traitsIcESaIcEEE
FN:51,56,_ZN12_GLOBAL__N_1L14ExpectNotEmptyERNS_10TestResultERKNSt7__cxx1112basic_stringIcSt11char_traitsIcESaIcEEES9_
FN:62,65,_ZN12_GLOBAL__N_116PluginAndServiceC2ERKN6L0Test11ServiceMock6ConfigE
FN:67,76,_ZN12_GLOBAL__N_116PluginAndServiceD2Ev
FN:81,95,_ZN12_GLOBAL__N_1L23CheckResolutionsEnvOnceEv
FNDA:9,_ZN12_GLOBAL__N_1L22BuildResolveParamsJsonEbbbbbbRKNSt7__cxx1112basic_stringIcSt11char_traitsIcESaIcEEES7_S7_S7_
FNDA:16,_ZZN12_GLOBAL__N_1L22BuildResolveParamsJsonEbbbbbbRKNSt7__cxx1112basic_stringIcSt11char_traitsIcESaIcEEES7_S7_S7_ENKUlS7_S7_E_clES7_S7_
FNDA:24,_ZZN12_GLOBAL__N_1L22BuildResolveParamsJsonEbbbbbbRKNSt7__cxx1112basic_stringIcSt11char_traitsIcESaIcEEES7_S7_S7_ENKUlS7_S7_E0_clES7_S7_
FNDA:9,_ZZN12_GLOBAL__N_1L22BuildResolveParamsJsonEbbbbbbRKNSt7__cxx1112basic_stringIcSt11char_traitsIcESaIcEEES7_S7_S7_ENKUlS7_S7_E1_clES7_S7_
FNDA:1,_Z30Test_Resolve_HappyPath_JSONRPCv
FNDA:1,_Z37Test_Resolve_MissingFields_BadRequestv
FNDA:1,_Z46Test_Resolve_ParamsEmpty_DefaultsToEmptyObjectv
FNDA:1,_Z43Test_Resolve_ImplementationError_Propagatesv
FNDA:8,_ZN12_GLOBAL__N_1L10ExpectTrueERNS_10TestResultEbRKNSt7__cxx1112basic_stringIcSt11char_traitsIcESaIcEEE
FNDA:9,_ZN12_GLOBAL__N_1L11ExpectEqU32ERNS_10TestResultEjjRKNSt7__cxx1112basic_stringIcSt11char_traitsIcESaIcEEE
FNDA:2,_ZN12_GLOBAL__N_1L14ExpectNotEmptyERNS_10TestResultERKNSt7__cxx1112basic_stringIcSt11char_traitsIcESaIcEEES9_
FNDA:4,_ZN12_GLOBAL__N_116PluginAndServiceC2ERKN6L0Test11ServiceMock6ConfigE
FNDA:4,_ZN12_GLOBAL__N_116PluginAndServiceD2Ev
FNDA:4,_ZN12_GLOBAL__N_1L23CheckResolutionsEnvOnceEv
FNF:14
FNH:14
DA:37,8
DA:38,8
DA:39,0
DA:40,0
DA:42,8
DA:44,9
DA:45,9
DA:46,0
DA:47,0
DA:49,9
DA:51,2
DA:52,2
DA:53,0
DA:54,0
DA:56,2
DA:62,4
DA:63,4
DA:64,4
DA:65,4
DA:67,4
DA:68,4
DA:69,4
DA:70,4
DA:72,4
DA:73,4
DA:74,4
DA:76,4
DA:81,4
DA:83,4
DA:84,3
DA:86,1
DA:87,1
DA:88,1
DA:90,0
DA:93,1
DA:106,9
DA:116,9
DA:117,9
DA:119,16
DA:120,16
DA:121,16
DA:122,16
DA:123,16
DA:124,24
DA:125,24
DA:126,24
DA:127,24
DA:128,24
DA:129,9
DA:130,9
DA:131,9
DA:132,9
DA:133,9
DA:135,41
DA:136,41
DA:137,25
DA:138,25
DA:139,25
DA:141,9
DA:142,11
DA:143,9
DA:144,9
DA:146,9
DA:147,18
DA:148,0
DA:153,1
DA:155,1
DA:156,1
DA:158,1
DA:159,1
DA:160,1
DA:162,1
DA:163,1
DA:164,1
DA:167,7
DA:169,1
DA:170,5
DA:172,2
DA:173,1
DA:174,1
DA:175,1
DA:177,1
DA:178,1
DA:179,1
DA:182,1
DA:184,1
DA:185,1
DA:187,1
DA:188,1
DA:189,1
DA:191,1
DA:192,1
DA:193,1
DA:194,1
DA:197,1
DA:199,7
DA:200,5
DA:201,1
DA:202,1
DA:204,1
DA:206,7
DA:207,5
DA:208,1
DA:209,1
DA:211,1
DA:213,7
DA:214,5
DA:215,1
DA:216,1
DA:218,1
DA:220,7
DA:221,5
DA:222,1
DA:223,1
DA:225,1
DA:227,7
DA:228,5
DA:229,1
DA:230,1
DA:232,1
DA:233,1
DA:235,1
DA:236,1
DA:237,1
DA:240,1
DA:242,1
DA:243,1
DA:245,1
DA:246,1
DA:247,1
DA:249,1
DA:250,1
DA:251,1
DA:255,7
DA:257,1
DA:258,5
DA:260,2
DA:261,1
DA:262,1
DA:263,1
DA:265,1
DA:266,1
DA:267,1
DA:270,1
DA:272,1
DA:273,1
DA:275,1
DA:276,1
DA:277,1
DA:279,1
DA:280,1
DA:281,1
DA:282,1
DA:285,1
DA:287,7
DA:288,5
DA:289,1
DA:290,1
DA:293,1
DA:295,7
DA:296,5
DA:297,1
DA:298,1
DA:300,1
DA:301,1
DA:303,1
DA:304,1
DA:305,1
LF:168
LH:160
end_of_record
TN:
SF:/home/kavia/workspace/code-generation/app-gateway2/tests/l0/appgateway/l0test/ContextUtils.h
FN:36,43,_ZN12ContextUtils38ConvertNotificationToAppGatewayContextERKN12WPEFramework8Exchange17IAppNotifications22AppNotificationContextE
FN:46,54,_ZN12ContextUtils38ConvertAppGatewayToNotificationContextERKN12WPEFramework8Exchange14GatewayContextERKNSt7__cxx1112basic_stringIcSt11char_traitsIcESaIcEEE
FN:57,65,_ZN12ContextUtils34ConvertAppGatewayToProviderContextERKN12WPEFramework8Exchange14GatewayContextERKNSt7__cxx1112basic_stringIcSt11char_traitsIcESaIcEEE
FN:68,75,_ZN12ContextUtils34ConvertProviderToAppGatewayContextERKN12WPEFramework8Exchange16IApp2AppProvider7ContextE
FN:77,80,_ZN12ContextUtils15IsOriginGatewayERKNSt7__cxx1112basic_stringIcSt11char_traitsIcESaIcEEE
FNDA:4,_ZN12ContextUtils38ConvertNotificationToAppGatewayContextERKN12WPEFramework8Exchange17IAppNotifications22AppNotificationContextE
FNDA:4,_ZN12ContextUtils38ConvertAppGatewayToNotificationContextERKN12WPEFramework8Exchange14GatewayContextERKNSt7__cxx1112basic_stringIcSt11char_traitsIcESaIcEEE
FNDA:4,_ZN12ContextUtils34ConvertAppGatewayToProviderContextERKN12WPEFramework8Exchange14GatewayContextERKNSt7__cxx1112basic_stringIcSt11char_traitsIcESaIcEEE
FNDA:4,_ZN12ContextUtils34ConvertProviderToAppGatewayContextERKN12WPEFramework8Exchange16IApp2AppProvider7ContextE
FNDA:12,_ZN12ContextUtils15IsOriginGatewayERKNSt7__cxx1112basic_stringIcSt11char_traitsIcESaIcEEE
FNF:5
FNH:5
DA:36,4
DA:38,4
DA:39,4
DA:40,4
DA:41,4
DA:42,4
DA:43,0
DA:46,4
DA:48,4
DA:49,4
DA:50,4
DA:51,4
DA:52,4
DA:53,4
DA:54,0
DA:57,4
DA:59,4
DA:60,4
DA:61,4
DA:62,4
DA:63,4
DA:64,4
DA:65,0
DA:68,4
DA:70,4
DA:71,4
DA:72,4
DA:73,4
DA:74,4
DA:75,0
DA:77,12
DA:79,24
LF:32
LH:28
end_of_record
TN:
SF:/home/kavia/workspace/code-generation/app-gateway2/tests/l0/appgateway/l0test/ContextUtils_ConversionTests.cpp
FN:201,245,_Z41Test_Json_Boundary_RequestId_ConnectionIdv
FN:248,282,_Z41Test_Json_Params_Empty_Equals_EmptyObjectv
FN:27,32,_ZN12_GLOBAL__N_1L10ExpectTrueERNS_10TestResultEbRKNSt7__cxx1112basic_stringIcSt11char_traitsIcESaIcEEE
FN:285,311,_Z31Test_Json_EmptyAppId_BadRequestv
FN:33,38,_ZN12_GLOBAL__N_1L11ExpectEqU32ERNS_10TestResultEjjRKNSt7__cxx1112basic_stringIcSt11char_traitsIcESaIcEEE
FN:39,44,_ZN12_GLOBAL__N_1L11ExpectEqStrERNS_10TestResultERKNSt7__cxx1112basic_stringIcSt11char_traitsIcESaIcEEES9_S9_
FN:47,69,_ZN12_GLOBAL__N_1L22BuildResolveParamsJsonEjjRKNSt7__cxx1112basic_stringIcSt11char_traitsIcESaIcEEES7_S7_S7_
FN:75,78,_ZN12_GLOBAL__N_116PluginAndServiceC2ERKN6L0Test11ServiceMock6ConfigE
FN:80,89,_ZN12_GLOBAL__N_116PluginAndServiceD2Ev
FN:95,198,_Z44Test_ContextUtils_BoundaryValues_Conversionsv
FNDA:1,_Z41Test_Json_Boundary_RequestId_ConnectionIdv
FNDA:1,_Z41Test_Json_Params_Empty_Equals_EmptyObjectv
FNDA:6,_ZN12_GLOBAL__N_1L10ExpectTrueERNS_10TestResultEbRKNSt7__cxx1112basic_stringIcSt11char_traitsIcESaIcEEE
FNDA:1,_Z31Test_Json_EmptyAppId_BadRequestv
FNDA:21,_ZN12_GLOBAL__N_1L11ExpectEqU32ERNS_10TestResultEjjRKNSt7__cxx1112basic_stringIcSt11char_traitsIcESaIcEEE
FNDA:22,_ZN12_GLOBAL__N_1L11ExpectEqStrERNS_10TestResultERKNSt7__cxx1112basic_stringIcSt11char_traitsIcESaIcEEES9_S9_
FNDA:5,_ZN12_GLOBAL__N_1L22BuildResolveParamsJsonEjjRKNSt7__cxx1112basic_stringIcSt11char_traitsIcESaIcEEES7_S7_S7_
FNDA:3,_ZN12_GLOBAL__N_116PluginAndServiceC2ERKN6L0Test11ServiceMock6ConfigE
FNDA:3,_ZN12_GLOBAL__N_116PluginAndServiceD2Ev
FNDA:1,_Z44Test_ContextUtils_BoundaryValues_Conversionsv
FNF:10
FNH:10
DA:27,6
DA:28,6
DA:29,0
DA:30,0
DA:32,6
DA:33,21
DA:34,21
DA:35,0
DA:36,0
DA:38,21
DA:39,22
DA:40,22
DA:41,0
DA:42,0
DA:44,22
DA:47,5
DA:58,7
DA:60,5
DA:61,5
DA:62,5
DA:63,5
DA:64,5
DA:65,5
DA:66,5
DA:67,5
DA:68,10
DA:69,5
DA:75,3
DA:76,3
DA:77,3
DA:78,3
DA:80,3
DA:81,3
DA:82,3
DA:83,3
DA:85,3
DA:86,3
DA:87,3
DA:89,3
DA:95,1
DA:102,1
DA:106,1
DA:107,1
DA:108,1
DA:109,1
DA:111,1
DA:113,1
DA:114,2
DA:115,2
DA:116,2
DA:117,1
DA:119,1
DA:120,2
DA:121,2
DA:122,1
DA:124,1
DA:125,2
DA:126,2
DA:127,2
DA:128,1
DA:130,1
DA:131,2
DA:132,2
DA:133,1
DA:134,1
DA:138,1
DA:139,1
DA:140,1
DA:141,1
DA:143,1
DA:145,1
DA:146,2
DA:147,2
DA:148,2
DA:149,1
DA:151,1
DA:152,2
DA:153,2
DA:154,1
DA:156,1
DA:157,2
DA:158,2
DA:159,2
DA:160,1
DA:162,1
DA:163,2
DA:164,2
DA:165,1
DA:166,1
DA:170,1
DA:171,1
DA:172,1
DA:173,1
DA:175,1
DA:177,1
DA:178,3
DA:180,1
DA:181,3
DA:183,1
DA:184,3
DA:186,1
DA:187,3
DA:188,1
DA:192,4
DA:193,4
DA:194,3
DA:197,1
DA:201,1
DA:207,1
DA:209,1
DA:210,1
DA:211,3
DA:213,1
DA:214,1
DA:216,1
DA:217,2
DA:218,2
DA:219,2
DA:223,1
DA:224,1
DA:225,5
DA:226,2
DA:227,3
DA:228,1
DA:232,1
DA:233,1
DA:234,1
DA:235,5
DA:236,2
DA:237,3
DA:238,1
DA:240,1
DA:241,1
DA:243,1
DA:244,1
DA:245,1
DA:248,1
DA:252,1
DA:254,1
DA:255,1
DA:256,3
DA:258,1
DA:259,1
DA:261,1
DA:262,2
DA:263,2
DA:264,2
DA:266,2
DA:267,1
DA:269,1
DA:270,1
DA:271,4
DA:272,5
DA:274,2
DA:275,2
DA:276,1
DA:277,1
DA:278,1
DA:280,1
DA:281,1
DA:282,1
DA:285,1
DA:289,1
DA:291,1
DA:292,1
DA:293,3
DA:295,1
DA:296,1
DA:298,1
DA:299,2
DA:300,2
DA:302,3
DA:303,1
DA:304,5
DA:305,1
DA:306,1
DA:307,1
DA:309,1
DA:310,1
DA:311,1
LF:180
LH:174
end_of_record
TN:
SF:/home/kavia/workspace/code-generation/app-gateway2/tests/l0/appgateway/l0test/Resolver_Configure_And_ResolveTests.cpp
FN:102,104,_ZNK12_GLOBAL__N_120SimpleStringIterator5CountEv
FN:105,110,_ZNK12_GLOBAL__N_120SimpleStringIterator7CurrentEv
FN:118,137,_ZN12_GLOBAL__N_1L9EnsureDirERKNSt7__cxx1112basic_stringIcSt11char_traitsIcESaIcEEE
FN:139,155,_ZN12_GLOBAL__N_1L13WriteTextFileERKNSt7__cxx1112basic_stringIcSt11char_traitsIcESaIcEEES7_
FN:157,182,_ZN12_GLOBAL__N_1L38ComputeBaseResolutionsPathFromThisFileEv
FN:185,191,_ZN12_GLOBAL__N_1L11MakeContextEv
FN:197,200,_ZN12_GLOBAL__N_116PluginAndServiceC2ERKN6L0Test11ServiceMock6ConfigE
FN:201,204,_ZN12_GLOBAL__N_116PluginAndServiceD2Ev
FN:210,244,_Z44Test_Resolver_Configure_WithBaseOnly_LoadsOKv
FN:247,279,_Z52Test_Resolver_Configure_WithOverride_TakesPrecedencev
FN:282,327,_Z51Test_Resolver_Resolve_UnknownMethod_ReturnsNotFoundv
FN:30,35,_ZN12_GLOBAL__N_1L10ExpectTrueERNS_10TestResultEbRKNSt7__cxx1112basic_stringIcSt11char_traitsIcESaIcEEE
FN:330,361,_Z55Test_Resolver_Resolve_MalformedParams_ReturnsBadRequestv
FN:36,41,_ZN12_GLOBAL__N_1L11ExpectEqU32ERNS_10TestResultEjjRKNSt7__cxx1112basic_stringIcSt11char_traitsIcESaIcEEE
FN:364,397,_Z48Test_Resolver_Configure_InvalidJson_ReturnsErrorv
FN:42,47,_ZN12_GLOBAL__N_1L14ExpectNotEmptyERNS_10TestResultERKNSt7__cxx1112basic_stringIcSt11char_traitsIcESaIcEEES9_
FN:52,53,_ZN12_GLOBAL__N_120SimpleStringIteratorC1ERKSt6vectorINSt7__cxx1112basic_stringIcSt11char_traitsIcESaIcEEESaIS7_EE
FN:54,54,_ZN12_GLOBAL__N_120SimpleStringIteratorD0Ev
FN:54,54,_ZN12_GLOBAL__N_120SimpleStringIteratorD1Ev
FN:56,58,_ZNK12_GLOBAL__N_120SimpleStringIterator6AddRefEv
FN:59,66,_ZNK12_GLOBAL__N_120SimpleStringIterator7ReleaseEv
FN:67,73,_ZN12_GLOBAL__N_120SimpleStringIterator14QueryInterfaceEj
FN:75,81,_ZN12_GLOBAL__N_120SimpleStringIterator4NextERNSt7__cxx1112basic_stringIcSt11char_traitsIcESaIcEEE
FN:82,89,_ZN12_GLOBAL__N_120SimpleStringIterator8PreviousERNSt7__cxx1112basic_stringIcSt11char_traitsIcESaIcEEE
FN:90,98,_ZN12_GLOBAL__N_120SimpleStringIterator5ResetEj
FN:99,101,_ZNK12_GLOBAL__N_120SimpleStringIterator7IsValidEv
FNDA:0,_ZNK12_GLOBAL__N_120SimpleStringIterator5CountEv
FNDA:0,_ZNK12_GLOBAL__N_120SimpleStringIterator7CurrentEv
FNDA:4,_ZN12_GLOBAL__N_1L9EnsureDirERKNSt7__cxx1112basic_stringIcSt11char_traitsIcESaIcEEE
FNDA:2,_ZN12_GLOBAL__N_1L13WriteTextFileERKNSt7__cxx1112basic_stringIcSt11char_traitsIcESaIcEEES7_
FNDA:4,_ZN12_GLOBAL__N_1L38ComputeBaseResolutionsPathFromThisFileEv
FNDA:3,_ZN12_GLOBAL__N_1L11MakeContextEv
FNDA:1,_ZN12_GLOBAL__N_116PluginAndServiceC2ERKN6L0Test11ServiceMock6ConfigE
FNDA:1,_ZN12_GLOBAL__N_116PluginAndServiceD2Ev
FNDA:1,_Z44Test_Resolver_Configure_WithBaseOnly_LoadsOKv
FNDA:1,_Z52Test_Resolver_Configure_WithOverride_TakesPrecedencev
FNDA:1,_Z51Test_Resolver_Resolve_UnknownMethod_ReturnsNotFoundv
FNDA:12,_ZN12_GLOBAL__N_1L10ExpectTrueERNS_10TestResultEbRKNSt7__cxx1112basic_stringIcSt11char_traitsIcESaIcEEE
FNDA:1,_Z55Test_Resolver_Resolve_MalformedParams_ReturnsBadRequestv
FNDA:5,_ZN12_GLOBAL__N_1L11ExpectEqU32ERNS_10TestResultEjjRKNSt7__cxx1112basic_stringIcSt11char_traitsIcESaIcEEE
FNDA:1,_Z48Test_Resolver_Configure_InvalidJson_ReturnsErrorv
FNDA:0,_ZN12_GLOBAL__N_1L14ExpectNotEmptyERNS_10TestResultERKNSt7__cxx1112basic_stringIcSt11char_traitsIcESaIcEEES9_
FNDA:4,_ZN12_GLOBAL__N_120SimpleStringIteratorC1ERKSt6vectorINSt7__cxx1112basic_stringIcSt11char_traitsIcESaIcEEESaIS7_EE
FNDA:4,_ZN12_GLOBAL__N_120SimpleStringIteratorD0Ev
FNDA:4,_ZN12_GLOBAL__N_120SimpleStringIteratorD1Ev
FNDA:0,_ZNK12_GLOBAL__N_120SimpleStringIterator6AddRefEv
FNDA:4,_ZNK12_GLOBAL__N_120SimpleStringIterator7ReleaseEv
FNDA:0,_ZN12_GLOBAL__N_120SimpleStringIterator14QueryInterfaceEj
FNDA:6,_ZN12_GLOBAL__N_120SimpleStringIterator4NextERNSt7__cxx1112basic_stringIcSt11char_traitsIcESaIcEEE
FNDA:0,_ZN12_GLOBAL__N_120SimpleStringIterator8PreviousERNSt7__cxx1112basic_stringIcSt11char_traitsIcESaIcEEE
FNDA:0,_ZN12_GLOBAL__N_120SimpleStringIterator5ResetEj
FNDA:0,_ZNK12_GLOBAL__N_120SimpleStringIterator7IsValidEv
FNF:26
FNH:18
DA:30,12
DA:31,12
DA:32,0
DA:33,0
DA:35,12
DA:36,5
DA:37,5
DA:38,0
DA:39,0
DA:41,5
DA:42,0
DA:43,0
DA:44,0
DA:45,0
DA:47,0
DA:52,4
DA:53,4
DA:54,8
DA:56,0
DA:57,0
DA:59,4
DA:60,4
DA:61,4
DA:62,4
DA:63,4
DA:65,0
DA:67,0
DA:68,0
DA:69,0
DA:70,0
DA:72,0
DA:75,6
DA:76,6
DA:77,3
DA:78,3
DA:80,3
DA:82,0
DA:83,0
DA:84,0
DA:86,0
DA:87,0
DA:88,0
DA:90,0
DA:91,0
DA:92,0
DA:93,0
DA:94,0
DA:96,0
DA:98,0
DA:99,0
DA:100,0
DA:102,0
DA:103,0
DA:105,0
DA:106,0
DA:107,0
DA:109,0
DA:118,4
DA:120,4
DA:121,4
DA:124,0
DA:125,0
DA:129,0
DA:130,0
DA:131,0
DA:132,0
DA:133,0
DA:135,0
DA:136,0
DA:139,2
DA:140,2
DA:141,2
DA:142,2
DA:143,2
DA:144,0
DA:145,0
DA:147,2
DA:148,2
DA:149,2
DA:150,0
DA:151,0
DA:153,2
DA:154,2
DA:155,2
DA:157,4
DA:159,4
DA:160,4
DA:162,4
DA:163,8
DA:172,0
DA:173,0
DA:174,0
DA:175,0
DA:176,0
DA:177,0
DA:178,0
DA:181,0
DA:182,0
DA:185,3
DA:186,3
DA:187,3
DA:188,3
DA:189,3
DA:190,3
DA:191,0
DA:197,1
DA:198,1
DA:199,1
DA:200,1
DA:201,1
DA:202,1
DA:203,1
DA:204,1
DA:210,1
DA:212,1
DA:214,1
DA:217,1
DA:218,1
DA:222,1
DA:224,1
DA:225,1
DA:226,1
DA:227,1
DA:228,1
DA:229,1
DA:230,1
DA:232,1
DA:235,1
DA:236,1
DA:237,7
DA:238,1
DA:239,1
DA:240,1
DA:242,1
DA:243,1
DA:244,1
DA:247,1
DA:249,1
DA:252,1
DA:254,1
DA:255,1
DA:256,2
DA:259,2
DA:260,2
DA:261,2
DA:268,2
DA:269,1
DA:271,1
DA:272,2
DA:274,2
DA:275,1
DA:278,1
DA:279,1
DA:282,1
DA:286,1
DA:290,1
DA:291,1
DA:296,1
DA:299,1
DA:300,1
DA:301,1
DA:302,1
DA:306,3
DA:307,1
DA:308,1
DA:309,1
DA:310,1
DA:313,1
DA:314,1
DA:315,6
DA:318,1
DA:319,0
DA:320,0
DA:324,1
DA:325,1
DA:326,1
DA:327,2
DA:330,1
DA:332,1
DA:335,1
DA:336,1
DA:338,1
DA:339,1
DA:340,1
DA:341,1
DA:342,1
DA:346,3
DA:347,1
DA:348,1
DA:349,1
DA:350,1
DA:353,1
DA:354,1
DA:355,7
DA:357,1
DA:358,1
DA:359,1
DA:360,1
DA:361,2
DA:364,1
DA:366,1
DA:369,1
DA:370,1
DA:372,1
DA:373,1
DA:374,1
DA:375,1
DA:376,1
DA:379,2
DA:380,2
DA:381,2
DA:383,3
DA:385,3
DA:386,1
DA:387,1
DA:388,1
DA:390,1
DA:391,0
DA:392,0
DA:395,1
DA:396,1
DA:397,2
LF:222
LH:157
end_of_record
TN:
SF:/home/kavia/workspace/code-generation/app-gateway2/tests/l0/appgateway/l0test/Responder_BehaviorTests.cpp
FN:100,107,_ZN12_GLOBAL__N_1L11MakeContextEjjRKNSt7__cxx1112basic_stringIcSt11char_traitsIcESaIcEEE
FN:112,153,_Z48Test_Responder_Register_Unregister_Notificationsv
FN:156,191,_Z46Test_Responder_Respond_Success_And_Unavailablev
FN:194,228,_Z43Test_Responder_Emit_Success_And_Unavailablev
FN:231,264,_Z46Test_Responder_Request_Success_And_Unavailablev
FN:24,30,_ZN12_GLOBAL__N_1L10ExpectTrueERNS_10TestResultEbRKNSt7__cxx1112basic_stringIcSt11char_traitsIcESaIcEEE
FN:267,315,_Z60Test_Responder_GetGatewayConnectionContext_Known_And_Unknownv
FN:31,37,_ZN12_GLOBAL__N_1L11ExpectEqU32ERNS_10TestResultEjjRKNSt7__cxx1112basic_stringIcSt11char_traitsIcESaIcEEE
FN:38,44,_ZN12_GLOBAL__N_1L11ExpectEqStrERNS_10TestResultERKNSt7__cxx1112basic_stringIcSt11char_traitsIcESaIcEEES9_S9_
FN:50,54,_ZN12_GLOBAL__N_116PluginAndServiceC2ERKN6L0Test11ServiceMock6ConfigE
FN:56,66,_ZN12_GLOBAL__N_116PluginAndServiceD2Ev
FN:72,72,_ZN12_GLOBAL__N_119ConnChangeCollectorC1Ev
FN:73,73,_ZN12_GLOBAL__N_119ConnChangeCollectorD0Ev
FN:73,73,_ZN12_GLOBAL__N_119ConnChangeCollectorD1Ev
FN:76,76,_ZNK12_GLOBAL__N_119ConnChangeCollector6AddRefEv
FN:77,77,_ZNK12_GLOBAL__N_119ConnChangeCollector7ReleaseEv
FN:78,84,_ZN12_GLOBAL__N_119ConnChangeCollector14QueryInterfaceEj
FN:86,92,_ZN12_GLOBAL__N_119ConnChangeCollector22OnAppConnectionChangedERKNSt7__cxx1112basic_stringIcSt11char_traitsIcESaIcEEEjb
FNDA:2,_ZN12_GLOBAL__N_1L11MakeContextEjjRKNSt7__cxx1112basic_stringIcSt11char_traitsIcESaIcEEE
FNDA:1,_Z48Test_Responder_Register_Unregister_Notificationsv
FNDA:1,_Z46Test_Responder_Respond_Success_And_Unavailablev
FNDA:1,_Z43Test_Responder_Emit_Success_And_Unavailablev
FNDA:1,_Z46Test_Responder_Request_Success_And_Unavailablev
FNDA:6,_ZN12_GLOBAL__N_1L10ExpectTrueERNS_10TestResultEbRKNSt7__cxx1112basic_stringIcSt11char_traitsIcESaIcEEE
FNDA:1,_Z60Test_Responder_GetGatewayConnectionContext_Known_And_Unknownv
FNDA:13,_ZN12_GLOBAL__N_1L11ExpectEqU32ERNS_10TestResultEjjRKNSt7__cxx1112basic_stringIcSt11char_traitsIcESaIcEEE
FNDA:7,_ZN12_GLOBAL__N_1L11ExpectEqStrERNS_10TestResultERKNSt7__cxx1112basic_stringIcSt11char_traitsIcESaIcEEES9_S9_
FNDA:5,_ZN12_GLOBAL__N_116PluginAndServiceC2ERKN6L0Test11ServiceMock6ConfigE
FNDA:5,_ZN12_GLOBAL__N_116PluginAndServiceD2Ev
FNDA:1,_ZN12_GLOBAL__N_119ConnChangeCollectorC1Ev
FNDA:0,_ZN12_GLOBAL__N_119ConnChangeCollectorD0Ev
FNDA:1,_ZN12_GLOBAL__N_119ConnChangeCollectorD1Ev
FNDA:1,_ZNK12_GLOBAL__N_119ConnChangeCollector6AddRefEv
FNDA:1,_ZNK12_GLOBAL__N_119ConnChangeCollector7ReleaseEv
FNDA:0,_ZN12_GLOBAL__N_119ConnChangeCollector14QueryInterfaceEj
FNDA:1,_ZN12_GLOBAL__N_119ConnChangeCollector22OnAppConnectionChangedERKNSt7__cxx1112basic_stringIcSt11char_traitsIcESaIcEEEjb
FNF:18
FNH:16
DA:24,6
DA:26,6
DA:27,0
DA:28,0
DA:30,6
DA:31,13
DA:33,13
DA:34,0
DA:35,0
DA:37,13
DA:38,7
DA:40,7
DA:41,0
DA:42,0
DA:44,7
DA:50,5
DA:51,5
DA:52,5
DA:54,5
DA:56,5
DA:58,5
DA:59,5
DA:60,5
DA:62,5
DA:63,5
DA:64,5
DA:66,5
DA:72,1
DA:73,1
DA:76,1
DA:77,1
DA:78,0
DA:80,0
DA:81,0
DA:83,0
DA:86,1
DA:88,1
DA:89,1
DA:90,1
DA:91,1
DA:92,1
DA:100,2
DA:102,2
DA:103,2
DA:104,2
DA:105,2
DA:106,2
DA:107,0
DA:112,1
DA:114,1
DA:116,1
DA:117,1
DA:118,3
DA:121,1
DA:122,1
DA:124,1
DA:125,1
DA:126,1
DA:127,1
DA:132,1
DA:133,1
DA:134,3
DA:135,2
DA:136,4
DA:137,2
DA:138,1
DA:139,1
DA:140,1
DA:142,0
DA:145,1
DA:146,1
DA:148,1
DA:149,1
DA:151,1
DA:152,1
DA:153,1
DA:156,1
DA:158,1
DA:160,1
DA:161,1
DA:162,3
DA:165,1
DA:166,1
DA:168,1
DA:169,1
DA:171,1
DA:172,3
DA:173,1
DA:176,1
DA:177,1
DA:178,3
DA:179,1
DA:180,1
DA:181,1
DA:183,0
DA:186,1
DA:187,1
DA:189,1
DA:190,1
DA:191,1
DA:194,1
DA:196,1
DA:198,1
DA:199,1
DA:200,3
DA:203,1
DA:204,1
DA:206,1
DA:207,1
DA:209,1
DA:210,5
DA:211,1
DA:213,1
DA:214,1
DA:215,5
DA:216,1
DA:217,1
DA:218,1
DA:220,0
DA:223,1
DA:224,1
DA:226,1
DA:227,1
DA:228,1
DA:231,1
DA:233,1
DA:235,1
DA:236,1
DA:237,3
DA:240,1
DA:241,1
DA:243,1
DA:244,1
DA:246,5
DA:247,1
DA:249,1
DA:250,1
DA:251,5
DA:252,1
DA:253,1
DA:254,1
DA:256,0
DA:259,1
DA:262,1
DA:263,1
DA:264,1
DA:267,1
DA:269,1
DA:271,1
DA:272,1
DA:273,3
DA:276,1
DA:277,1
DA:279,1
DA:280,1
DA:282,1
DA:283,1
DA:284,5
DA:287,0
DA:288,0
DA:289,0
DA:292,1
DA:293,3
DA:294,2
DA:295,3
DA:297,1
DA:298,3
DA:299,1
DA:301,1
DA:302,3
DA:303,1
DA:305,1
DA:306,1
DA:307,1
DA:310,1
DA:311,1
DA:313,1
DA:314,1
DA:315,1
LF:179
LH:161
end_of_record
TN:
SF:/home/kavia/workspace/code-generation/app-gateway2/tests/l0/appgateway/l0test/ServiceMock.h
FN:104,107,_ZN6L0Test12ResolverFake9ConfigureERKPN12WPEFramework3RPC13IIteratorTypeINSt7__cxx1112basic_stringIcSt11char_traitsIcESaIcEEELj5EEE
FN:109,147,_ZN6L0Test12ResolverFake7ResolveERKN12WPEFramework8Exchange14GatewayContextERKNSt7__cxx1112basic_stringIcSt11char_traitsIcESaIcEEESD_SD_RSB_
FN:157,161,_ZN6L0Test13ResponderFakeC1Eb
FN:163,171,_ZN6L0Test13ResponderFakeD0Ev
FN:163,171,_ZN6L0Test13ResponderFakeD1Ev
FN:174,177,_ZNK6L0Test13ResponderFake6AddRefEv
FN:179,187,_ZNK6L0Test13ResponderFake7ReleaseEv
FN:189,204,_ZN6L0Test13ResponderFake14QueryInterfaceEj
FN:207,210,_ZN6L0Test13ResponderFake9ConfigureEPN12WPEFramework10PluginHost6IShellE
FN:213,219,_ZN6L0Test13ResponderFake7RespondERKN12WPEFramework8Exchange14GatewayContextERKNSt7__cxx1112basic_stringIcSt11char_traitsIcESaIcEEE
FN:221,229,_ZN6L0Test13ResponderFake4EmitERKN12WPEFramework8Exchange14GatewayContextERKNSt7__cxx1112basic_stringIcSt11char_traitsIcESaIcEEESD_
FN:231,240,_ZN6L0Test13ResponderFake7RequestEjjRKNSt7__cxx1112basic_stringIcSt11char_traitsIcESaIcEEES8_
FN:242,257,_ZN6L0Test13ResponderFake27GetGatewayConnectionContextEjRKNSt7__cxx1112basic_stringIcSt11char_traitsIcESaIcEEERS6_
FN:259,269,_ZN6L0Test13ResponderFake8RegisterEPN12WPEFramework8Exchange20IAppGatewayResponder13INotificationE
FN:271,282,_ZN6L0Test13ResponderFake10UnregisterEPN12WPEFramework8Exchange20IAppGatewayResponder13INotificationE
FN:285,285,_ZN6L0Test13ResponderFake19SetTransportEnabledEb
FN:287,291,_ZN6L0Test13ResponderFake20SetConnectionContextEjRKNSt7__cxx1112basic_stringIcSt11char_traitsIcESaIcEEES8_
FN:293,300,_ZN6L0Test13ResponderFake28SimulateAppConnectionChangedERKNSt7__cxx1112basic_stringIcSt11char_traitsIcESaIcEEEjb
FN:323,328,_ZN6L0Test17AuthenticatorFakeC1Ebb
FN:330,330,_ZN6L0Test17AuthenticatorFakeD0Ev
FN:330,330,_ZN6L0Test17AuthenticatorFakeD1Ev
FN:332,335,_ZNK6L0Test17AuthenticatorFake6AddRefEv
FN:337,345,_ZNK6L0Test17AuthenticatorFake7ReleaseEv
FN:347,358,_ZN6L0Test17AuthenticatorFake14QueryInterfaceEj
FN:360,365,_ZN6L0Test17AuthenticatorFake12AuthenticateERKNSt7__cxx1112basic_stringIcSt11char_traitsIcESaIcEEERS6_
FN:367,372,_ZN6L0Test17AuthenticatorFake12GetSessionIdERKNSt7__cxx1112basic_stringIcSt11char_traitsIcESaIcEEERS6_
FN:374,389,_ZN6L0Test17AuthenticatorFake20CheckPermissionGroupERKNSt7__cxx1112basic_stringIcSt11char_traitsIcESaIcEEES8_Rb
FN:409,412,_ZN6L0Test20AppNotificationsFakeC1Ev
FN:414,414,_ZN6L0Test20AppNotificationsFakeD0Ev
FN:414,414,_ZN6L0Test20AppNotificationsFakeD1Ev
FN:416,419,_ZNK6L0Test20AppNotificationsFake6AddRefEv
FN:421,429,_ZNK6L0Test20AppNotificationsFake7ReleaseEv
FN:431,442,_ZN6L0Test20AppNotificationsFake14QueryInterfaceEj
FN:444,450,_ZN6L0Test20AppNotificationsFake6NotifyERKNSt7__cxx1112basic_stringIcSt11char_traitsIcESaIcEEES8_
FN:452,460,_ZN6L0Test20AppNotificationsFake9SubscribeERKN12WPEFramework8Exchange17IAppNotifications22AppNotificationContextEbRKNSt7__cxx1112basic_stringIcSt11char_traitsIcESaIcEEESE_
FN:462,468,_ZN6L0Test20AppNotificationsFake4EmitERKNSt7__cxx1112basic_stringIcSt11char_traitsIcESaIcEEES8_S8_
FN:470,474,_ZN6L0Test20AppNotificationsFake7CleanupEjRKNSt7__cxx1112basic_stringIcSt11char_traitsIcESaIcEEE
FN:490,494,_ZN6L0Test18RequestHandlerFakeC1Ej
FN:496,496,_ZN6L0Test18RequestHandlerFakeD0Ev
FN:496,496,_ZN6L0Test18RequestHandlerFakeD1Ev
FN:498,501,_ZNK6L0Test18RequestHandlerFake6AddRefEv
FN:503,511,_ZNK6L0Test18RequestHandlerFake7ReleaseEv
FN:513,524,_ZN6L0Test18RequestHandlerFake14QueryInterfaceEj
FN:52,55,_ZN6L0Test12ResolverFakeC1Ev
FN:526,540,_ZN6L0Test18RequestHandlerFake23HandleAppGatewayRequestERKN12WPEFramework8Exchange14GatewayContextERKNSt7__cxx1112basic_stringIcSt11char_traitsIcESaIcEEESD_RSB_
FN:57,57,_ZN6L0Test12ResolverFakeD0Ev
FN:57,57,_ZN6L0Test12ResolverFakeD1Ev
FN:575,587,_ZN6L0Test11ServiceMock6ConfigC2Ebbb
FN:590,604,_ZN6L0Test11ServiceMockC1ENS0_6ConfigEb
FN:606,628,_ZN6L0Test11ServiceMockD0Ev
FN:606,628,_ZN6L0Test11ServiceMockD1Ev
FN:631,634,_ZNK6L0Test11ServiceMock6AddRefEv
FN:636,647,_ZNK6L0Test11ServiceMock7ReleaseEv
FN:649,679,_ZN6L0Test11ServiceMock14QueryInterfaceEj
FN:682,682,_ZN6L0Test11ServiceMock15EnableWebServerERKNSt7__cxx1112basic_stringIcSt11char_traitsIcESaIcEEES8_
FN:683,683,_ZN6L0Test11ServiceMock16DisableWebServerEv
FN:685,685,_ZNK6L0Test11ServiceMock5ModelB5cxx11Ev
FN:686,686,_ZNK6L0Test11ServiceMock10BackgroundEv
FN:687,687,_ZNK6L0Test11ServiceMock8AccessorB5cxx11Ev
FN:688,688,_ZNK6L0Test11ServiceMock9WebPrefixB5cxx11Ev
FN:689,696,_ZNK6L0Test11ServiceMock7LocatorB5cxx11Ev
FN:69,72,_ZNK6L0Test12ResolverFake6AddRefEv
FN:697,697,_ZNK6L0Test11ServiceMock9ClassNameB5cxx11Ev
FN:698,698,_ZNK6L0Test11ServiceMock8VersionsB5cxx11Ev
FN:699,699,_ZNK6L0Test11ServiceMock8CallsignB5cxx11Ev
FN:701,701,_ZNK6L0Test11ServiceMock14PersistentPathB5cxx11Ev
FN:702,702,_ZNK6L0Test11ServiceMock12VolatilePathB5cxx11Ev
FN:703,703,_ZNK6L0Test11ServiceMock8DataPathB5cxx11Ev
FN:704,704,_ZNK6L0Test11ServiceMock13ProxyStubPathB5cxx11Ev
FN:705,705,_ZNK6L0Test11ServiceMock10SystemPathB5cxx11Ev
FN:706,706,_ZNK6L0Test11ServiceMock10PluginPathB5cxx11Ev
FN:707,707,_ZNK6L0Test11ServiceMock14SystemRootPathB5cxx11Ev
FN:709,709,_ZN6L0Test11ServiceMock14SystemRootPathERKNSt7__cxx1112basic_stringIcSt11char_traitsIcESaIcEEE
FN:711,711,_ZNK6L0Test11ServiceMock7StartupEv
FN:712,712,_ZN6L0Test11ServiceMock7StartupEN12WPEFramework10PluginHost6IShell7startupE
FN:714,714,_ZNK6L0Test11ServiceMock10SubstituteERKNSt7__cxx1112basic_stringIcSt11char_traitsIcESaIcEEE
FN:716,716,_ZNK6L0Test11ServiceMock7ResumedEv
FN:717,717,_ZN6L0Test11ServiceMock7ResumedEb
FN:719,719,_ZNK6L0Test11ServiceMock7HashKeyB5cxx11Ev
FN:721,732,_ZNK6L0Test11ServiceMock10ConfigLineB5cxx11Ev
FN:733,733,_ZN6L0Test11ServiceMock10ConfigLineERKNSt7__cxx1112basic_stringIcSt11char_traitsIcESaIcEEE
FN:735,739,_ZNK6L0Test11ServiceMock8MetadataERNSt7__cxx1112basic_stringIcSt11char_traitsIcESaIcEEE
FN:74,82,_ZNK6L0Test12ResolverFake7ReleaseEv
FN:741,741,_ZNK6L0Test11ServiceMock11IsSupportedEh
FN:743,743,_ZN6L0Test11ServiceMock10SubSystemsEv
FN:745,745,_ZN6L0Test11ServiceMock6NotifyERKNSt7__cxx1112basic_stringIcSt11char_traitsIcESaIcEEE
FN:747,747,_ZN6L0Test11ServiceMock8RegisterEPN12WPEFramework10PluginHost7IPlugin13INotificationE
FN:748,748,_ZN6L0Test11ServiceMock10UnregisterEPN12WPEFramework10PluginHost7IPlugin13INotificationE
FN:750,750,_ZNK6L0Test11ServiceMock5StateEv
FN:752,805,_ZN6L0Test11ServiceMock24QueryInterfaceByCallsignEjRKNSt7__cxx1112basic_stringIcSt11char_traitsIcESaIcEEE
FN:807,807,_ZN6L0Test11ServiceMock8ActivateEN12WPEFramework10PluginHost6IShell6reasonE
FN:808,808,_ZN6L0Test11ServiceMock10DeactivateEN12WPEFramework10PluginHost6IShell6reasonE
FN:809,809,_ZN6L0Test11ServiceMock11UnavailableEN12WPEFramework10PluginHost6IShell6reasonE
FN:810,810,_ZN6L0Test11ServiceMock9HibernateEj
FN:811,811,_ZNK6L0Test11ServiceMock6ReasonEv
FN:813,816,_ZN6L0Test11ServiceMock6SubmitEjRKN12WPEFramework4Core9ProxyTypeINS2_4JSON8IElementEEE
FN:818,821,_ZN6L0Test11ServiceMock7COMLinkEv
FN:824,824,_ZN6L0Test11ServiceMock8RegisterEPN12WPEFramework3RPC17IRemoteConnection13INotificationE
FN:825,825,_ZN6L0Test11ServiceMock10UnregisterEPKN12WPEFramework3RPC17IRemoteConnection13INotificationE
FN:827,827,_ZN6L0Test11ServiceMock8RegisterEPN12WPEFramework10PluginHost6IShell8ICOMLink13INotificationE
FN:828,828,_ZN6L0Test11ServiceMock10UnregisterEPN12WPEFramework10PluginHost6IShell8ICOMLink13INotificationE
FN:830,833,_ZN6L0Test11ServiceMock16RemoteConnectionEj
FN:835,884,_ZN6L0Test11ServiceMock11InstantiateERKN12WPEFramework3RPC6ObjectEjRj
FN:84,95,_ZN6L0Test12ResolverFake14QueryInterfaceEj
FN:842,847,_ZZN6L0Test11ServiceMock11InstantiateERKN12WPEFramework3RPC6ObjectEjRjENKUlRKNSt7__cxx1112basic_stringIcSt11char_traitsIcESaIcEEESE_E_clESE_SE_
FN:892,892,_ZNK6L0Test11ServiceMock23GetAppNotificationsFakeEv
FN:893,893,_ZNK6L0Test11ServiceMock20GetAuthenticatorFakeEv
FN:894,894,_ZNK6L0Test11ServiceMock21GetRequestHandlerFakeEv
FN:98,101,_ZN6L0Test12ResolverFake9ConfigureEPN12WPEFramework10PluginHost6IShellE
FNDA:1,_ZN6L0Test12ResolverFake9ConfigureERKPN12WPEFramework3RPC13IIteratorTypeINSt7__cxx1112basic_stringIcSt11char_traitsIcESaIcEEELj5EEE
FNDA:16,_ZN6L0Test12ResolverFake7ResolveERKN12WPEFramework8Exchange14GatewayContextERKNSt7__cxx1112basic_stringIcSt11char_traitsIcESaIcEEESD_SD_RSB_
FNDA:34,_ZN6L0Test13ResponderFakeC1Eb
FNDA:8,_ZN6L0Test13ResponderFakeD0Ev
FNDA:8,_ZN6L0Test13ResponderFakeD1Ev
FNDA:70,_ZNK6L0Test13ResponderFake6AddRefEv
FNDA:78,_ZNK6L0Test13ResponderFake7ReleaseEv
FNDA:36,_ZN6L0Test13ResponderFake14QueryInterfaceEj
FNDA:26,_ZN6L0Test13ResponderFake9ConfigureEPN12WPEFramework10PluginHost6IShellE
FNDA:4,_ZN6L0Test13ResponderFake7RespondERKN12WPEFramework8Exchange14GatewayContextERKNSt7__cxx1112basic_stringIcSt11char_traitsIcESaIcEEE
FNDA:2,_ZN6L0Test13ResponderFake4EmitERKN12WPEFramework8Exchange14GatewayContextERKNSt7__cxx1112basic_stringIcSt11char_traitsIcESaIcEEESD_
FNDA:2,_ZN6L0Test13ResponderFake7RequestEjjRKNSt7__cxx1112basic_stringIcSt11char_traitsIcESaIcEEES8_
FNDA:3,_ZN6L0Test13ResponderFake27GetGatewayConnectionContextEjRKNSt7__cxx1112basic_stringIcSt11char_traitsIcESaIcEEERS6_
FNDA:1,_ZN6L0Test13ResponderFake8RegisterEPN12WPEFramework8Exchange20IAppGatewayResponder13INotificationE
FNDA:1,_ZN6L0Test13ResponderFake10UnregisterEPN12WPEFramework8Exchange20IAppGatewayResponder13INotificationE
FNDA:3,_ZN6L0Test13ResponderFake19SetTransportEnabledEb
FNDA:1,_ZN6L0Test13ResponderFake20SetConnectionContextEjRKNSt7__cxx1112basic_stringIcSt11char_traitsIcESaIcEEES8_
FNDA:1,_ZN6L0Test13ResponderFake28SimulateAppConnectionChangedERKNSt7__cxx1112basic_stringIcSt11char_traitsIcESaIcEEEjb
FNDA:2,_ZN6L0Test17AuthenticatorFakeC1Ebb
FNDA:2,_ZN6L0Test17AuthenticatorFakeD0Ev
FNDA:2,_ZN6L0Test17AuthenticatorFakeD1Ev
FNDA:2,_ZNK6L0Test17AuthenticatorFake6AddRefEv
FNDA:4,_ZNK6L0Test17AuthenticatorFake7ReleaseEv
FNDA:0,_ZN6L0Test17AuthenticatorFake14QueryInterfaceEj
FNDA:0,_ZN6L0Test17AuthenticatorFake12AuthenticateERKNSt7__cxx1112basic_stringIcSt11char_traitsIcESaIcEEERS6_
FNDA:0,_ZN6L0Test17AuthenticatorFake12GetSessionIdERKNSt7__cxx1112basic_stringIcSt11char_traitsIcESaIcEEERS6_
FNDA:2,_ZN6L0Test17AuthenticatorFake20CheckPermissionGroupERKNSt7__cxx1112basic_stringIcSt11char_traitsIcESaIcEEES8_Rb
FNDA:1,_ZN6L0Test20AppNotificationsFakeC1Ev
FNDA:1,_ZN6L0Test20AppNotificationsFakeD0Ev
FNDA:1,_ZN6L0Test20AppNotificationsFakeD1Ev
FNDA:1,_ZNK6L0Test20AppNotificationsFake6AddRefEv
FNDA:2,_ZNK6L0Test20AppNotificationsFake7ReleaseEv
FNDA:0,_ZN6L0Test20AppNotificationsFake14QueryInterfaceEj
FNDA:1,_ZN6L0Test20AppNotificationsFake6NotifyERKNSt7__cxx1112basic_stringIcSt11char_traitsIcESaIcEEES8_
FNDA:0,_ZN6L0Test20AppNotificationsFake9SubscribeERKN12WPEFramework8Exchange17IAppNotifications22AppNotificationContextEbRKNSt7__cxx1112basic_stringIcSt11char_traitsIcESaIcEEESE_
FNDA:0,_ZN6L0Test20AppNotificationsFake4EmitERKNSt7__cxx1112basic_stringIcSt11char_traitsIcESaIcEEES8_S8_
FNDA:0,_ZN6L0Test20AppNotificationsFake7CleanupEjRKNSt7__cxx1112basic_stringIcSt11char_traitsIcESaIcEEE
FNDA:1,_ZN6L0Test18RequestHandlerFakeC1Ej
FNDA:1,_ZN6L0Test18RequestHandlerFakeD0Ev
FNDA:1,_ZN6L0Test18RequestHandlerFakeD1Ev
FNDA:1,_ZNK6L0Test18RequestHandlerFake6AddRefEv
FNDA:2,_ZNK6L0Test18RequestHandlerFake7ReleaseEv
FNDA:0,_ZN6L0Test18RequestHandlerFake14QueryInterfaceEj
FNDA:26,_ZN6L0Test12ResolverFakeC1Ev
FNDA:1,_ZN6L0Test18RequestHandlerFake23HandleAppGatewayRequestERKN12WPEFramework8Exchange14GatewayContextERKNSt7__cxx1112basic_stringIcSt11char_traitsIcESaIcEEESD_RSB_
FNDA:0,_ZN6L0Test12ResolverFakeD0Ev
FNDA:0,_ZN6L0Test12ResolverFakeD1Ev
FNDA:35,_ZN6L0Test11ServiceMock6ConfigC2Ebbb
FNDA:35,_ZN6L0Test11ServiceMockC1ENS0_6ConfigEb
FNDA:7,_ZN6L0Test11ServiceMockD0Ev
FNDA:8,_ZN6L0Test11ServiceMockD1Ev
FNDA:16,_ZNK6L0Test11ServiceMock6AddRefEv
FNDA:50,_ZNK6L0Test11ServiceMock7ReleaseEv
FNDA:62,_ZN6L0Test11ServiceMock14QueryInterfaceEj
FNDA:0,_ZN6L0Test11ServiceMock15EnableWebServerERKNSt7__cxx1112basic_stringIcSt11char_traitsIcESaIcEEES8_
FNDA:0,_ZN6L0Test11ServiceMock16DisableWebServerEv
FNDA:0,_ZNK6L0Test11ServiceMock5ModelB5cxx11Ev
FNDA:0,_ZNK6L0Test11ServiceMock10BackgroundEv
FNDA:0,_ZNK6L0Test11ServiceMock8AccessorB5cxx11Ev
FNDA:0,_ZNK6L0Test11ServiceMock9WebPrefixB5cxx11Ev
FNDA:0,_ZNK6L0Test11ServiceMock7LocatorB5cxx11Ev
FNDA:54,_ZNK6L0Test12ResolverFake6AddRefEv
FNDA:0,_ZNK6L0Test11ServiceMock9ClassNameB5cxx11Ev
FNDA:0,_ZNK6L0Test11ServiceMock8VersionsB5cxx11Ev
FNDA:0,_ZNK6L0Test11ServiceMock8CallsignB5cxx11Ev
FNDA:0,_ZNK6L0Test11ServiceMock14PersistentPathB5cxx11Ev
FNDA:0,_ZNK6L0Test11ServiceMock12VolatilePathB5cxx11Ev
FNDA:0,_ZNK6L0Test11ServiceMock8DataPathB5cxx11Ev
FNDA:0,_ZNK6L0Test11ServiceMock13ProxyStubPathB5cxx11Ev
FNDA:0,_ZNK6L0Test11ServiceMock10SystemPathB5cxx11Ev
FNDA:0,_ZNK6L0Test11ServiceMock10PluginPathB5cxx11Ev
FNDA:0,_ZNK6L0Test11ServiceMock14SystemRootPathB5cxx11Ev
FNDA:0,_ZN6L0Test11ServiceMock14SystemRootPathERKNSt7__cxx1112basic_stringIcSt11char_traitsIcESaIcEEE
FNDA:0,_ZNK6L0Test11ServiceMock7StartupEv
FNDA:0,_ZN6L0Test11ServiceMock7StartupEN12WPEFramework10PluginHost6IShell7startupE
FNDA:0,_ZNK6L0Test11ServiceMock10SubstituteERKNSt7__cxx1112basic_stringIcSt11char_traitsIcESaIcEEE
FNDA:0,_ZNK6L0Test11ServiceMock7ResumedEv
FNDA:0,_ZN6L0Test11ServiceMock7ResumedEb
FNDA:0,_ZNK6L0Test11ServiceMock7HashKeyB5cxx11Ev
FNDA:0,_ZNK6L0Test11ServiceMock10ConfigLineB5cxx11Ev
FNDA:0,_ZN6L0Test11ServiceMock10ConfigLineERKNSt7__cxx1112basic_stringIcSt11char_traitsIcESaIcEEE
FNDA:0,_ZNK6L0Test11ServiceMock8MetadataERNSt7__cxx1112basic_stringIcSt11char_traitsIcESaIcEEE
FNDA:54,_ZNK6L0Test12ResolverFake7ReleaseEv
FNDA:0,_ZNK6L0Test11ServiceMock11IsSupportedEh
FNDA:0,_ZN6L0Test11ServiceMock10SubSystemsEv
FNDA:0,_ZN6L0Test11ServiceMock6NotifyERKNSt7__cxx1112basic_stringIcSt11char_traitsIcESaIcEEE
FNDA:0,_ZN6L0Test11ServiceMock8RegisterEPN12WPEFramework10PluginHost7IPlugin13INotificationE
FNDA:0,_ZN6L0Test11ServiceMock10UnregisterEPN12WPEFramework10PluginHost7IPlugin13INotificationE
FNDA:0,_ZNK6L0Test11ServiceMock5StateEv
FNDA:4,_ZN6L0Test11ServiceMock24QueryInterfaceByCallsignEjRKNSt7__cxx1112basic_stringIcSt11char_traitsIcESaIcEEE
FNDA:0,_ZN6L0Test11ServiceMock8ActivateEN12WPEFramework10PluginHost6IShell6reasonE
FNDA:0,_ZN6L0Test11ServiceMock10DeactivateEN12WPEFramework10PluginHost6IShell6reasonE
FNDA:0,_ZN6L0Test11ServiceMock11UnavailableEN12WPEFramework10PluginHost6IShell6reasonE
FNDA:0,_ZN6L0Test11ServiceMock9HibernateEj
FNDA:0,_ZNK6L0Test11ServiceMock6ReasonEv
FNDA:0,_ZN6L0Test11ServiceMock6SubmitEjRKN12WPEFramework4Core9ProxyTypeINS2_4JSON8IElementEEE
FNDA:26,_ZN6L0Test11ServiceMock7COMLinkEv
FNDA:0,_ZN6L0Test11ServiceMock8RegisterEPN12WPEFramework3RPC17IRemoteConnection13INotificationE
FNDA:0,_ZN6L0Test11ServiceMock10UnregisterEPKN12WPEFramework3RPC17IRemoteConnection13INotificationE
FNDA:0,_ZN6L0Test11ServiceMock8RegisterEPN12WPEFramework10PluginHost6IShell8ICOMLink13INotificationE
FNDA:0,_ZN6L0Test11ServiceMock10UnregisterEPN12WPEFramework10PluginHost6IShell8ICOMLink13INotificationE
FNDA:26,_ZN6L0Test11ServiceMock16RemoteConnectionEj
FNDA:0,_ZN6L0Test11ServiceMock11InstantiateERKN12WPEFramework3RPC6ObjectEjRj
FNDA:28,_ZN6L0Test12ResolverFake14QueryInterfaceEj
FNDA:0,_ZZN6L0Test11ServiceMock11InstantiateERKN12WPEFramework3RPC6ObjectEjRjENKUlRKNSt7__cxx1112basic_stringIcSt11char_traitsIcESaIcEEESE_E_clESE_SE_
FNDA:1,_ZNK6L0Test11ServiceMock23GetAppNotificationsFakeEv
FNDA:1,_ZNK6L0Test11ServiceMock20GetAuthenticatorFakeEv
FNDA:1,_ZNK6L0Test11ServiceMock21GetRequestHandlerFakeEv
FNDA:26,_ZN6L0Test12ResolverFake9ConfigureEPN12WPEFramework10PluginHost6IShellE
FNF:109
FNH:54
DA:52,26
DA:53,26
DA:55,26
DA:57,0
DA:69,54
DA:71,108
DA:74,54
DA:76,54
DA:77,54
DA:78,0
DA:79,0
DA:81,54
DA:84,28
DA:86,28
DA:87,2
DA:88,2
DA:90,26
DA:91,26
DA:92,26
DA:94,0
DA:98,26
DA:100,26
DA:104,1
DA:106,1
DA:109,16
DA:116,16
DA:117,16
DA:118,16
DA:119,16
DA:120,16
DA:123,16
DA:124,1
DA:125,1
DA:126,1
DA:127,1
DA:129,15
DA:130,2
DA:131,2
DA:132,2
DA:133,2
DA:135,13
DA:136,2
DA:137,2
DA:138,2
DA:139,2
DA:143,11
DA:144,11
DA:145,11
DA:146,11
DA:157,34
DA:158,34
DA:159,68
DA:161,34
DA:163,16
DA:164,8
DA:165,8
DA:166,0
DA:167,0
DA:170,8
DA:171,16
DA:174,70
DA:176,140
DA:179,78
DA:181,78
DA:182,78
DA:183,8
DA:184,8
DA:186,70
DA:189,36
DA:191,36
DA:192,5
DA:193,5
DA:195,31
DA:196,26
DA:197,26
DA:199,5
DA:200,5
DA:201,5
DA:203,0
DA:207,26
DA:209,26
DA:213,4
DA:216,4
DA:217,4
DA:218,4
DA:221,2
DA:225,2
DA:226,2
DA:227,2
DA:228,2
DA:231,2
DA:236,2
DA:237,2
DA:238,2
DA:239,2
DA:242,3
DA:246,3
DA:247,3
DA:248,3
DA:249,1
DA:251,2
DA:252,2
DA:253,1
DA:255,1
DA:256,1
DA:257,3
DA:259,1
DA:261,1
DA:262,0
DA:264,1
DA:265,1
DA:266,1
DA:268,1
DA:271,1
DA:273,1
DA:274,0
DA:276,1
DA:277,1
DA:278,1
DA:279,1
DA:281,1
DA:285,3
DA:287,1
DA:289,1
DA:290,1
DA:291,1
DA:293,1
DA:295,2
DA:296,1
DA:297,1
DA:300,1
DA:323,2
DA:324,2
DA:325,2
DA:326,2
DA:328,2
DA:330,4
DA:332,2
DA:334,4
DA:337,4
DA:339,4
DA:340,4
DA:341,2
DA:342,2
DA:344,2
DA:347,0
DA:349,0
DA:350,0
DA:351,0
DA:353,0
DA:354,0
DA:355,0
DA:357,0
DA:360,0
DA:362,0
DA:363,0
DA:364,0
DA:367,0
DA:369,0
DA:370,0
DA:371,0
DA:374,2
DA:378,2
DA:379,2
DA:380,2
DA:382,2
DA:383,0
DA:384,0
DA:387,2
DA:388,2
DA:409,1
DA:410,1
DA:412,1
DA:414,2
DA:416,1
DA:418,2
DA:421,2
DA:423,2
DA:424,2
DA:425,1
DA:426,1
DA:428,1
DA:431,0
DA:433,0
DA:434,0
DA:435,0
DA:437,0
DA:438,0
DA:439,0
DA:441,0
DA:444,1
DA:446,1
DA:447,1
DA:448,1
DA:449,1
DA:452,0
DA:458,0
DA:459,0
DA:462,0
DA:466,0
DA:467,0
DA:470,0
DA:472,0
DA:473,0
DA:490,1
DA:491,1
DA:492,1
DA:494,1
DA:496,2
DA:498,1
DA:500,2
DA:503,2
DA:505,2
DA:506,2
DA:507,1
DA:508,1
DA:510,1
DA:513,0
DA:515,0
DA:516,0
DA:517,0
DA:519,0
DA:520,0
DA:521,0
DA:523,0
DA:526,1
DA:531,1
DA:532,1
DA:533,1
DA:535,1
DA:537,1
DA:539,1
DA:575,35
DA:576,35
DA:577,35
DA:578,35
DA:579,35
DA:580,35
DA:581,35
DA:582,35
DA:583,35
DA:584,70
DA:585,35
DA:587,35
DA:590,35
DA:591,70
DA:592,35
DA:593,70
DA:594,70
DA:595,35
DA:596,35
DA:597,35
DA:598,35
DA:599,35
DA:600,35
DA:601,35
DA:604,35
DA:606,15
DA:607,8
DA:608,8
DA:609,0
DA:610,0
DA:612,8
DA:613,8
DA:614,8
DA:616,8
DA:617,1
DA:618,1
DA:620,8
DA:621,2
DA:622,2
DA:624,8
DA:625,1
DA:626,1
DA:628,15
DA:631,16
DA:633,32
DA:636,50
DA:638,50
DA:639,50
DA:641,34
DA:642,7
DA:644,34
DA:646,16
DA:649,62
DA:651,62
DA:652,0
DA:653,0
DA:657,62
DA:658,27
DA:659,26
DA:660,26
DA:662,26
DA:663,26
DA:665,1
DA:667,35
DA:668,35
DA:669,34
DA:670,34
DA:672,34
DA:673,34
DA:675,1
DA:678,0
DA:682,0
DA:683,0
DA:685,0
DA:686,0
DA:687,0
DA:688,0
DA:689,0
DA:691,0
DA:692,0
DA:693,0
DA:695,0
DA:697,0
DA:698,0
DA:699,0
DA:701,0
DA:702,0
DA:703,0
DA:704,0
DA:705,0
DA:706,0
DA:707,0
DA:709,0
DA:711,0
DA:712,0
DA:714,0
DA:716,0
DA:717,0
DA:719,0
DA:721,0
DA:728,0
DA:729,0
DA:731,0
DA:733,0
DA:735,0
DA:737,0
DA:738,0
DA:741,0
DA:743,0
DA:745,0
DA:747,0
DA:748,0
DA:750,0
DA:752,4
DA:756,4
DA:757,1
DA:758,1
DA:759,1
DA:761,1
DA:762,1
DA:764,0
DA:767,3
DA:768,2
DA:769,2
DA:770,2
DA:772,2
DA:773,2
DA:775,0
DA:778,1
DA:780,0
DA:782,0
DA:783,0
DA:784,0
DA:786,0
DA:787,0
DA:790,0
DA:793,1
DA:794,1
DA:795,1
DA:796,1
DA:798,1
DA:799,1
DA:801,0
DA:804,0
DA:807,0
DA:808,0
DA:809,0
DA:810,0
DA:811,0
DA:813,0
DA:815,0
DA:818,26
DA:820,26
DA:824,0
DA:825,0
DA:827,0
DA:828,0
DA:830,26
DA:832,26
DA:835,0
DA:837,0
DA:838,0
DA:840,0
DA:842,0
DA:843,0
DA:844,0
DA:846,0
DA:850,0
DA:851,0
DA:852,0
DA:853,0
DA:854,0
DA:856,0
DA:857,0
DA:859,0
DA:860,0
DA:862,0
DA:863,0
DA:867,0
DA:868,0
DA:869,0
DA:870,0
DA:871,0
DA:873,0
DA:874,0
DA:876,0
DA:877,0
DA:879,0
DA:880,0
DA:883,0
DA:884,0
DA:892,1
DA:893,1
DA:894,1
LF:426
LH:273
end_of_record
TN:
SF:/usr/include/c++/13/atomic
FN:103,104,_ZNSt6atomicIbE5storeEbSt12memory_order
FN:111,112,_ZNKSt6atomicIbE4loadESt12memory_order
FN:76,76,_ZNSt6atomicIbEC2Eb
FN:764,764,_ZNSt6atomicIhEC2Eh
FN:856,856,_ZNSt6atomicIjEC2Ej
FNDA:8,_ZNSt6atomicIbE5storeEbSt12memory_order
FNDA:19,_ZNKSt6atomicIbE4loadESt12memory_order
FNDA:8,_ZNSt6atomicIbEC2Eb
FNDA:0,_ZNSt6atomicIhEC2Eh
FNDA:196,_ZNSt6atomicIjEC2Ej
FNF:5
FNH:4
DA:76,8
DA:103,8
DA:104,8
DA:111,19
DA:112,38
DA:764,0
DA:856,196
LF:7
LH:6
end_of_record
TN:
SF:/usr/include/c++/13/bits/alloc_traits.h
FNF:0
FNH:0
DA:482,1010
DA:517,4207
DA:538,915
DA:542,915
DA:562,4129
DA:574,41
DA:588,78
DA:661,8
DA:675,8
DA:705,0
DA:720,0
DA:722,0
DA:737,0
DA:757,0
DA:759,0
DA:948,38
DA:949,38
LF:17
LH:11
end_of_record
TN:
SF:/usr/include/c++/13/bits/allocated_ptr.h
FN:53,55,_ZNSt15__allocated_ptrISaISt10_List_nodeIN12WPEFramework4Core10ThreadPool8ExecutorEEEEC2ERS6_PS5_
FN:53,55,_ZNSt15__allocated_ptrISaISt10_List_nodeIN12WPEFramework4Core4JSON6StringEEEEC2ERS6_PS5_
FN:53,55,_ZNSt15__allocated_ptrISaISt10_List_nodeIN12WPEFramework4Core9ProxyTypeINS2_18ProxyContainerTypeINS2_13ProxyPoolTypeINS1_3Web12JSONBodyTypeINS2_7JSONRPC7MessageEEEEESA_SA_EEEEEEEC2ERSF_PSE_
FN:53,55,_ZNSt15__allocated_ptrISaISt10_List_nodeIN12WPEFramework4Core9ProxyTypeINS2_18ProxyContainerTypeINS2_13ProxyPoolTypeINS1_3Web7RequestEEES7_S7_EEEEEEEC2ERSC_PSB_
FN:53,55,_ZNSt15__allocated_ptrISaISt10_List_nodeIN12WPEFramework4Core9ProxyTypeINS2_9IDispatchEEEEEEC2ERS7_PS6_
FN:53,55,_ZNSt15__allocated_ptrISaISt10_List_nodeIN12WPEFramework4Core9TimerTypeINS2_10WorkerPool5TimerEE9TimedInfoIS5_EEEEEC2ERSA_PS9_
FN:53,55,_ZNSt15__allocated_ptrISaISt10_List_nodeIN12WPEFramework6Plugin24RegionalResolutionConfig6RegionEEEEC2ERS6_PS5_
FN:53,55,_ZNSt15__allocated_ptrISaISt10_List_nodeIPN12WPEFramework8Exchange20IAppGatewayResponder13INotificationEEEEC2ERS7_PS6_
FN:53,55,_ZNSt15__allocated_ptrISaISt10_List_nodeISt4pairIPKcPN12WPEFramework4Core4JSON8IElementEEEEEC2ERSB_PSA_
FN:53,55,_ZNSt15__allocated_ptrISaISt23_Sp_counted_ptr_inplaceIN12WPEFramework5Utils17JSONRPCDirectLinkESaIvELN9__gnu_cxx12_Lock_policyE2EEEEC2ERS8_PS7_
FN:53,55,_ZNSt15__allocated_ptrISaISt23_Sp_counted_ptr_inplaceIN12WPEFramework6Plugin8ResolverESaIvELN9__gnu_cxx12_Lock_policyE2EEEEC2ERS8_PS7_
FN:71,75,_ZNSt15__allocated_ptrISaISt10_List_nodeIN12WPEFramework4Core10ThreadPool8ExecutorEEEED2Ev
FN:71,75,_ZNSt15__allocated_ptrISaISt10_List_nodeIN12WPEFramework4Core4JSON6StringEEEED2Ev
FN:71,75,_ZNSt15__allocated_ptrISaISt10_List_nodeIN12WPEFramework4Core9ProxyTypeINS2_18ProxyContainerTypeINS2_13ProxyPoolTypeINS1_3Web12JSONBodyTypeINS2_7JSONRPC7MessageEEEEESA_SA_EEEEEEED2Ev
FN:71,75,_ZNSt15__allocated_ptrISaISt10_List_nodeIN12WPEFramework4Core9ProxyTypeINS2_18ProxyContainerTypeINS2_13ProxyPoolTypeINS1_3Web7RequestEEES7_S7_EEEEEEED2Ev
FN:71,75,_ZNSt15__allocated_ptrISaISt10_List_nodeIN12WPEFramework4Core9ProxyTypeINS2_9IDispatchEEEEEED2Ev
FN:71,75,_ZNSt15__allocated_ptrISaISt10_List_nodeIN12WPEFramework4Core9TimerTypeINS2_10WorkerPool5TimerEE9TimedInfoIS5_EEEEED2Ev
FN:71,75,_ZNSt15__allocated_ptrISaISt10_List_nodeIN12WPEFramework6Plugin24RegionalResolutionConfig6RegionEEEED2Ev
FN:71,75,_ZNSt15__allocated_ptrISaISt10_List_nodeIPN12WPEFramework8Exchange20IAppGatewayResponder13INotificationEEEED2Ev
FN:71,75,_ZNSt15__allocated_ptrISaISt10_List_nodeISt4pairIPKcPN12WPEFramework4Core4JSON8IElementEEEEED2Ev
FN:71,75,_ZNSt15__allocated_ptrISaISt23_Sp_counted_ptr_inplaceIN12WPEFramework5Utils17JSONRPCDirectLinkESaIvELN9__gnu_cxx12_Lock_policyE2EEEED2Ev
FN:71,75,_ZNSt15__allocated_ptrISaISt23_Sp_counted_ptr_inplaceIN12WPEFramework6Plugin8ResolverESaIvELN9__gnu_cxx12_Lock_policyE2EEEED2Ev
FN:79,83,_ZNSt15__allocated_ptrISaISt10_List_nodeIN12WPEFramework4Core10ThreadPool8ExecutorEEEEaSEDn
FN:79,83,_ZNSt15__allocated_ptrISaISt10_List_nodeIN12WPEFramework4Core4JSON6StringEEEEaSEDn
FN:79,83,_ZNSt15__allocated_ptrISaISt10_List_nodeIN12WPEFramework4Core9ProxyTypeINS2_18ProxyContainerTypeINS2_13ProxyPoolTypeINS1_3Web12JSONBodyTypeINS2_7JSONRPC7MessageEEEEESA_SA_EEEEEEEaSEDn
FN:79,83,_ZNSt15__allocated_ptrISaISt10_List_nodeIN12WPEFramework4Core9ProxyTypeINS2_18ProxyContainerTypeINS2_13ProxyPoolTypeINS1_3Web7RequestEEES7_S7_EEEEEEEaSEDn
FN:79,83,_ZNSt15__allocated_ptrISaISt10_List_nodeIN12WPEFramework4Core9ProxyTypeINS2_9IDispatchEEEEEEaSEDn
FN:79,83,_ZNSt15__allocated_ptrISaISt10_List_nodeIN12WPEFramework4Core9TimerTypeINS2_10WorkerPool5TimerEE9TimedInfoIS5_EEEEEaSEDn
FN:79,83,_ZNSt15__allocated_ptrISaISt10_List_nodeIN12WPEFramework6Plugin24RegionalResolutionConfig6RegionEEEEaSEDn
FN:79,83,_ZNSt15__allocated_ptrISaISt10_List_nodeIPN12WPEFramework8Exchange20IAppGatewayResponder13INotificationEEEEaSEDn
FN:79,83,_ZNSt15__allocated_ptrISaISt10_List_nodeISt4pairIPKcPN12WPEFramework4Core4JSON8IElementEEEEEaSEDn
FN:79,83,_ZNSt15__allocated_ptrISaISt23_Sp_counted_ptr_inplaceIN12WPEFramework5Utils17JSONRPCDirectLinkESaIvELN9__gnu_cxx12_Lock_policyE2EEEEaSEDn
FN:79,83,_ZNSt15__allocated_ptrISaISt23_Sp_counted_ptr_inplaceIN12WPEFramework6Plugin8ResolverESaIvELN9__gnu_cxx12_Lock_policyE2EEEEaSEDn
FN:86,86,_ZNSt15__allocated_ptrISaISt23_Sp_counted_ptr_inplaceIN12WPEFramework5Utils17JSONRPCDirectLinkESaIvELN9__gnu_cxx12_Lock_policyE2EEEE3getEv
FN:86,86,_ZNSt15__allocated_ptrISaISt23_Sp_counted_ptr_inplaceIN12WPEFramework6Plugin8ResolverESaIvELN9__gnu_cxx12_Lock_policyE2EEEE3getEv
FN:96,99,_ZSt18__allocate_guardedISaISt23_Sp_counted_ptr_inplaceIN12WPEFramework5Utils17JSONRPCDirectLinkESaIvELN9__gnu_cxx12_Lock_policyE2EEEESt15__allocated_ptrIT_ERSA_
FN:96,99,_ZSt18__allocate_guardedISaISt23_Sp_counted_ptr_inplaceIN12WPEFramework6Plugin8ResolverESaIvELN9__gnu_cxx12_Lock_policyE2EEEESt15__allocated_ptrIT_ERSA_
FNDA:2,_ZNSt15__allocated_ptrISaISt10_List_nodeIN12WPEFramework4Core10ThreadPool8ExecutorEEEEC2ERS6_PS5_
FNDA:0,_ZNSt15__allocated_ptrISaISt10_List_nodeIN12WPEFramework4Core4JSON6StringEEEEC2ERS6_PS5_
FNDA:0,_ZNSt15__allocated_ptrISaISt10_List_nodeIN12WPEFramework4Core9ProxyTypeINS2_18ProxyContainerTypeINS2_13ProxyPoolTypeINS1_3Web12JSONBodyTypeINS2_7JSONRPC7MessageEEEEESA_SA_EEEEEEEC2ERSF_PSE_
FNDA:0,_ZNSt15__allocated_ptrISaISt10_List_nodeIN12WPEFramework4Core9ProxyTypeINS2_18ProxyContainerTypeINS2_13ProxyPoolTypeINS1_3Web7RequestEEES7_S7_EEEEEEEC2ERSC_PSB_
FNDA:7,_ZNSt15__allocated_ptrISaISt10_List_nodeIN12WPEFramework4Core9ProxyTypeINS2_9IDispatchEEEEEEC2ERS7_PS6_
FNDA:0,_ZNSt15__allocated_ptrISaISt10_List_nodeIN12WPEFramework4Core9TimerTypeINS2_10WorkerPool5TimerEE9TimedInfoIS5_EEEEEC2ERSA_PS9_
FNDA:0,_ZNSt15__allocated_ptrISaISt10_List_nodeIN12WPEFramework6Plugin24RegionalResolutionConfig6RegionEEEEC2ERS6_PS5_
FNDA:2,_ZNSt15__allocated_ptrISaISt10_List_nodeIPN12WPEFramework8Exchange20IAppGatewayResponder13INotificationEEEEC2ERS7_PS6_
FNDA:259,_ZNSt15__allocated_ptrISaISt10_List_nodeISt4pairIPKcPN12WPEFramework4Core4JSON8IElementEEEEEC2ERSB_PSA_
FNDA:0,_ZNSt15__allocated_ptrISaISt23_Sp_counted_ptr_inplaceIN12WPEFramework5Utils17JSONRPCDirectLinkESaIvELN9__gnu_cxx12_Lock_policyE2EEEEC2ERS8_PS7_
FNDA:16,_ZNSt15__allocated_ptrISaISt23_Sp_counted_ptr_inplaceIN12WPEFramework6Plugin8ResolverESaIvELN9__gnu_cxx12_Lock_policyE2EEEEC2ERS8_PS7_
FNDA:2,_ZNSt15__allocated_ptrISaISt10_List_nodeIN12WPEFramework4Core10ThreadPool8ExecutorEEEED2Ev
FNDA:0,_ZNSt15__allocated_ptrISaISt10_List_nodeIN12WPEFramework4Core4JSON6StringEEEED2Ev
FNDA:0,_ZNSt15__allocated_ptrISaISt10_List_nodeIN12WPEFramework4Core9ProxyTypeINS2_18ProxyContainerTypeINS2_13ProxyPoolTypeINS1_3Web12JSONBodyTypeINS2_7JSONRPC7MessageEEEEESA_SA_EEEEEEED2Ev
FNDA:0,_ZNSt15__allocated_ptrISaISt10_List_nodeIN12WPEFramework4Core9ProxyTypeINS2_18ProxyContainerTypeINS2_13ProxyPoolTypeINS1_3Web7RequestEEES7_S7_EEEEEEED2Ev
FNDA:7,_ZNSt15__allocated_ptrISaISt10_List_nodeIN12WPEFramework4Core9ProxyTypeINS2_9IDispatchEEEEEED2Ev
FNDA:0,_ZNSt15__allocated_ptrISaISt10_List_nodeIN12WPEFramework4Core9TimerTypeINS2_10WorkerPool5TimerEE9TimedInfoIS5_EEEEED2Ev
FNDA:0,_ZNSt15__allocated_ptrISaISt10_List_nodeIN12WPEFramework6Plugin24RegionalResolutionConfig6RegionEEEED2Ev
FNDA:2,_ZNSt15__allocated_ptrISaISt10_List_nodeIPN12WPEFramework8Exchange20IAppGatewayResponder13INotificationEEEED2Ev
FNDA:259,_ZNSt15__allocated_ptrISaISt10_List_nodeISt4pairIPKcPN12WPEFramework4Core4JSON8IElementEEEEED2Ev
FNDA:0,_ZNSt15__allocated_ptrISaISt23_Sp_counted_ptr_inplaceIN12WPEFramework5Utils17JSONRPCDirectLinkESaIvELN9__gnu_cxx12_Lock_policyE2EEEED2Ev
FNDA:16,_ZNSt15__allocated_ptrISaISt23_Sp_counted_ptr_inplaceIN12WPEFramework6Plugin8ResolverESaIvELN9__gnu_cxx12_Lock_policyE2EEEED2Ev
FNDA:2,_ZNSt15__allocated_ptrISaISt10_List_nodeIN12WPEFramework4Core10ThreadPool8ExecutorEEEEaSEDn
FNDA:0,_ZNSt15__allocated_ptrISaISt10_List_nodeIN12WPEFramework4Core4JSON6StringEEEEaSEDn
FNDA:0,_ZNSt15__allocated_ptrISaISt10_List_nodeIN12WPEFramework4Core9ProxyTypeINS2_18ProxyContainerTypeINS2_13ProxyPoolTypeINS1_3Web12JSONBodyTypeINS2_7JSONRPC7MessageEEEEESA_SA_EEEEEEEaSEDn
FNDA:0,_ZNSt15__allocated_ptrISaISt10_List_nodeIN12WPEFramework4Core9ProxyTypeINS2_18ProxyContainerTypeINS2_13ProxyPoolTypeINS1_3Web7RequestEEES7_S7_EEEEEEEaSEDn
FNDA:7,_ZNSt15__allocated_ptrISaISt10_List_nodeIN12WPEFramework4Core9ProxyTypeINS2_9IDispatchEEEEEEaSEDn
FNDA:0,_ZNSt15__allocated_ptrISaISt10_List_nodeIN12WPEFramework4Core9TimerTypeINS2_10WorkerPool5TimerEE9TimedInfoIS5_EEEEEaSEDn
FNDA:0,_ZNSt15__allocated_ptrISaISt10_List_nodeIN12WPEFramework6Plugin24RegionalResolutionConfig6RegionEEEEaSEDn
FNDA:2,_ZNSt15__allocated_ptrISaISt10_List_nodeIPN12WPEFramework8Exchange20IAppGatewayResponder13INotificationEEEEaSEDn
FNDA:259,_ZNSt15__allocated_ptrISaISt10_List_nodeISt4pairIPKcPN12WPEFramework4Core4JSON8IElementEEEEEaSEDn
FNDA:0,_ZNSt15__allocated_ptrISaISt23_Sp_counted_ptr_inplaceIN12WPEFramework5Utils17JSONRPCDirectLinkESaIvELN9__gnu_cxx12_Lock_policyE2EEEEaSEDn
FNDA:8,_ZNSt15__allocated_ptrISaISt23_Sp_counted_ptr_inplaceIN12WPEFramework6Plugin8ResolverESaIvELN9__gnu_cxx12_Lock_policyE2EEEEaSEDn
FNDA:0,_ZNSt15__allocated_ptrISaISt23_Sp_counted_ptr_inplaceIN12WPEFramework5Utils17JSONRPCDirectLinkESaIvELN9__gnu_cxx12_Lock_policyE2EEEE3getEv
FNDA:8,_ZNSt15__allocated_ptrISaISt23_Sp_counted_ptr_inplaceIN12WPEFramework6Plugin8ResolverESaIvELN9__gnu_cxx12_Lock_policyE2EEEE3getEv
FNDA:0,_ZSt18__allocate_guardedISaISt23_Sp_counted_ptr_inplaceIN12WPEFramework5Utils17JSONRPCDirectLinkESaIvELN9__gnu_cxx12_Lock_policyE2EEEESt15__allocated_ptrIT_ERSA_
FNDA:8,_ZSt18__allocate_guardedISaISt23_Sp_counted_ptr_inplaceIN12WPEFramework6Plugin8ResolverESaIvELN9__gnu_cxx12_Lock_policyE2EEEESt15__allocated_ptrIT_ERSA_
FNF:37
FNH:17
DA:53,286
DA:54,286
DA:55,286
DA:71,286
DA:73,286
DA:74,8
DA:75,286
DA:79,278
DA:81,278
DA:82,278
DA:86,8
DA:96,8
DA:98,8
LF:13
LH:13
end_of_record
TN:
SF:/usr/include/c++/13/bits/allocator.h
FNF:0
FNH:0
DA:163,15484
DA:168,125
DA:178,116
DA:184,13477
DA:223,0
LF:5
LH:4
end_of_record
TN:
SF:/usr/include/c++/13/bits/atomic_base.h
FN:107,110,_ZStanSt12memory_orderSt23__memory_order_modifier
FN:362,362,_ZNSt13__atomic_baseIbEC2Eb
FN:362,362,_ZNSt13__atomic_baseIhEC2Eh
FN:362,362,_ZNSt13__atomic_baseIjEC2Ej
FN:364,365,_ZNKSt13__atomic_baseIhEcvhEv
FN:364,365,_ZNKSt13__atomic_baseIjEcvjEv
FN:371,375,_ZNSt13__atomic_baseIhEaSEh
FN:385,386,_ZNSt13__atomic_baseIjEppEi
FN:393,394,_ZNSt13__atomic_baseIjEmmEi
FN:401,402,_ZNSt13__atomic_baseIjEppEv
FN:409,410,_ZNSt13__atomic_baseIjEmmEv
FN:441,442,_ZNSt13__atomic_baseIhEoREh
FNDA:180,_ZStanSt12memory_orderSt23__memory_order_modifier
FNDA:8,_ZNSt13__atomic_baseIbEC2Eb
FNDA:0,_ZNSt13__atomic_baseIhEC2Eh
FNDA:196,_ZNSt13__atomic_baseIjEC2Ej
FNDA:0,_ZNKSt13__atomic_baseIhEcvhEv
FNDA:130,_ZNKSt13__atomic_baseIjEcvjEv
FNDA:0,_ZNSt13__atomic_baseIhEaSEh
FNDA:123,_ZNSt13__atomic_baseIjEppEi
FNDA:0,_ZNSt13__atomic_baseIjEmmEi
FNDA:0,_ZNSt13__atomic_baseIjEppEv
FNDA:127,_ZNSt13__atomic_baseIjEmmEv
FNDA:0,_ZNSt13__atomic_baseIhEoREh
FNF:12
FNH:6
DA:107,180
DA:109,180
DA:362,204
DA:364,130
DA:365,130
DA:371,0
DA:373,0
DA:374,0
DA:385,123
DA:386,123
DA:393,0
DA:394,0
DA:401,0
DA:402,0
DA:409,127
DA:410,127
DA:441,0
DA:442,0
DA:476,16
DA:477,16
DA:478,16
DA:479,16
DA:481,16
DA:482,16
DA:501,164
DA:502,164
DA:503,164
DA:505,164
DA:635,274
DA:645,202
LF:30
LH:21
end_of_record
TN:
SF:/usr/include/c++/13/bits/basic_string.h
FN:3528,3541,_ZSt12__str_concatINSt7__cxx1112basic_stringIcSt11char_traitsIcESaIcEEEET_PKNS6_10value_typeENS6_9size_typeES9_SA_RKNS6_14allocator_typeE
FN:3571,3579,_ZStplIcSt11char_traitsIcESaIcEENSt7__cxx1112basic_stringIT_T0_T1_EEPKS5_RKS8_
FN:3607,3615,_ZStplIcSt11char_traitsIcESaIcEENSt7__cxx1112basic_stringIT_T0_T1_EERKS8_PKS5_
FN:3625,3631,_ZStplIcSt11char_traitsIcESaIcEENSt7__cxx1112basic_stringIT_T0_T1_EERKS8_S5_
FN:3637,3639,_ZStplIcSt11char_traitsIcESaIcEENSt7__cxx1112basic_stringIT_T0_T1_EEOS8_RKS8_
FN:3644,3646,_ZStplIcSt11char_traitsIcESaIcEENSt7__cxx1112basic_stringIT_T0_T1_EERKS8_OS8_
FN:3674,3676,_ZStplIcSt11char_traitsIcESaIcEENSt7__cxx1112basic_stringIT_T0_T1_EEPKS5_OS8_
FN:3688,3690,_ZStplIcSt11char_traitsIcESaIcEENSt7__cxx1112basic_stringIT_T0_T1_EEOS8_PKS5_
FN:3710,3716,_ZSteqIcSt11char_traitsIcESaIcEEbRKNSt7__cxx1112basic_stringIT_T0_T1_EESA_
FN:3727,3732,_ZSteqIcSt11char_traitsIcESaIcEEbRKNSt7__cxx1112basic_stringIT_T0_T1_EEPKS5_
FN:3788,3791,_ZStneIcSt11char_traitsIcESaIcEEbRKNSt7__cxx1112basic_stringIT_T0_T1_EESA_
FN:3815,3817,_ZStneIcSt11char_traitsIcESaIcEEbRKNSt7__cxx1112basic_stringIT_T0_T1_EEPKS5_
FN:4177,4185,_ZNSt7__cxx119to_stringEj
FN:4407,4408,_ZNKSt15__str_hash_baseIcSaIcENSt7__cxx1112basic_stringIcSt11char_traitsIcES0_EEEclERKS5_
FN:641,650,_ZNSt7__cxx1112basic_stringIcSt11char_traitsIcESaIcEEC2IS3_EEPKcRKS3_
FN:664,666,_ZNSt7__cxx1112basic_stringIcSt11char_traitsIcESaIcEEC2IS3_EEmcRKS3_
FN:760,770,_ZNSt7__cxx1112basic_stringIcSt11char_traitsIcESaIcEEC2IPKcvEET_S8_RKS3_
FN:760,770,_ZNSt7__cxx1112basic_stringIcSt11char_traitsIcESaIcEEC2ISt19istreambuf_iteratorIcS2_EvEET_S8_RKS3_
FNDA:69,_ZSt12__str_concatINSt7__cxx1112basic_stringIcSt11char_traitsIcESaIcEEEET_PKNS6_10value_typeENS6_9size_typeES9_SA_RKNS6_14allocator_typeE
FNDA:69,_ZStplIcSt11char_traitsIcESaIcEENSt7__cxx1112basic_stringIT_T0_T1_EEPKS5_RKS8_
FNDA:0,_ZStplIcSt11char_traitsIcESaIcEENSt7__cxx1112basic_stringIT_T0_T1_EERKS8_PKS5_
FNDA:0,_ZStplIcSt11char_traitsIcESaIcEENSt7__cxx1112basic_stringIT_T0_T1_EERKS8_S5_
FNDA:65,_ZStplIcSt11char_traitsIcESaIcEENSt7__cxx1112basic_stringIT_T0_T1_EEOS8_RKS8_
FNDA:2,_ZStplIcSt11char_traitsIcESaIcEENSt7__cxx1112basic_stringIT_T0_T1_EERKS8_OS8_
FNDA:10,_ZStplIcSt11char_traitsIcESaIcEENSt7__cxx1112basic_stringIT_T0_T1_EEPKS5_OS8_
FNDA:185,_ZStplIcSt11char_traitsIcESaIcEENSt7__cxx1112basic_stringIT_T0_T1_EEOS8_PKS5_
FNDA:15075,_ZSteqIcSt11char_traitsIcESaIcEEbRKNSt7__cxx1112basic_stringIT_T0_T1_EESA_
FNDA:8219,_ZSteqIcSt11char_traitsIcESaIcEEbRKNSt7__cxx1112basic_stringIT_T0_T1_EEPKS5_
FNDA:46,_ZStneIcSt11char_traitsIcESaIcEEbRKNSt7__cxx1112basic_stringIT_T0_T1_EESA_
FNDA:2,_ZStneIcSt11char_traitsIcESaIcEEbRKNSt7__cxx1112basic_stringIT_T0_T1_EEPKS5_
FNDA:10,_ZNSt7__cxx119to_stringEj
FNDA:1916,_ZNKSt15__str_hash_baseIcSaIcENSt7__cxx1112basic_stringIcSt11char_traitsIcES0_EEEclERKS5_
FNDA:4256,_ZNSt7__cxx1112basic_stringIcSt11char_traitsIcESaIcEEC2IS3_EEPKcRKS3_
FNDA:10,_ZNSt7__cxx1112basic_stringIcSt11char_traitsIcESaIcEEC2IS3_EEmcRKS3_
FNDA:2,_ZNSt7__cxx1112basic_stringIcSt11char_traitsIcESaIcEEC2IPKcvEET_S8_RKS3_
FNDA:20,_ZNSt7__cxx1112basic_stringIcSt11char_traitsIcESaIcEEC2ISt19istreambuf_iteratorIcS2_EvEET_S8_RKS3_
FNF:18
FNH:16
DA:355,13735
DA:641,4256
DA:642,4256
DA:645,4256
DA:646,0
DA:648,4256
DA:649,4256
DA:650,4256
DA:664,10
DA:665,10
DA:666,10
DA:760,22
DA:762,22
DA:765,22
DA:770,22
DA:3528,69
DA:3536,69
DA:3537,69
DA:3538,69
DA:3539,69
DA:3540,69
DA:3541,0
DA:3571,69
DA:3578,138
DA:3607,0
DA:3614,0
DA:3625,0
DA:3630,0
DA:3637,65
DA:3639,65
DA:3644,2
DA:3646,2
DA:3674,10
DA:3676,10
DA:3688,185
DA:3690,185
DA:3710,15075
DA:3714,15075
DA:3715,15075
DA:3727,8219
DA:3730,8219
DA:3731,8219
DA:3788,46
DA:3791,46
DA:3815,2
DA:3817,2
DA:4177,10
DA:4182,10
DA:4183,10
DA:4184,10
DA:4407,1916
DA:4408,1916
LF:52
LH:46
end_of_record
TN:
SF:/usr/include/c++/13/bits/basic_string.tcc
FN:170,215,_ZNSt7__cxx1112basic_stringIcSt11char_traitsIcESaIcEE12_M_constructISt19istreambuf_iteratorIcS2_EEEvT_S8_St18input_iterator_tag
FN:188,188,_ZZNSt7__cxx1112basic_stringIcSt11char_traitsIcESaIcEE12_M_constructISt19istreambuf_iteratorIcS2_EEEvT_S8_St18input_iterator_tagEN6_GuardC2EPS4_
FN:191,191,_ZZNSt7__cxx1112basic_stringIcSt11char_traitsIcESaIcEE12_M_constructISt19istreambuf_iteratorIcS2_EEEvT_S8_St18input_iterator_tagEN6_GuardD2Ev
FN:221,252,_ZNSt7__cxx1112basic_stringIcSt11char_traitsIcESaIcEE12_M_constructIPKcEEvT_S8_St20forward_iterator_tag
FN:221,252,_ZNSt7__cxx1112basic_stringIcSt11char_traitsIcESaIcEE12_M_constructIPcEEvT_S7_St20forward_iterator_tag
FN:239,239,_ZZNSt7__cxx1112basic_stringIcSt11char_traitsIcESaIcEE12_M_constructIPKcEEvT_S8_St20forward_iterator_tagEN6_GuardC2EPS4_
FN:239,239,_ZZNSt7__cxx1112basic_stringIcSt11char_traitsIcESaIcEE12_M_constructIPcEEvT_S7_St20forward_iterator_tagEN6_GuardC2EPS4_
FN:242,242,_ZZNSt7__cxx1112basic_stringIcSt11char_traitsIcESaIcEE12_M_constructIPKcEEvT_S8_St20forward_iterator_tagEN6_GuardD2Ev
FN:242,242,_ZZNSt7__cxx1112basic_stringIcSt11char_traitsIcESaIcEE12_M_constructIPcEEvT_S7_St20forward_iterator_tagEN6_GuardD2Ev
FNDA:20,_ZNSt7__cxx1112basic_stringIcSt11char_traitsIcESaIcEE12_M_constructISt19istreambuf_iteratorIcS2_EEEvT_S8_St18input_iterator_tag
FNDA:20,_ZZNSt7__cxx1112basic_stringIcSt11char_traitsIcESaIcEE12_M_constructISt19istreambuf_iteratorIcS2_EEEvT_S8_St18input_iterator_tagEN6_GuardC2EPS4_
FNDA:20,_ZZNSt7__cxx1112basic_stringIcSt11char_traitsIcESaIcEE12_M_constructISt19istreambuf_iteratorIcS2_EEEvT_S8_St18input_iterator_tagEN6_GuardD2Ev
FNDA:21438,_ZNSt7__cxx1112basic_stringIcSt11char_traitsIcESaIcEE12_M_constructIPKcEEvT_S8_St20forward_iterator_tag
FNDA:0,_ZNSt7__cxx1112basic_stringIcSt11char_traitsIcESaIcEE12_M_constructIPcEEvT_S7_St20forward_iterator_tag
FNDA:21438,_ZZNSt7__cxx1112basic_stringIcSt11char_traitsIcESaIcEE12_M_constructIPKcEEvT_S8_St20forward_iterator_tagEN6_GuardC2EPS4_
FNDA:0,_ZZNSt7__cxx1112basic_stringIcSt11char_traitsIcESaIcEE12_M_constructIPcEEvT_S7_St20forward_iterator_tagEN6_GuardC2EPS4_
FNDA:21438,_ZZNSt7__cxx1112basic_stringIcSt11char_traitsIcESaIcEE12_M_constructIPKcEEvT_S8_St20forward_iterator_tagEN6_GuardD2Ev
FNDA:0,_ZZNSt7__cxx1112basic_stringIcSt11char_traitsIcESaIcEE12_M_constructIPcEEvT_S7_St20forward_iterator_tagEN6_GuardD2Ev
FNF:9
FNH:6
DA:170,20
DA:174,20
DA:175,20
DA:179,319
DA:181,299
DA:182,299
DA:188,20
DA:191,20
DA:194,20
DA:196,154523
DA:198,154503
DA:201,171
DA:202,171
DA:203,171
DA:204,171
DA:205,171
DA:206,171
DA:208,154503
DA:209,154503
DA:212,20
DA:214,20
DA:215,20
DA:221,21438
DA:225,21438
DA:227,21438
DA:229,7723
DA:230,7723
DA:239,21438
DA:242,21438
DA:245,21438
DA:247,21438
DA:249,21438
DA:251,21438
DA:252,21438
LF:34
LH:34
end_of_record
TN:
SF:/usr/include/c++/13/bits/char_traits.h
FN:136,137,_ZN9__gnu_cxx11char_traitsIcE2eqERKcS3_
FN:199,206,_ZN9__gnu_cxx11char_traitsIcE6lengthEPKc
FN:351,359,_ZNSt11char_traitsIcE6assignERcRKc
FN:366,371,_ZNSt11char_traitsIcE2ltERKcS2_
FN:374,390,_ZNSt11char_traitsIcE7compareEPKcS2_m
FN:393,400,_ZNSt11char_traitsIcE6lengthEPKc
FN:427,436,_ZNSt11char_traitsIcE4copyEPcPKcm
FN:451,452,_ZNSt11char_traitsIcE12to_char_typeERKi
FN:461,462,_ZNSt11char_traitsIcE11eq_int_typeERKiS2_
FN:466,467,_ZNSt11char_traitsIcE3eofEv
FNDA:0,_ZN9__gnu_cxx11char_traitsIcE2eqERKcS3_
FNDA:0,_ZN9__gnu_cxx11char_traitsIcE6lengthEPKc
FNDA:154503,_ZNSt11char_traitsIcE6assignERcRKc
FNDA:0,_ZNSt11char_traitsIcE2ltERKcS2_
FNDA:6346,_ZNSt11char_traitsIcE7compareEPKcS2_m
FNDA:12544,_ZNSt11char_traitsIcE6lengthEPKc
FNDA:0,_ZNSt11char_traitsIcE4copyEPcPKcm
FNDA:154802,_ZNSt11char_traitsIcE12to_char_typeERKi
FNDA:928970,_ZNSt11char_traitsIcE11eq_int_typeERKiS2_
FNDA:154842,_ZNSt11char_traitsIcE3eofEv
FNF:10
FNH:6
DA:136,0
DA:137,0
DA:199,0
DA:202,0
DA:203,0
DA:204,0
DA:205,0
DA:351,154503
DA:358,154503
DA:359,154503
DA:366,0
DA:369,0
DA:370,0
DA:374,6346
DA:376,6346
DA:377,19
DA:379,6327
DA:381,0
DA:382,0
DA:383,0
DA:384,0
DA:385,0
DA:386,0
DA:389,6327
DA:393,12544
DA:396,12544
DA:397,0
DA:399,12544
DA:427,0
DA:429,0
DA:430,0
DA:435,0
DA:451,154802
DA:452,154802
DA:461,928970
DA:462,928970
DA:466,154842
DA:467,154842
LF:38
LH:17
end_of_record
TN:
SF:/usr/include/c++/13/bits/charconv.h
FN:55,74,_ZNSt8__detail14__to_chars_lenIjEEjT_i
FN:81,110,_ZNSt8__detail18__to_chars_10_implIjEEvPcjT_
FNDA:10,_ZNSt8__detail14__to_chars_lenIjEEjT_i
FNDA:10,_ZNSt8__detail18__to_chars_10_implIjEEvPcjT_
FNF:2
FNH:2
DA:55,10
DA:61,10
DA:62,10
DA:63,10
DA:64,10
DA:67,14
DA:68,12
DA:69,6
DA:70,6
DA:71,4
DA:72,4
DA:81,10
DA:87,10
DA:93,10
DA:94,20
DA:96,10
DA:97,10
DA:98,10
DA:99,10
DA:100,10
DA:102,10
DA:104,8
DA:105,8
DA:106,8
DA:109,2
DA:110,10
LF:26
LH:26
end_of_record
TN:
SF:/usr/include/c++/13/bits/chrono.h
FN:208,213,_ZNSt6chrono20__duration_cast_implINS_8durationIlSt5ratioILl1ELl1EEEES2_ILl1ELl1000EElLb1ELb0EE6__castIlS5_EES4_RKNS1_IT_T0_EE
FN:221,226,_ZNSt6chrono20__duration_cast_implINS_8durationIlSt5ratioILl1ELl1000000000EEEES2_ILl1000000ELl1EElLb0ELb1EE6__castIlS2_ILl1ELl1000EEEES4_RKNS1_IT_T0_EE
FN:221,226,_ZNSt6chrono20__duration_cast_implINS_8durationIlSt5ratioILl1ELl1000EEEES2_ILl1000ELl1EElLb0ELb1EE6__castIlS2_ILl1ELl1EEEES4_RKNS1_IT_T0_EE
FN:273,291,_ZNSt6chrono13duration_castINS_8durationIlSt5ratioILl1ELl1000000000EEEElS2_ILl1ELl1000EEEENSt9enable_ifIXsrNS_13__is_durationIT_EE5valueES8_E4typeERKNS1_IT0_T1_EE
FN:273,291,_ZNSt6chrono13duration_castINS_8durationIlSt5ratioILl1ELl1000EEEElS2_ILl1ELl1EEEENSt9enable_ifIXsrNS_13__is_durationIT_EE5valueES8_E4typeERKNS1_IT0_T1_EE
FN:273,291,_ZNSt6chrono13duration_castINS_8durationIlSt5ratioILl1ELl1EEEElS2_ILl1ELl1000EEEENSt9enable_ifIXsrNS_13__is_durationIT_EE5valueES8_E4typeERKNS1_IT0_T1_EE
FN:498,499,_ZNSt6chrono15duration_valuesIlE4zeroEv
FN:573,574,_ZNSt6chrono8durationIlSt5ratioILl1ELl1000000000EEEC1IlvEERKT_
FN:573,574,_ZNSt6chrono8durationIlSt5ratioILl1ELl1000EEEC2IjvEERKT_
FN:573,574,_ZNSt6chrono8durationIlSt5ratioILl1ELl1000EEEC2IlvEERKT_
FN:573,574,_ZNSt6chrono8durationIlSt5ratioILl1ELl1EEEC2IlvEERKT_
FN:581,582,_ZNSt6chrono8durationIlSt5ratioILl1ELl1000EEEC2IlS1_ILl1ELl1EEvEERKNS0_IT_T0_EE
FN:589,590,_ZNKSt6chrono8durationIlSt5ratioILl1ELl1000000000EEE5countEv
FN:589,590,_ZNKSt6chrono8durationIlSt5ratioILl1ELl1000EEE5countEv
FN:589,590,_ZNKSt6chrono8durationIlSt5ratioILl1ELl1EEE5countEv
FN:673,674,_ZNSt6chrono8durationIlSt5ratioILl1ELl1000EEE4zeroEv
FN:710,717,_ZNSt6chronomiIlSt5ratioILl1ELl1000EElS1_ILl1ELl1EEEENSt11common_typeIJNS_8durationIT_T0_EENS5_IT1_T2_EEEE4typeERKS8_RKSB_
FN:822,829,_ZNSt6chronoltIlSt5ratioILl1ELl1000EElS2_EEbRKNS_8durationIT_T0_EERKNS3_IT1_T2_EE
FN:855,857,_ZNSt6chronoleIlSt5ratioILl1ELl1000EElS2_EEbRKNS_8durationIT_T0_EERKNS3_IT1_T2_EE
FNDA:7,_ZNSt6chrono20__duration_cast_implINS_8durationIlSt5ratioILl1ELl1EEEES2_ILl1ELl1000EElLb1ELb0EE6__castIlS5_EES4_RKNS1_IT_T0_EE
FNDA:7,_ZNSt6chrono20__duration_cast_implINS_8durationIlSt5ratioILl1ELl1000000000EEEES2_ILl1000000ELl1EElLb0ELb1EE6__castIlS2_ILl1ELl1000EEEES4_RKNS1_IT_T0_EE
FNDA:7,_ZNSt6chrono20__duration_cast_implINS_8durationIlSt5ratioILl1ELl1000EEEES2_ILl1000ELl1EElLb0ELb1EE6__castIlS2_ILl1ELl1EEEES4_RKNS1_IT_T0_EE
FNDA:7,_ZNSt6chrono13duration_castINS_8durationIlSt5ratioILl1ELl1000000000EEEElS2_ILl1ELl1000EEEENSt9enable_ifIXsrNS_13__is_durationIT_EE5valueES8_E4typeERKNS1_IT0_T1_EE
FNDA:7,_ZNSt6chrono13duration_castINS_8durationIlSt5ratioILl1ELl1000EEEElS2_ILl1ELl1EEEENSt9enable_ifIXsrNS_13__is_durationIT_EE5valueES8_E4typeERKNS1_IT0_T1_EE
FNDA:7,_ZNSt6chrono13duration_castINS_8durationIlSt5ratioILl1ELl1EEEElS2_ILl1ELl1000EEEENSt9enable_ifIXsrNS_13__is_durationIT_EE5valueES8_E4typeERKNS1_IT0_T1_EE
FNDA:7,_ZNSt6chrono15duration_valuesIlE4zeroEv
FNDA:7,_ZNSt6chrono8durationIlSt5ratioILl1ELl1000000000EEEC1IlvEERKT_
FNDA:7,_ZNSt6chrono8durationIlSt5ratioILl1ELl1000EEEC2IjvEERKT_
FNDA:21,_ZNSt6chrono8durationIlSt5ratioILl1ELl1000EEEC2IlvEERKT_
FNDA:7,_ZNSt6chrono8durationIlSt5ratioILl1ELl1EEEC2IlvEERKT_
FNDA:7,_ZNSt6chrono8durationIlSt5ratioILl1ELl1000EEEC2IlS1_ILl1ELl1EEvEERKNS0_IT_T0_EE
FNDA:7,_ZNKSt6chrono8durationIlSt5ratioILl1ELl1000000000EEE5countEv
FNDA:49,_ZNKSt6chrono8durationIlSt5ratioILl1ELl1000EEE5countEv
FNDA:14,_ZNKSt6chrono8durationIlSt5ratioILl1ELl1EEE5countEv
FNDA:7,_ZNSt6chrono8durationIlSt5ratioILl1ELl1000EEE4zeroEv
FNDA:7,_ZNSt6chronomiIlSt5ratioILl1ELl1000EElS1_ILl1ELl1EEEENSt11common_typeIJNS_8durationIT_T0_EENS5_IT1_T2_EEEE4typeERKS8_RKSB_
FNDA:7,_ZNSt6chronoltIlSt5ratioILl1ELl1000EElS2_EEbRKNS_8durationIT_T0_EERKNS3_IT1_T2_EE
FNDA:7,_ZNSt6chronoleIlSt5ratioILl1ELl1000EElS2_EEbRKNS_8durationIT_T0_EERKNS3_IT1_T2_EE
FNF:19
FNH:19
DA:208,7
DA:211,14
DA:212,7
DA:221,14
DA:224,28
DA:225,14
DA:273,21
DA:287,21
DA:498,7
DA:499,7
DA:573,42
DA:574,42
DA:581,7
DA:582,7
DA:589,70
DA:590,70
DA:673,7
DA:674,7
DA:710,7
DA:716,7
DA:822,7
DA:828,7
DA:855,7
DA:857,7
LF:24
LH:24
end_of_record
TN:
SF:/usr/include/c++/13/bits/cpp_type_traits.h
FN:607,608,_ZSt12__miter_baseIN9__gnu_cxx17__normal_iteratorIPKNSt7__cxx1112basic_stringIcSt11char_traitsIcESaIcEEESt6vectorIS7_SaIS7_EEEEET_SE_
FN:607,608,_ZSt12__miter_baseIN9__gnu_cxx17__normal_iteratorIPPN12WPEFramework10PluginHost11IDispatcher9ICallbackESt6vectorIS6_SaIS6_EEEEET_SC_
FN:607,608,_ZSt12__miter_baseIN9__gnu_cxx17__normal_iteratorIPSt4pairIjNSt7__cxx1112basic_stringIcSt11char_traitsIcESaIcEEEESt6vectorIS9_SaIS9_EEEEET_SF_
FN:607,608,_ZSt12__miter_baseIPKN12WPEFramework10PluginHost10ISubSystem9subsystemEET_S6_
FN:607,608,_ZSt12__miter_baseIPKNSt7__cxx1112basic_stringIcSt11char_traitsIcESaIcEEEET_S8_
FN:607,608,_ZSt12__miter_baseIPNSt7__cxx1112basic_stringIcSt11char_traitsIcESaIcEEEET_S7_
FN:607,608,_ZSt12__miter_baseIPPN12WPEFramework10PluginHost11IDispatcher9ICallbackEET_S6_
FNDA:0,_ZSt12__miter_baseIN9__gnu_cxx17__normal_iteratorIPKNSt7__cxx1112basic_stringIcSt11char_traitsIcESaIcEEESt6vectorIS7_SaIS7_EEEEET_SE_
FNDA:0,_ZSt12__miter_baseIN9__gnu_cxx17__normal_iteratorIPPN12WPEFramework10PluginHost11IDispatcher9ICallbackESt6vectorIS6_SaIS6_EEEEET_SC_
FNDA:0,_ZSt12__miter_baseIN9__gnu_cxx17__normal_iteratorIPSt4pairIjNSt7__cxx1112basic_stringIcSt11char_traitsIcESaIcEEEESt6vectorIS9_SaIS9_EEEEET_SF_
FNDA:6,_ZSt12__miter_baseIPKN12WPEFramework10PluginHost10ISubSystem9subsystemEET_S6_
FNDA:0,_ZSt12__miter_baseIPKNSt7__cxx1112basic_stringIcSt11char_traitsIcESaIcEEEET_S8_
FNDA:0,_ZSt12__miter_baseIPNSt7__cxx1112basic_stringIcSt11char_traitsIcESaIcEEEET_S7_
FNDA:0,_ZSt12__miter_baseIPPN12WPEFramework10PluginHost11IDispatcher9ICallbackEET_S6_
FNF:7
FNH:1
DA:607,6
DA:608,6
LF:2
LH:2
end_of_record
TN:
SF:/usr/include/c++/13/bits/functional_hash.h
FN:166,166,_ZNKSt4hashIjEclEj
FN:204,206,_ZNSt10_Hash_impl4hashEPKvmm
FNDA:4,_ZNKSt4hashIjEclEj
FNDA:1916,_ZNSt10_Hash_impl4hashEPKvmm
FNF:2
FNH:2
DA:166,4
DA:204,1916
DA:206,1916
LF:3
LH:3
end_of_record
TN:
SF:/usr/include/c++/13/bits/hashtable.h
FN:1595,1610,_ZNSt10_HashtableINSt7__cxx1112basic_stringIcSt11char_traitsIcESaIcEEESt4pairIKS5_N12WPEFramework4Core4JSON7VariantEESaISC_ENSt8__detail10_Select1stESt8equal_toIS5_ESt4hashIS5_ENSE_18_Mod_range_hashingENSE_20_Default_ranged_hashENSE_20_Prime_rehash_policyENSE_17_Hashtable_traitsILb1ELb0ELb1EEEED2Ev
FN:1595,1610,_ZNSt10_HashtableINSt7__cxx1112basic_stringIcSt11char_traitsIcESaIcEEESt4pairIKS5_N12WPEFramework6Plugin10ResolutionEESaISB_ENSt8__detail10_Select1stESt8equal_toIS5_ESt4hashIS5_ENSD_18_Mod_range_hashingENSD_20_Default_ranged_hashENSD_20_Prime_rehash_policyENSD_17_Hashtable_traitsILb1ELb0ELb1EEEED2Ev
FN:1595,1610,_ZNSt10_HashtableINSt7__cxx1112basic_stringIcSt11char_traitsIcESaIcEEESt4pairIKS5_S5_ESaIS8_ENSt8__detail10_Select1stESt8equal_toIS5_ESt4hashIS5_ENSA_18_Mod_range_hashingENSA_20_Default_ranged_hashENSA_20_Prime_rehash_policyENSA_17_Hashtable_traitsILb1ELb0ELb1EEEED2Ev
FN:1595,1610,_ZNSt10_HashtableIjSt4pairIKjNSt7__cxx1112basic_stringIcSt11char_traitsIcESaIcEEEESaIS8_ENSt8__detail10_Select1stESt8equal_toIjESt4hashIjENSA_18_Mod_range_hashingENSA_20_Default_ranged_hashENSA_20_Prime_rehash_policyENSA_17_Hashtable_traitsILb0ELb0ELb1EEEED2Ev
FN:1595,1610,_ZNSt10_HashtableIjSt4pairIKjSt13unordered_mapINSt7__cxx1112basic_stringIcSt11char_traitsIcESaIcEEES8_St4hashIS8_ESt8equal_toIS8_ESaIS0_IKS8_S8_EEEESaISH_ENSt8__detail10_Select1stESB_IjES9_IjENSJ_18_Mod_range_hashingENSJ_20_Default_ranged_hashENSJ_20_Prime_rehash_policyENSJ_17_Hashtable_traitsILb0ELb0ELb1EEEED2Ev
FN:1664,1680,_ZNSt10_HashtableINSt7__cxx1112basic_stringIcSt11char_traitsIcESaIcEEESt4pairIKS5_N12WPEFramework10PluginHost7JSONRPC8ObserverEESaISC_ENSt8__detail10_Select1stESt8equal_toIS5_ESt4hashIS5_ENSE_18_Mod_range_hashingENSE_20_Default_ranged_hashENSE_20_Prime_rehash_policyENSE_17_Hashtable_traitsILb1ELb0ELb1EEEE4findERS7_
FN:1664,1680,_ZNSt10_HashtableINSt7__cxx1112basic_stringIcSt11char_traitsIcESaIcEEESt4pairIKS5_N12WPEFramework4Core4JSON7VariantEESaISC_ENSt8__detail10_Select1stESt8equal_toIS5_ESt4hashIS5_ENSE_18_Mod_range_hashingENSE_20_Default_ranged_hashENSE_20_Prime_rehash_policyENSE_17_Hashtable_traitsILb1ELb0ELb1EEEE4findERS7_
FN:1664,1680,_ZNSt10_HashtableINSt7__cxx1112basic_stringIcSt11char_traitsIcESaIcEEESt4pairIKS5_N12WPEFramework4Core7JSONRPC7Handler5EntryEESaISD_ENSt8__detail10_Select1stESt8equal_toIS5_ESt4hashIS5_ENSF_18_Mod_range_hashingENSF_20_Default_ranged_hashENSF_20_Prime_rehash_policyENSF_17_Hashtable_traitsILb1ELb0ELb1EEEE4findERS7_
FN:1664,1680,_ZNSt10_HashtableINSt7__cxx1112basic_stringIcSt11char_traitsIcESaIcEEESt4pairIKS5_N12WPEFramework6Plugin10ResolutionEESaISB_ENSt8__detail10_Select1stESt8equal_toIS5_ESt4hashIS5_ENSD_18_Mod_range_hashingENSD_20_Default_ranged_hashENSD_20_Prime_rehash_policyENSD_17_Hashtable_traitsILb1ELb0ELb1EEEE4findERS7_
FN:1664,1680,_ZNSt10_HashtableINSt7__cxx1112basic_stringIcSt11char_traitsIcESaIcEEESt4pairIKS5_S5_ESaIS8_ENSt8__detail10_Select1stESt8equal_toIS5_ESt4hashIS5_ENSA_18_Mod_range_hashingENSA_20_Default_ranged_hashENSA_20_Prime_rehash_policyENSA_17_Hashtable_traitsILb1ELb0ELb1EEEE4findERS7_
